Archive member included because of file (symbol)

c:/program files (x86)/atmel/atmel toolchain/avr32 gcc/native/3.4.2.1002/avr32-gnu-toolchain/bin/../lib/gcc/avr32/4.4.7/../../../../avr32/lib/ucr3fp\libm.a(lib_a-s_cos.o)
                              Library/communication/mavlink_waypoint_handler.o (cos)
c:/program files (x86)/atmel/atmel toolchain/avr32 gcc/native/3.4.2.1002/avr32-gnu-toolchain/bin/../lib/gcc/avr32/4.4.7/../../../../avr32/lib/ucr3fp\libm.a(lib_a-s_floor.o)
                              Library/communication/data_logging.o (floor)
c:/program files (x86)/atmel/atmel toolchain/avr32 gcc/native/3.4.2.1002/avr32-gnu-toolchain/bin/../lib/gcc/avr32/4.4.7/../../../../avr32/lib/ucr3fp\libm.a(lib_a-s_sin.o)
                              Library/communication/mavlink_waypoint_handler.o (sin)
c:/program files (x86)/atmel/atmel toolchain/avr32 gcc/native/3.4.2.1002/avr32-gnu-toolchain/bin/../lib/gcc/avr32/4.4.7/../../../../avr32/lib/ucr3fp\libm.a(lib_a-w_asin.o)
                              Library/util/coord_conventions.o (asin)
c:/program files (x86)/atmel/atmel toolchain/avr32 gcc/native/3.4.2.1002/avr32-gnu-toolchain/bin/../lib/gcc/avr32/4.4.7/../../../../avr32/lib/ucr3fp\libm.a(lib_a-w_atan2.o)
                              Library/control/stabilisation_copter.o (atan2)
c:/program files (x86)/atmel/atmel toolchain/avr32 gcc/native/3.4.2.1002/avr32-gnu-toolchain/bin/../lib/gcc/avr32/4.4.7/../../../../avr32/lib/ucr3fp\libm.a(lib_a-w_fmod.o)
                              Library/util/quick_trig.o (fmod)
c:/program files (x86)/atmel/atmel toolchain/avr32 gcc/native/3.4.2.1002/avr32-gnu-toolchain/bin/../lib/gcc/avr32/4.4.7/../../../../avr32/lib/ucr3fp\libm.a(lib_a-w_pow.o)
                              Library/hal/bmp085.o (pow)
c:/program files (x86)/atmel/atmel toolchain/avr32 gcc/native/3.4.2.1002/avr32-gnu-toolchain/bin/../lib/gcc/avr32/4.4.7/../../../../avr32/lib/ucr3fp\libm.a(lib_a-w_sqrt.o)
                              Library/communication/hud.o (sqrt)
c:/program files (x86)/atmel/atmel toolchain/avr32 gcc/native/3.4.2.1002/avr32-gnu-toolchain/bin/../lib/gcc/avr32/4.4.7/../../../../avr32/lib/ucr3fp\libm.a(lib_a-wf_sqrt.o)
                              Library/util/matrixlib_float.o (sqrtf)
c:/program files (x86)/atmel/atmel toolchain/avr32 gcc/native/3.4.2.1002/avr32-gnu-toolchain/bin/../lib/gcc/avr32/4.4.7/../../../../avr32/lib/ucr3fp\libm.a(lib_a-e_asin.o)
                              c:/program files (x86)/atmel/atmel toolchain/avr32 gcc/native/3.4.2.1002/avr32-gnu-toolchain/bin/../lib/gcc/avr32/4.4.7/../../../../avr32/lib/ucr3fp\libm.a(lib_a-w_asin.o) (__ieee754_asin)
c:/program files (x86)/atmel/atmel toolchain/avr32 gcc/native/3.4.2.1002/avr32-gnu-toolchain/bin/../lib/gcc/avr32/4.4.7/../../../../avr32/lib/ucr3fp\libm.a(lib_a-e_atan2.o)
                              c:/program files (x86)/atmel/atmel toolchain/avr32 gcc/native/3.4.2.1002/avr32-gnu-toolchain/bin/../lib/gcc/avr32/4.4.7/../../../../avr32/lib/ucr3fp\libm.a(lib_a-w_atan2.o) (__ieee754_atan2)
c:/program files (x86)/atmel/atmel toolchain/avr32 gcc/native/3.4.2.1002/avr32-gnu-toolchain/bin/../lib/gcc/avr32/4.4.7/../../../../avr32/lib/ucr3fp\libm.a(lib_a-e_fmod.o)
                              c:/program files (x86)/atmel/atmel toolchain/avr32 gcc/native/3.4.2.1002/avr32-gnu-toolchain/bin/../lib/gcc/avr32/4.4.7/../../../../avr32/lib/ucr3fp\libm.a(lib_a-w_fmod.o) (__ieee754_fmod)
c:/program files (x86)/atmel/atmel toolchain/avr32 gcc/native/3.4.2.1002/avr32-gnu-toolchain/bin/../lib/gcc/avr32/4.4.7/../../../../avr32/lib/ucr3fp\libm.a(lib_a-e_pow.o)
                              c:/program files (x86)/atmel/atmel toolchain/avr32 gcc/native/3.4.2.1002/avr32-gnu-toolchain/bin/../lib/gcc/avr32/4.4.7/../../../../avr32/lib/ucr3fp\libm.a(lib_a-w_pow.o) (__ieee754_pow)
c:/program files (x86)/atmel/atmel toolchain/avr32 gcc/native/3.4.2.1002/avr32-gnu-toolchain/bin/../lib/gcc/avr32/4.4.7/../../../../avr32/lib/ucr3fp\libm.a(lib_a-e_rem_pio2.o)
                              c:/program files (x86)/atmel/atmel toolchain/avr32 gcc/native/3.4.2.1002/avr32-gnu-toolchain/bin/../lib/gcc/avr32/4.4.7/../../../../avr32/lib/ucr3fp\libm.a(lib_a-s_cos.o) (__ieee754_rem_pio2)
c:/program files (x86)/atmel/atmel toolchain/avr32 gcc/native/3.4.2.1002/avr32-gnu-toolchain/bin/../lib/gcc/avr32/4.4.7/../../../../avr32/lib/ucr3fp\libm.a(lib_a-e_sqrt.o)
                              c:/program files (x86)/atmel/atmel toolchain/avr32 gcc/native/3.4.2.1002/avr32-gnu-toolchain/bin/../lib/gcc/avr32/4.4.7/../../../../avr32/lib/ucr3fp\libm.a(lib_a-w_sqrt.o) (__ieee754_sqrt)
c:/program files (x86)/atmel/atmel toolchain/avr32 gcc/native/3.4.2.1002/avr32-gnu-toolchain/bin/../lib/gcc/avr32/4.4.7/../../../../avr32/lib/ucr3fp\libm.a(lib_a-ef_sqrt.o)
                              c:/program files (x86)/atmel/atmel toolchain/avr32 gcc/native/3.4.2.1002/avr32-gnu-toolchain/bin/../lib/gcc/avr32/4.4.7/../../../../avr32/lib/ucr3fp\libm.a(lib_a-wf_sqrt.o) (__ieee754_sqrtf)
c:/program files (x86)/atmel/atmel toolchain/avr32 gcc/native/3.4.2.1002/avr32-gnu-toolchain/bin/../lib/gcc/avr32/4.4.7/../../../../avr32/lib/ucr3fp\libm.a(lib_a-k_cos.o)
                              c:/program files (x86)/atmel/atmel toolchain/avr32 gcc/native/3.4.2.1002/avr32-gnu-toolchain/bin/../lib/gcc/avr32/4.4.7/../../../../avr32/lib/ucr3fp\libm.a(lib_a-s_cos.o) (__kernel_cos)
c:/program files (x86)/atmel/atmel toolchain/avr32 gcc/native/3.4.2.1002/avr32-gnu-toolchain/bin/../lib/gcc/avr32/4.4.7/../../../../avr32/lib/ucr3fp\libm.a(lib_a-k_rem_pio2.o)
                              c:/program files (x86)/atmel/atmel toolchain/avr32 gcc/native/3.4.2.1002/avr32-gnu-toolchain/bin/../lib/gcc/avr32/4.4.7/../../../../avr32/lib/ucr3fp\libm.a(lib_a-e_rem_pio2.o) (__kernel_rem_pio2)
c:/program files (x86)/atmel/atmel toolchain/avr32 gcc/native/3.4.2.1002/avr32-gnu-toolchain/bin/../lib/gcc/avr32/4.4.7/../../../../avr32/lib/ucr3fp\libm.a(lib_a-k_sin.o)
                              c:/program files (x86)/atmel/atmel toolchain/avr32 gcc/native/3.4.2.1002/avr32-gnu-toolchain/bin/../lib/gcc/avr32/4.4.7/../../../../avr32/lib/ucr3fp\libm.a(lib_a-s_cos.o) (__kernel_sin)
c:/program files (x86)/atmel/atmel toolchain/avr32 gcc/native/3.4.2.1002/avr32-gnu-toolchain/bin/../lib/gcc/avr32/4.4.7/../../../../avr32/lib/ucr3fp\libm.a(lib_a-s_atan.o)
                              c:/program files (x86)/atmel/atmel toolchain/avr32 gcc/native/3.4.2.1002/avr32-gnu-toolchain/bin/../lib/gcc/avr32/4.4.7/../../../../avr32/lib/ucr3fp\libm.a(lib_a-e_atan2.o) (atan)
c:/program files (x86)/atmel/atmel toolchain/avr32 gcc/native/3.4.2.1002/avr32-gnu-toolchain/bin/../lib/gcc/avr32/4.4.7/../../../../avr32/lib/ucr3fp\libm.a(lib_a-s_fabs.o)
                              c:/program files (x86)/atmel/atmel toolchain/avr32 gcc/native/3.4.2.1002/avr32-gnu-toolchain/bin/../lib/gcc/avr32/4.4.7/../../../../avr32/lib/ucr3fp\libm.a(lib_a-w_asin.o) (fabs)
c:/program files (x86)/atmel/atmel toolchain/avr32 gcc/native/3.4.2.1002/avr32-gnu-toolchain/bin/../lib/gcc/avr32/4.4.7/../../../../avr32/lib/ucr3fp\libm.a(lib_a-s_finite.o)
                              c:/program files (x86)/atmel/atmel toolchain/avr32 gcc/native/3.4.2.1002/avr32-gnu-toolchain/bin/../lib/gcc/avr32/4.4.7/../../../../avr32/lib/ucr3fp\libm.a(lib_a-w_pow.o) (finite)
c:/program files (x86)/atmel/atmel toolchain/avr32 gcc/native/3.4.2.1002/avr32-gnu-toolchain/bin/../lib/gcc/avr32/4.4.7/../../../../avr32/lib/ucr3fp\libm.a(lib_a-s_isnand.o)
                              c:/program files (x86)/atmel/atmel toolchain/avr32 gcc/native/3.4.2.1002/avr32-gnu-toolchain/bin/../lib/gcc/avr32/4.4.7/../../../../avr32/lib/ucr3fp\libm.a(lib_a-w_asin.o) (__isnand)
c:/program files (x86)/atmel/atmel toolchain/avr32 gcc/native/3.4.2.1002/avr32-gnu-toolchain/bin/../lib/gcc/avr32/4.4.7/../../../../avr32/lib/ucr3fp\libm.a(lib_a-s_lib_ver.o)
                              c:/program files (x86)/atmel/atmel toolchain/avr32 gcc/native/3.4.2.1002/avr32-gnu-toolchain/bin/../lib/gcc/avr32/4.4.7/../../../../avr32/lib/ucr3fp\libm.a(lib_a-w_asin.o) (__fdlib_version)
c:/program files (x86)/atmel/atmel toolchain/avr32 gcc/native/3.4.2.1002/avr32-gnu-toolchain/bin/../lib/gcc/avr32/4.4.7/../../../../avr32/lib/ucr3fp\libm.a(lib_a-s_matherr.o)
                              c:/program files (x86)/atmel/atmel toolchain/avr32 gcc/native/3.4.2.1002/avr32-gnu-toolchain/bin/../lib/gcc/avr32/4.4.7/../../../../avr32/lib/ucr3fp\libm.a(lib_a-w_asin.o) (matherr)
c:/program files (x86)/atmel/atmel toolchain/avr32 gcc/native/3.4.2.1002/avr32-gnu-toolchain/bin/../lib/gcc/avr32/4.4.7/../../../../avr32/lib/ucr3fp\libm.a(lib_a-s_nan.o)
                              c:/program files (x86)/atmel/atmel toolchain/avr32 gcc/native/3.4.2.1002/avr32-gnu-toolchain/bin/../lib/gcc/avr32/4.4.7/../../../../avr32/lib/ucr3fp\libm.a(lib_a-w_asin.o) (nan)
c:/program files (x86)/atmel/atmel toolchain/avr32 gcc/native/3.4.2.1002/avr32-gnu-toolchain/bin/../lib/gcc/avr32/4.4.7/../../../../avr32/lib/ucr3fp\libm.a(lib_a-s_rint.o)
                              c:/program files (x86)/atmel/atmel toolchain/avr32 gcc/native/3.4.2.1002/avr32-gnu-toolchain/bin/../lib/gcc/avr32/4.4.7/../../../../avr32/lib/ucr3fp\libm.a(lib_a-w_pow.o) (rint)
c:/program files (x86)/atmel/atmel toolchain/avr32 gcc/native/3.4.2.1002/avr32-gnu-toolchain/bin/../lib/gcc/avr32/4.4.7/../../../../avr32/lib/ucr3fp\libm.a(lib_a-s_scalbn.o)
                              c:/program files (x86)/atmel/atmel toolchain/avr32 gcc/native/3.4.2.1002/avr32-gnu-toolchain/bin/../lib/gcc/avr32/4.4.7/../../../../avr32/lib/ucr3fp\libm.a(lib_a-e_pow.o) (scalbn)
c:/program files (x86)/atmel/atmel toolchain/avr32 gcc/native/3.4.2.1002/avr32-gnu-toolchain/bin/../lib/gcc/avr32/4.4.7/../../../../avr32/lib/ucr3fp\libm.a(lib_a-sf_isnan.o)
                              c:/program files (x86)/atmel/atmel toolchain/avr32 gcc/native/3.4.2.1002/avr32-gnu-toolchain/bin/../lib/gcc/avr32/4.4.7/../../../../avr32/lib/ucr3fp\libm.a(lib_a-wf_sqrt.o) (isnanf)
c:/program files (x86)/atmel/atmel toolchain/avr32 gcc/native/3.4.2.1002/avr32-gnu-toolchain/bin/../lib/gcc/avr32/4.4.7/../../../../avr32/lib/ucr3fp\libm.a(lib_a-s_copysign.o)
                              c:/program files (x86)/atmel/atmel toolchain/avr32 gcc/native/3.4.2.1002/avr32-gnu-toolchain/bin/../lib/gcc/avr32/4.4.7/../../../../avr32/lib/ucr3fp\libm.a(lib_a-s_scalbn.o) (copysign)
c:/program files (x86)/atmel/atmel toolchain/avr32 gcc/native/3.4.2.1002/avr32-gnu-toolchain/bin/../lib/gcc/avr32/4.4.7/ucr3fp\libgcc.a(_avr32_f64_mul.o)
                              Library/communication/data_logging.o (__avr32_f64_mul)
c:/program files (x86)/atmel/atmel toolchain/avr32 gcc/native/3.4.2.1002/avr32-gnu-toolchain/bin/../lib/gcc/avr32/4.4.7/ucr3fp\libgcc.a(_avr32_f64_addsub.o)
                              Library/communication/data_logging.o (__avr32_f64_sub)
c:/program files (x86)/atmel/atmel toolchain/avr32 gcc/native/3.4.2.1002/avr32-gnu-toolchain/bin/../lib/gcc/avr32/4.4.7/ucr3fp\libgcc.a(_avr32_f64_to_s32.o)
                              Library/hal/fat_fs/diskio.o (__avr32_f64_to_u32)
c:/program files (x86)/atmel/atmel toolchain/avr32 gcc/native/3.4.2.1002/avr32-gnu-toolchain/bin/../lib/gcc/avr32/4.4.7/ucr3fp\libgcc.a(_avr32_f64_to_s64.o)
                              Library/communication/data_logging.o (__avr32_f64_to_s64)
c:/program files (x86)/atmel/atmel toolchain/avr32 gcc/native/3.4.2.1002/avr32-gnu-toolchain/bin/../lib/gcc/avr32/4.4.7/ucr3fp\libgcc.a(_avr32_s32_to_f64.o)
                              Library/hal/time_keeper.o (__avr32_u32_to_f64)
c:/program files (x86)/atmel/atmel toolchain/avr32 gcc/native/3.4.2.1002/avr32-gnu-toolchain/bin/../lib/gcc/avr32/4.4.7/ucr3fp\libgcc.a(_avr32_f64_cmp_eq.o)
                              c:/program files (x86)/atmel/atmel toolchain/avr32 gcc/native/3.4.2.1002/avr32-gnu-toolchain/bin/../lib/gcc/avr32/4.4.7/../../../../avr32/lib/ucr3fp\libm.a(lib_a-w_fmod.o) (__avr32_f64_cmp_eq)
c:/program files (x86)/atmel/atmel toolchain/avr32 gcc/native/3.4.2.1002/avr32-gnu-toolchain/bin/../lib/gcc/avr32/4.4.7/ucr3fp\libgcc.a(_avr32_f64_cmp_ge.o)
                              c:/program files (x86)/atmel/atmel toolchain/avr32 gcc/native/3.4.2.1002/avr32-gnu-toolchain/bin/../lib/gcc/avr32/4.4.7/../../../../avr32/lib/ucr3fp\libm.a(lib_a-e_pow.o) (__avr32_f64_cmp_ge)
c:/program files (x86)/atmel/atmel toolchain/avr32 gcc/native/3.4.2.1002/avr32-gnu-toolchain/bin/../lib/gcc/avr32/4.4.7/ucr3fp\libgcc.a(_avr32_f64_cmp_lt.o)
                              Library/communication/data_logging.o (__avr32_f64_cmp_lt)
c:/program files (x86)/atmel/atmel toolchain/avr32 gcc/native/3.4.2.1002/avr32-gnu-toolchain/bin/../lib/gcc/avr32/4.4.7/ucr3fp\libgcc.a(_avr32_f32_cmp_lt.o)
                              c:/program files (x86)/atmel/atmel toolchain/avr32 gcc/native/3.4.2.1002/avr32-gnu-toolchain/bin/../lib/gcc/avr32/4.4.7/../../../../avr32/lib/ucr3fp\libm.a(lib_a-wf_sqrt.o) (__avr32_f32_cmp_lt)
c:/program files (x86)/atmel/atmel toolchain/avr32 gcc/native/3.4.2.1002/avr32-gnu-toolchain/bin/../lib/gcc/avr32/4.4.7/ucr3fp\libgcc.a(_avr32_f64_div.o)
                              Library/communication/mavlink_waypoint_handler.o (__avr32_f64_div)
c:/program files (x86)/atmel/atmel toolchain/avr32 gcc/native/3.4.2.1002/avr32-gnu-toolchain/bin/../lib/gcc/avr32/4.4.7/ucr3fp\libgcc.a(_avr32_f32_div.o)
                              Library/communication/hud.o (__avr32_f32_div)
c:/program files (x86)/atmel/atmel toolchain/avr32 gcc/native/3.4.2.1002/avr32-gnu-toolchain/bin/../lib/gcc/avr32/4.4.7/ucr3fp\libgcc.a(_avr32_f32_addsub.o)
                              c:/program files (x86)/atmel/atmel toolchain/avr32 gcc/native/3.4.2.1002/avr32-gnu-toolchain/bin/../lib/gcc/avr32/4.4.7/../../../../avr32/lib/ucr3fp\libm.a(lib_a-ef_sqrt.o) (__avr32_f32_sub)
c:/program files (x86)/atmel/atmel toolchain/avr32 gcc/native/3.4.2.1002/avr32-gnu-toolchain/bin/../lib/gcc/avr32/4.4.7/ucr3fp\libgcc.a(_avr32_f32_mul.o)
                              c:/program files (x86)/atmel/atmel toolchain/avr32 gcc/native/3.4.2.1002/avr32-gnu-toolchain/bin/../lib/gcc/avr32/4.4.7/../../../../avr32/lib/ucr3fp\libm.a(lib_a-ef_sqrt.o) (__avr32_f32_mul)
c:/program files (x86)/atmel/atmel toolchain/avr32 gcc/native/3.4.2.1002/avr32-gnu-toolchain/bin/../lib/gcc/avr32/4.4.7/ucr3fp\libgcc.a(_avr32_f32_to_f64.o)
                              Library/communication/hud.o (__avr32_f32_to_f64)
c:/program files (x86)/atmel/atmel toolchain/avr32 gcc/native/3.4.2.1002/avr32-gnu-toolchain/bin/../lib/gcc/avr32/4.4.7/ucr3fp\libgcc.a(_avr32_f64_to_f32.o)
                              Library/communication/hud.o (__avr32_f64_to_f32)
c:/program files (x86)/atmel/atmel toolchain/avr32 gcc/native/3.4.2.1002/avr32-gnu-toolchain/bin/../lib/gcc/avr32/4.4.7/ucr3fp\libgcc.a(_floatdidf.o)
                              Library/communication/data_logging.o (__avr32_s64_to_f64)
c:/program files (x86)/atmel/atmel toolchain/avr32 gcc/native/3.4.2.1002/avr32-gnu-toolchain/bin/../lib/gcc/avr32/4.4.7/ucr3fp\libgcc.a(_divdi3.o)
                              Library/util/print_util.o (__avr32_sdiv64)
c:/program files (x86)/atmel/atmel toolchain/avr32 gcc/native/3.4.2.1002/avr32-gnu-toolchain/bin/../lib/gcc/avr32/4.4.7/ucr3fp\libgcc.a(_moddi3.o)
                              Library/util/print_util.o (__avr32_smod64)
c:/program files (x86)/atmel/atmel toolchain/avr32 gcc/native/3.4.2.1002/avr32-gnu-toolchain/bin/../lib/gcc/avr32/4.4.7/ucr3fp\libgcc.a(_udivdi3.o)
                              Library/communication/data_logging.o (__avr32_udiv64)
c:/program files (x86)/atmel/atmel toolchain/avr32 gcc/native/3.4.2.1002/avr32-gnu-toolchain/bin/../lib/gcc/avr32/4.4.7/ucr3fp\libgcc.a(_umoddi3.o)
                              Library/communication/data_logging.o (__avr32_umod64)
c:/program files (x86)/atmel/atmel toolchain/avr32 gcc/native/3.4.2.1002/avr32-gnu-toolchain/bin/../lib/gcc/avr32/4.4.7/../../../../avr32/lib/ucr3fp\libc.a(lib_a-errno.o)
                              c:/program files (x86)/atmel/atmel toolchain/avr32 gcc/native/3.4.2.1002/avr32-gnu-toolchain/bin/../lib/gcc/avr32/4.4.7/../../../../avr32/lib/ucr3fp\libm.a(lib_a-w_asin.o) (__errno)
c:/program files (x86)/atmel/atmel toolchain/avr32 gcc/native/3.4.2.1002/avr32-gnu-toolchain/bin/../lib/gcc/avr32/4.4.7/../../../../avr32/lib/ucr3fp\libc.a(lib_a-impure.o)
                              c:/program files (x86)/atmel/atmel toolchain/avr32 gcc/native/3.4.2.1002/avr32-gnu-toolchain/bin/../lib/gcc/avr32/4.4.7/../../../../avr32/lib/ucr3fp\libc.a(lib_a-errno.o) (_impure_ptr)
c:/program files (x86)/atmel/atmel toolchain/avr32 gcc/native/3.4.2.1002/avr32-gnu-toolchain/bin/../lib/gcc/avr32/4.4.7/../../../../avr32/lib/ucr3fp\libc.a(lib_a-malloc.o)
                              Library/hal/fat_fs/option/syscall.o (free)
c:/program files (x86)/atmel/atmel toolchain/avr32 gcc/native/3.4.2.1002/avr32-gnu-toolchain/bin/../lib/gcc/avr32/4.4.7/../../../../avr32/lib/ucr3fp\libc.a(lib_a-mallocr.o)
                              c:/program files (x86)/atmel/atmel toolchain/avr32 gcc/native/3.4.2.1002/avr32-gnu-toolchain/bin/../lib/gcc/avr32/4.4.7/../../../../avr32/lib/ucr3fp\libc.a(lib_a-malloc.o) (_malloc_r)
c:/program files (x86)/atmel/atmel toolchain/avr32 gcc/native/3.4.2.1002/avr32-gnu-toolchain/bin/../lib/gcc/avr32/4.4.7/../../../../avr32/lib/ucr3fp\libc.a(lib_a-memcpy.o)
                              Library/control/stabilisation_copter.o (memcpy)
c:/program files (x86)/atmel/atmel toolchain/avr32 gcc/native/3.4.2.1002/avr32-gnu-toolchain/bin/../lib/gcc/avr32/4.4.7/../../../../avr32/lib/ucr3fp\libc.a(lib_a-memset.o)
                              Library/communication/console.o (memset)
c:/program files (x86)/atmel/atmel toolchain/avr32 gcc/native/3.4.2.1002/avr32-gnu-toolchain/bin/../lib/gcc/avr32/4.4.7/../../../../avr32/lib/ucr3fp\libc.a(lib_a-mlock.o)
                              c:/program files (x86)/atmel/atmel toolchain/avr32 gcc/native/3.4.2.1002/avr32-gnu-toolchain/bin/../lib/gcc/avr32/4.4.7/../../../../avr32/lib/ucr3fp\libc.a(lib_a-mallocr.o) (__malloc_lock)
c:/program files (x86)/atmel/atmel toolchain/avr32 gcc/native/3.4.2.1002/avr32-gnu-toolchain/bin/../lib/gcc/avr32/4.4.7/../../../../avr32/lib/ucr3fp\libc.a(lib_a-sbrkr.o)
                              c:/program files (x86)/atmel/atmel toolchain/avr32 gcc/native/3.4.2.1002/avr32-gnu-toolchain/bin/../lib/gcc/avr32/4.4.7/../../../../avr32/lib/ucr3fp\libc.a(lib_a-mallocr.o) (_sbrk_r)
c:/program files (x86)/atmel/atmel toolchain/avr32 gcc/native/3.4.2.1002/avr32-gnu-toolchain/bin/../lib/gcc/avr32/4.4.7/../../../../avr32/lib/ucr3fp\libc.a(lib_a-snprintf.o)
                              Library/communication/data_logging.o (snprintf)
c:/program files (x86)/atmel/atmel toolchain/avr32 gcc/native/3.4.2.1002/avr32-gnu-toolchain/bin/../lib/gcc/avr32/4.4.7/../../../../avr32/lib/ucr3fp\libc.a(lib_a-strcpy.o)
                              Library/communication/data_logging.o (strcpy)
c:/program files (x86)/atmel/atmel toolchain/avr32 gcc/native/3.4.2.1002/avr32-gnu-toolchain/bin/../lib/gcc/avr32/4.4.7/../../../../avr32/lib/ucr3fp\libc.a(lib_a-strlen.o)
                              Library/communication/onboard_parameters.o (strlen)
c:/program files (x86)/atmel/atmel toolchain/avr32 gcc/native/3.4.2.1002/avr32-gnu-toolchain/bin/../lib/gcc/avr32/4.4.7/../../../../avr32/lib/ucr3fp\libc.a(lib_a-syscalls.o)
                              c:/program files (x86)/atmel/atmel toolchain/avr32 gcc/native/3.4.2.1002/avr32-gnu-toolchain/bin/../lib/gcc/avr32/4.4.7/../../../../avr32/lib/ucr3fp\libc.a(lib_a-sbrkr.o) (_sbrk)
c:/program files (x86)/atmel/atmel toolchain/avr32 gcc/native/3.4.2.1002/avr32-gnu-toolchain/bin/../lib/gcc/avr32/4.4.7/../../../../avr32/lib/ucr3fp\libc.a(lib_a-vfprintf.o)
                              c:/program files (x86)/atmel/atmel toolchain/avr32 gcc/native/3.4.2.1002/avr32-gnu-toolchain/bin/../lib/gcc/avr32/4.4.7/../../../../avr32/lib/ucr3fp\libc.a(lib_a-snprintf.o) (_vfprintf_r)
c:/program files (x86)/atmel/atmel toolchain/avr32 gcc/native/3.4.2.1002/avr32-gnu-toolchain/bin/../lib/gcc/avr32/4.4.7/../../../../avr32/lib/ucr3fp\libc.a(lib_a-wsetup.o)
                              c:/program files (x86)/atmel/atmel toolchain/avr32 gcc/native/3.4.2.1002/avr32-gnu-toolchain/bin/../lib/gcc/avr32/4.4.7/../../../../avr32/lib/ucr3fp\libc.a(lib_a-vfprintf.o) (__swsetup_r)
c:/program files (x86)/atmel/atmel toolchain/avr32 gcc/native/3.4.2.1002/avr32-gnu-toolchain/bin/../lib/gcc/avr32/4.4.7/../../../../avr32/lib/ucr3fp\libc.a(lib_a-dtoa.o)
                              c:/program files (x86)/atmel/atmel toolchain/avr32 gcc/native/3.4.2.1002/avr32-gnu-toolchain/bin/../lib/gcc/avr32/4.4.7/../../../../avr32/lib/ucr3fp\libc.a(lib_a-vfprintf.o) (_dtoa_r)
c:/program files (x86)/atmel/atmel toolchain/avr32 gcc/native/3.4.2.1002/avr32-gnu-toolchain/bin/../lib/gcc/avr32/4.4.7/../../../../avr32/lib/ucr3fp\libc.a(lib_a-fflush.o)
                              c:/program files (x86)/atmel/atmel toolchain/avr32 gcc/native/3.4.2.1002/avr32-gnu-toolchain/bin/../lib/gcc/avr32/4.4.7/../../../../avr32/lib/ucr3fp\libc.a(lib_a-vfprintf.o) (_fflush_r)
c:/program files (x86)/atmel/atmel toolchain/avr32 gcc/native/3.4.2.1002/avr32-gnu-toolchain/bin/../lib/gcc/avr32/4.4.7/../../../../avr32/lib/ucr3fp\libc.a(lib_a-findfp.o)
                              c:/program files (x86)/atmel/atmel toolchain/avr32 gcc/native/3.4.2.1002/avr32-gnu-toolchain/bin/../lib/gcc/avr32/4.4.7/../../../../avr32/lib/ucr3fp\libc.a(lib_a-vfprintf.o) (__sinit)
c:/program files (x86)/atmel/atmel toolchain/avr32 gcc/native/3.4.2.1002/avr32-gnu-toolchain/bin/../lib/gcc/avr32/4.4.7/../../../../avr32/lib/ucr3fp\libc.a(lib_a-freer.o)
                              c:/program files (x86)/atmel/atmel toolchain/avr32 gcc/native/3.4.2.1002/avr32-gnu-toolchain/bin/../lib/gcc/avr32/4.4.7/../../../../avr32/lib/ucr3fp\libc.a(lib_a-malloc.o) (_free_r)
c:/program files (x86)/atmel/atmel toolchain/avr32 gcc/native/3.4.2.1002/avr32-gnu-toolchain/bin/../lib/gcc/avr32/4.4.7/../../../../avr32/lib/ucr3fp\libc.a(lib_a-fvwrite.o)
                              c:/program files (x86)/atmel/atmel toolchain/avr32 gcc/native/3.4.2.1002/avr32-gnu-toolchain/bin/../lib/gcc/avr32/4.4.7/../../../../avr32/lib/ucr3fp\libc.a(lib_a-vfprintf.o) (__sfvwrite_r)
c:/program files (x86)/atmel/atmel toolchain/avr32 gcc/native/3.4.2.1002/avr32-gnu-toolchain/bin/../lib/gcc/avr32/4.4.7/../../../../avr32/lib/ucr3fp\libc.a(lib_a-fwalk.o)
                              c:/program files (x86)/atmel/atmel toolchain/avr32 gcc/native/3.4.2.1002/avr32-gnu-toolchain/bin/../lib/gcc/avr32/4.4.7/../../../../avr32/lib/ucr3fp\libc.a(lib_a-fflush.o) (_fwalk_reent)
c:/program files (x86)/atmel/atmel toolchain/avr32 gcc/native/3.4.2.1002/avr32-gnu-toolchain/bin/../lib/gcc/avr32/4.4.7/../../../../avr32/lib/ucr3fp\libc.a(lib_a-locale.o)
                              c:/program files (x86)/atmel/atmel toolchain/avr32 gcc/native/3.4.2.1002/avr32-gnu-toolchain/bin/../lib/gcc/avr32/4.4.7/../../../../avr32/lib/ucr3fp\libc.a(lib_a-vfprintf.o) (_localeconv_r)
c:/program files (x86)/atmel/atmel toolchain/avr32 gcc/native/3.4.2.1002/avr32-gnu-toolchain/bin/../lib/gcc/avr32/4.4.7/../../../../avr32/lib/ucr3fp\libc.a(lib_a-makebuf.o)
                              c:/program files (x86)/atmel/atmel toolchain/avr32 gcc/native/3.4.2.1002/avr32-gnu-toolchain/bin/../lib/gcc/avr32/4.4.7/../../../../avr32/lib/ucr3fp\libc.a(lib_a-wsetup.o) (__smakebuf_r)
c:/program files (x86)/atmel/atmel toolchain/avr32 gcc/native/3.4.2.1002/avr32-gnu-toolchain/bin/../lib/gcc/avr32/4.4.7/../../../../avr32/lib/ucr3fp\libc.a(lib_a-memchr.o)
                              c:/program files (x86)/atmel/atmel toolchain/avr32 gcc/native/3.4.2.1002/avr32-gnu-toolchain/bin/../lib/gcc/avr32/4.4.7/../../../../avr32/lib/ucr3fp\libc.a(lib_a-vfprintf.o) (memchr)
c:/program files (x86)/atmel/atmel toolchain/avr32 gcc/native/3.4.2.1002/avr32-gnu-toolchain/bin/../lib/gcc/avr32/4.4.7/../../../../avr32/lib/ucr3fp\libc.a(lib_a-memmove.o)
                              c:/program files (x86)/atmel/atmel toolchain/avr32 gcc/native/3.4.2.1002/avr32-gnu-toolchain/bin/../lib/gcc/avr32/4.4.7/../../../../avr32/lib/ucr3fp\libc.a(lib_a-fvwrite.o) (memmove)
c:/program files (x86)/atmel/atmel toolchain/avr32 gcc/native/3.4.2.1002/avr32-gnu-toolchain/bin/../lib/gcc/avr32/4.4.7/../../../../avr32/lib/ucr3fp\libc.a(lib_a-mprec.o)
                              c:/program files (x86)/atmel/atmel toolchain/avr32 gcc/native/3.4.2.1002/avr32-gnu-toolchain/bin/../lib/gcc/avr32/4.4.7/../../../../avr32/lib/ucr3fp\libc.a(lib_a-dtoa.o) (__hi0bits)
c:/program files (x86)/atmel/atmel toolchain/avr32 gcc/native/3.4.2.1002/avr32-gnu-toolchain/bin/../lib/gcc/avr32/4.4.7/../../../../avr32/lib/ucr3fp\libc.a(lib_a-reallocr.o)
                              c:/program files (x86)/atmel/atmel toolchain/avr32 gcc/native/3.4.2.1002/avr32-gnu-toolchain/bin/../lib/gcc/avr32/4.4.7/../../../../avr32/lib/ucr3fp\libc.a(lib_a-fvwrite.o) (_realloc_r)
c:/program files (x86)/atmel/atmel toolchain/avr32 gcc/native/3.4.2.1002/avr32-gnu-toolchain/bin/../lib/gcc/avr32/4.4.7/../../../../avr32/lib/ucr3fp\libc.a(lib_a-reent.o)
                              c:/program files (x86)/atmel/atmel toolchain/avr32 gcc/native/3.4.2.1002/avr32-gnu-toolchain/bin/../lib/gcc/avr32/4.4.7/../../../../avr32/lib/ucr3fp\libc.a(lib_a-sbrkr.o) (errno)
c:/program files (x86)/atmel/atmel toolchain/avr32 gcc/native/3.4.2.1002/avr32-gnu-toolchain/bin/../lib/gcc/avr32/4.4.7/../../../../avr32/lib/ucr3fp\libc.a(lib_a-s_isinfd.o)
                              c:/program files (x86)/atmel/atmel toolchain/avr32 gcc/native/3.4.2.1002/avr32-gnu-toolchain/bin/../lib/gcc/avr32/4.4.7/../../../../avr32/lib/ucr3fp\libc.a(lib_a-vfprintf.o) (__isinfd)
c:/program files (x86)/atmel/atmel toolchain/avr32 gcc/native/3.4.2.1002/avr32-gnu-toolchain/bin/../lib/gcc/avr32/4.4.7/../../../../avr32/lib/ucr3fp\libc.a(lib_a-stdio.o)
                              c:/program files (x86)/atmel/atmel toolchain/avr32 gcc/native/3.4.2.1002/avr32-gnu-toolchain/bin/../lib/gcc/avr32/4.4.7/../../../../avr32/lib/ucr3fp\libc.a(lib_a-findfp.o) (__sclose)
c:/program files (x86)/atmel/atmel toolchain/avr32 gcc/native/3.4.2.1002/avr32-gnu-toolchain/bin/../lib/gcc/avr32/4.4.7/../../../../avr32/lib/ucr3fp\libc.a(lib_a-strcmp.o)
                              c:/program files (x86)/atmel/atmel toolchain/avr32 gcc/native/3.4.2.1002/avr32-gnu-toolchain/bin/../lib/gcc/avr32/4.4.7/../../../../avr32/lib/ucr3fp\libc.a(lib_a-locale.o) (strcmp)
c:/program files (x86)/atmel/atmel toolchain/avr32 gcc/native/3.4.2.1002/avr32-gnu-toolchain/bin/../lib/gcc/avr32/4.4.7/../../../../avr32/lib/ucr3fp\libc.a(lib_a-writer.o)
                              c:/program files (x86)/atmel/atmel toolchain/avr32 gcc/native/3.4.2.1002/avr32-gnu-toolchain/bin/../lib/gcc/avr32/4.4.7/../../../../avr32/lib/ucr3fp\libc.a(lib_a-stdio.o) (_write_r)
c:/program files (x86)/atmel/atmel toolchain/avr32 gcc/native/3.4.2.1002/avr32-gnu-toolchain/bin/../lib/gcc/avr32/4.4.7/../../../../avr32/lib/ucr3fp\libc.a(lib_a-callocr.o)
                              c:/program files (x86)/atmel/atmel toolchain/avr32 gcc/native/3.4.2.1002/avr32-gnu-toolchain/bin/../lib/gcc/avr32/4.4.7/../../../../avr32/lib/ucr3fp\libc.a(lib_a-mprec.o) (_calloc_r)
c:/program files (x86)/atmel/atmel toolchain/avr32 gcc/native/3.4.2.1002/avr32-gnu-toolchain/bin/../lib/gcc/avr32/4.4.7/../../../../avr32/lib/ucr3fp\libc.a(lib_a-closer.o)
                              c:/program files (x86)/atmel/atmel toolchain/avr32 gcc/native/3.4.2.1002/avr32-gnu-toolchain/bin/../lib/gcc/avr32/4.4.7/../../../../avr32/lib/ucr3fp\libc.a(lib_a-stdio.o) (_close_r)
c:/program files (x86)/atmel/atmel toolchain/avr32 gcc/native/3.4.2.1002/avr32-gnu-toolchain/bin/../lib/gcc/avr32/4.4.7/../../../../avr32/lib/ucr3fp\libc.a(lib_a-fclose.o)
                              c:/program files (x86)/atmel/atmel toolchain/avr32 gcc/native/3.4.2.1002/avr32-gnu-toolchain/bin/../lib/gcc/avr32/4.4.7/../../../../avr32/lib/ucr3fp\libc.a(lib_a-findfp.o) (fclose)
c:/program files (x86)/atmel/atmel toolchain/avr32 gcc/native/3.4.2.1002/avr32-gnu-toolchain/bin/../lib/gcc/avr32/4.4.7/../../../../avr32/lib/ucr3fp\libc.a(lib_a-fstatr.o)
                              c:/program files (x86)/atmel/atmel toolchain/avr32 gcc/native/3.4.2.1002/avr32-gnu-toolchain/bin/../lib/gcc/avr32/4.4.7/../../../../avr32/lib/ucr3fp\libc.a(lib_a-makebuf.o) (_fstat_r)
c:/program files (x86)/atmel/atmel toolchain/avr32 gcc/native/3.4.2.1002/avr32-gnu-toolchain/bin/../lib/gcc/avr32/4.4.7/../../../../avr32/lib/ucr3fp\libc.a(lib_a-lseekr.o)
                              c:/program files (x86)/atmel/atmel toolchain/avr32 gcc/native/3.4.2.1002/avr32-gnu-toolchain/bin/../lib/gcc/avr32/4.4.7/../../../../avr32/lib/ucr3fp\libc.a(lib_a-stdio.o) (_lseek_r)
c:/program files (x86)/atmel/atmel toolchain/avr32 gcc/native/3.4.2.1002/avr32-gnu-toolchain/bin/../lib/gcc/avr32/4.4.7/../../../../avr32/lib/ucr3fp\libc.a(lib_a-readr.o)
                              c:/program files (x86)/atmel/atmel toolchain/avr32 gcc/native/3.4.2.1002/avr32-gnu-toolchain/bin/../lib/gcc/avr32/4.4.7/../../../../avr32/lib/ucr3fp\libc.a(lib_a-stdio.o) (_read_r)

Allocating common symbols
Common symbol       size              file

adci_buffer         0x40              Library/hal/adc_int.o
inv_time_horizon    0x4               Private_Library/orca.o
ubx_cfg_rate_message
                    0xc               Library/hal/gps_ublox.o
console_out_stream  0x18              Library/communication/console.o
deb_stream          0x4               Library/util/print_util.o
udd_ep_out_cache_buffer
                    0xc0              src/asf/avr32/drivers/usbc/usbc_device.o
time_horizon        0x4               Private_Library/orca.o
b2                  0x2               Library/hal/bmp085.o
ram_buffer2         0x3e8             Library/hal/sd_spi.o
errno               0x4               c:/program files (x86)/atmel/atmel toolchain/avr32 gcc/native/3.4.2.1002/avr32-gnu-toolchain/bin/../lib/gcc/avr32/4.4.7/../../../../avr32/lib/ucr3fp\libc.a(lib_a-reent.o)
mb                  0x2               Library/hal/bmp085.o
ubx_solution_message
                    0x68              Library/hal/gps_ublox.o
console_in_buffer   0x103             Library/communication/console.o
continuous_mode     0x1               Library/hal/adc_int.o
ac1                 0x2               Library/hal/bmp085.o
current_transfer    0x4               Library/hal/i2c_driver_int.o
adapt_param_set     0x20c             Library/control/adaptive_parameter.o
b1                  0x2               Library/hal/bmp085.o
ac6                 0x2               Library/hal/bmp085.o
eic_options         0x6               Library/hal/ads1274.o
end_of_transfer     0x1               Library/hal/sd_spi.o
min_coll_dist       0x4               Private_Library/orca.o
ptr_get             0x4               src/asf/common/utils/stdio/read.o
ac5                 0x2               Library/hal/bmp085.o
xbee_in_buffer      0x103             Library/hal/xbee.o
ac2                 0x2               Library/hal/bmp085.o
ubx_tim_vrfy_message
                    0x28              Library/hal/gps_ublox.o
sd_spi              0x2c              Library/hal/sd_spi.o
ptr_put             0x4               src/asf/common/utils/stdio/write.o
even_odd            0x1               Library/hal/adc_int.o
ubx_vel_ned_message
                    0x48              Library/hal/gps_ublox.o
md                  0x2               Library/hal/bmp085.o
adcifa_sequencer0_conversion_opt
                    0x18              Library/hal/adc_int.o
sat                 0x134             Library/hal/spektrum_satellite.o
current_slot        0x4               Library/hal/i2c_driver_int.o
ac4                 0x2               Library/hal/bmp085.o
pdca_channeltx      0x4               Library/hal/sd_spi.o
pdca_channelrx      0x4               Library/hal/sd_spi.o
ram_buffer          0x3e8             Library/hal/sd_spi.o
mc                  0x2               Library/hal/bmp085.o
channel_center      0x20              Library/hal/spektrum_satellite.o
console_in_stream   0x18              Library/communication/console.o
xbee_in_stream      0x18              Library/hal/xbee.o
udd_g_ctrlreq       0x18              src/asf/avr32/drivers/usbc/usbc_device.o
ubx_mon_rxr_message
                    0x2               Library/hal/gps_ublox.o
stdio_base          0x4               src/asf/common/utils/stdio/write.o
sleepmgr_locks      0x7               src/asf/common/services/sleepmgr/uc3/sleepmgr.o
ubx_nav_settings_message
                    0x48              Library/hal/gps_ublox.o
gcfg                0x4               Library/hal/ads1274.o
ubx_sv_info_message
                    0x190             Library/hal/gps_ublox.o
use_servos_7_8      0x1               Library/hal/pwm_servos.o
xbee_out_stream     0x18              Library/hal/xbee.o
ubx_pos_llh_message
                    0x38              Library/hal/gps_ublox.o
ubx_tim_tp_message  0x20              Library/hal/gps_ublox.o
udd_ctrl_buffer     0x40              src/asf/avr32/drivers/usbc/usbc_device.o
last_slot           0x4               Library/hal/i2c_driver_int.o
ubx_cfg_set_get_rate_message
                    0x6               Library/hal/gps_ublox.o
ubx_status_message  0x20              Library/hal/gps_ublox.o
ac3                 0x2               Library/hal/bmp085.o
blocking            0x1               Library/util/print_util.o
transfer_queue      0x118             Library/hal/i2c_driver_int.o
actual_status       0x1               Library/hal/fat_fs/diskio.o

Memory Configuration

Name             Origin             Length             Attributes
FLASH            0x80000000         0x00080000         axrl !w
CPUSRAM          0x00000004         0x0000fffc         axw !rl
USERPAGE         0x80800000         0x00000200
FACTORYPAGE      0x80800200         0x00000200
FLASHVAULT_FLASH_SIZE 0x80800400         0x00000008         r
FLASHVAULT_RAM_SIZE 0x80800408         0x00000008         r
*default*        0x00000000         0xffffffff

Linker script and memory map

                0x00001000                _stack_size = 0x1000
LOAD Library/communication/console.o
LOAD Library/communication/data_logging.o
LOAD Library/communication/hud.o
LOAD Library/communication/mavlink_communication.o
LOAD Library/communication/mavlink_message_handler.o
LOAD Library/communication/mavlink_waypoint_handler.o
LOAD Library/communication/remote.o
LOAD Library/communication/state.o
LOAD Library/communication/state_machine.o
LOAD Library/control/adaptive_parameter.o
LOAD Library/control/attitude_controller_p2.o
LOAD Library/control/attitude_error_estimator.o
LOAD Library/control/joystick_parsing.o
LOAD Library/control/pid_control.o
LOAD Library/control/servos_mix_quadcopter_cross.o
LOAD Library/control/servos_mix_quadcopter_diag.o
LOAD Library/control/stabilisation_copter.o
LOAD Library/hal/analog_monitor.o
LOAD Library/hal/fat_fs/diskio.o
LOAD Library/hal/fat_fs/ff.o
LOAD Library/hal/fat_fs/option/ccsbcs.o
LOAD Library/hal/fat_fs/option/syscall.o
LOAD Library/hal/fat_fs/option/unicode.o
LOAD Library/hal/gps_ublox.o
LOAD Library/hal/hmc5883l.o
LOAD Library/hal/i2c_driver_int.o
LOAD Library/hal/lsm330dlc.o
LOAD Library/hal/piezo_speaker.o
LOAD Library/hal/pwm_servos.o
LOAD Library/hal/sd_spi.o
LOAD Library/hal/servos.o
LOAD Library/hal/sonar_i2cxl.o
LOAD Library/hal/spektrum_satellite.o
LOAD Library/hal/time_keeper.o
LOAD Library/hal/usb_int.o
LOAD Library/hal/xbee.o
LOAD Library/sensing/ahrs.o
LOAD Library/sensing/position_estimation.o
LOAD Library/sensing/qfilter.o
LOAD Library/util/linear_algebra.o
LOAD Library/util/matrixlib_float.o
LOAD Library/util/quick_trig.o
LOAD Private_Library/neighbor_selection.o
LOAD Private_Library/orca.o
LOAD src/central_data.o
LOAD src/mavlink_telemetry.o
LOAD src/tasks.o
LOAD Library/communication/mavlink_stream.o
LOAD Library/communication/onboard_parameters.o
LOAD Library/control/navigation.o
LOAD Library/control/stabilisation.o
LOAD Library/hal/adc_int.o
LOAD Library/hal/ads1274.o
LOAD Library/hal/bmp085.o
LOAD Library/hal/dac_dma.o
LOAD Library/hal/led.o
LOAD Library/hal/spi_buffered.o
LOAD Library/hal/uart_int.o
LOAD Library/runtime/scheduler.o
LOAD Library/sensing/imu.o
LOAD Library/sensing/simulation.o
LOAD Library/util/buffer.o
LOAD Library/util/coord_conventions.o
LOAD Library/util/generator.o
LOAD Library/util/print_util.o
LOAD Library/util/sinus.o
LOAD src/asf/avr32/drivers/adcifa/adcifa.o
LOAD src/asf/avr32/drivers/ast/ast.o
LOAD src/asf/avr32/drivers/dacifb/dacifb.o
LOAD src/asf/avr32/drivers/eic/eic.o
LOAD src/asf/avr32/drivers/flashc/flashc.o
LOAD src/asf/avr32/drivers/gpio/gpio.o
LOAD src/asf/avr32/drivers/intc/exception.o
LOAD src/asf/avr32/drivers/intc/intc.o
LOAD src/asf/avr32/drivers/pdca/pdca.o
LOAD src/asf/avr32/drivers/pevc/pevc.o
LOAD src/asf/avr32/drivers/pm/pm_uc3c.o
LOAD src/asf/avr32/drivers/pm/power_clocks_lib.o
LOAD src/asf/avr32/drivers/pwm/pwm4.o
LOAD src/asf/avr32/drivers/scif/scif_uc3c.o
LOAD src/asf/avr32/drivers/spi/spi.o
LOAD src/asf/avr32/drivers/tc/tc.o
LOAD src/asf/avr32/drivers/twim/twim.o
LOAD src/asf/avr32/drivers/usart/usart.o
LOAD src/asf/avr32/drivers/usbc/usbc_device.o
LOAD src/asf/avr32/services/delay/delay.o
LOAD src/asf/avr32/utils/startup/startup_uc3.o
LOAD src/asf/avr32/utils/startup/trampoline_uc3.o
LOAD src/asf/common/boards/user_board/init.o
LOAD src/asf/common/services/clock/uc3c/osc.o
LOAD src/asf/common/services/clock/uc3c/pll.o
LOAD src/asf/common/services/clock/uc3c/sysclk.o
LOAD src/asf/common/services/sleepmgr/uc3/sleepmgr.o
LOAD src/asf/common/services/spi/uc3_spi/spi_master.o
LOAD src/asf/common/services/usb/class/cdc/device/udi_cdc.o
LOAD src/asf/common/services/usb/class/cdc/device/udi_cdc_desc.o
LOAD src/asf/common/services/usb/udc/udc.o
LOAD src/asf/common/utils/stdio/read.o
LOAD src/asf/common/utils/stdio/stdio_usb/stdio_usb.o
LOAD src/asf/common/utils/stdio/write.o
LOAD src/boardsupport.o
LOAD src/main.o
START GROUP
END GROUP
LOAD c:/program files (x86)/atmel/atmel toolchain/avr32 gcc/native/3.4.2.1002/avr32-gnu-toolchain/bin/../lib/gcc/avr32/4.4.7/ucr3fp\libstdc++.a
LOAD c:/program files (x86)/atmel/atmel toolchain/avr32 gcc/native/3.4.2.1002/avr32-gnu-toolchain/bin/../lib/gcc/avr32/4.4.7/../../../../avr32/lib/ucr3fp\libm.a
LOAD c:/program files (x86)/atmel/atmel toolchain/avr32 gcc/native/3.4.2.1002/avr32-gnu-toolchain/bin/../lib/gcc/avr32/4.4.7/ucr3fp\libgcc.a
LOAD c:/program files (x86)/atmel/atmel toolchain/avr32 gcc/native/3.4.2.1002/avr32-gnu-toolchain/bin/../lib/gcc/avr32/4.4.7/../../../../avr32/lib/ucr3fp\libc.a
LOAD c:/program files (x86)/atmel/atmel toolchain/avr32 gcc/native/3.4.2.1002/avr32-gnu-toolchain/bin/../lib/gcc/avr32/4.4.7/ucr3fp\libgcc.a
                0x80000000                PROVIDE (__executable_start, 0x80000000)
                0x80000000                . = 0x80000000

.interp
 *(.interp)

.reset          0x80000000     0x2010
 *(.reset)
 .reset         0x80000000        0x8 src/asf/avr32/utils/startup/startup_uc3.o
                0x80000000                _start
 .reset         0x80000008     0x2008 src/asf/avr32/utils/startup/trampoline_uc3.o
                0x80000008                _trampoline

.hash
 *(.hash)

.dynsym
 *(.dynsym)

.dynstr
 *(.dynstr)

.gnu.version
 *(.gnu.version)

.gnu.version_d
 *(.gnu.version_d)

.gnu.version_r
 *(.gnu.version_r)

.rel.init
 *(.rel.init)

.rela.init
 *(.rela.init)

.rel.text
 *(.rel.text .rel.text.* .rel.gnu.linkonce.t.*)

.rela.text
 *(.rela.text .rela.text.* .rela.gnu.linkonce.t.*)

.rel.fini
 *(.rel.fini)

.rela.fini
 *(.rela.fini)

.rel.rodata
 *(.rel.rodata .rel.rodata.* .rel.gnu.linkonce.r.*)

.rela.rodata
 *(.rela.rodata .rela.rodata.* .rela.gnu.linkonce.r.*)

.rel.data.rel.ro
 *(.rel.data.rel.ro*)

.rela.data.rel.ro
 *(.rel.data.rel.ro*)

.rel.data
 *(.rel.data .rel.data.* .rel.gnu.linkonce.d.*)

.rela.data
 *(.rela.data .rela.data.* .rela.gnu.linkonce.d.*)

.rel.tdata
 *(.rel.tdata .rel.tdata.* .rel.gnu.linkonce.td.*)

.rela.tdata
 *(.rela.tdata .rela.tdata.* .rela.gnu.linkonce.td.*)

.rel.tbss
 *(.rel.tbss .rel.tbss.* .rel.gnu.linkonce.tb.*)

.rela.tbss
 *(.rela.tbss .rela.tbss.* .rela.gnu.linkonce.tb.*)

.rel.ctors
 *(.rel.ctors)

.rela.ctors
 *(.rela.ctors)

.rel.dtors
 *(.rel.dtors)

.rela.dtors
 *(.rela.dtors)

.rel.got
 *(.rel.got)

.rela.got       0x80002010        0x0
 *(.rela.got)
 .rela.got      0x80002010        0x0 Library/communication/console.o

.rel.bss
 *(.rel.bss .rel.bss.* .rel.gnu.linkonce.b.*)

.rela.bss
 *(.rela.bss .rela.bss.* .rela.gnu.linkonce.b.*)

.rel.plt
 *(.rel.plt)

.rela.plt
 *(.rela.plt)

.init
 *(.init)

.plt
 *(.plt)

.text           0x80002010    0x3ce88
 *(.text .stub .text.* .gnu.linkonce.t.*)
 .text          0x80002010      0x1ac Library/communication/console.o
                0x80002010                console_get_in_stream
                0x8000202c                console_get_out_stream
                0x80002048                console_init
 .text          0x800021bc     0x1950 Library/communication/data_logging.o
                0x80002400                data_logging_add_parameter_double
                0x8000247c                data_logging_add_parameter_float
                0x800024f8                data_logging_add_parameter_int64
                0x80002574                data_logging_add_parameter_uint64
                0x800025f0                data_logging_add_parameter_int32
                0x8000266c                data_logging_add_parameter_uint32
                0x800026e8                data_logging_add_parameter_int16
                0x80002764                data_logging_add_parameter_uint16
                0x800027e0                data_logging_add_parameter_int8
                0x8000285c                data_logging_add_parameter_uint8
                0x800028d8                data_logging_init
                0x80002a14                data_logging_create_new_log_file
                0x80002ca0                data_logging_update
 .text          0x80003b0c      0x284 Library/communication/hud.o
                0x80003b0c                hud_send_message
                0x80003d64                hud_init
 .text          0x80003d90      0x2c8 Library/communication/mavlink_communication.o
                0x80003d90                mavlink_communication_suspend_downstream
                0x80003dd8                mavlink_communication_update
                0x80003e38                mavlink_communication_init
 .text          0x80004058      0x710 Library/communication/mavlink_message_handler.o
                0x80004058                mavlink_message_handler_add_cmd_callback
                0x800040bc                mavlink_message_handler_add_msg_callback
                0x80004124                mavlink_message_handler_cmd_default_dbg
                0x80004270                mavlink_message_handler_msg_default_dbg
                0x80004310                mavlink_message_handler_receive
                0x800046d0                mavlink_message_handler_init
 .text          0x80004768     0x3830 Library/communication/mavlink_waypoint_handler.o
                0x800047fc                waypoint_handler_init_homing_waypoint
                0x80004844                waypoint_handler_control_time_out_waypoint_msg
                0x80004930                waypoint_handler_init_waypoint_list
                0x80004a98                waypoint_handler_set_waypoint_from_frame
                0x800050ac                waypoint_handler_nav_plan_init
                0x8000529c                waypoint_handler_init
 .text          0x80007f98      0xb70 Library/communication/remote.o
                0x80007f98                remote_check
                0x80007fa4                remote_calibrate
                0x80007fc4                remote_get_throttle
                0x80007fd0                remote_get_roll
                0x80007fdc                remote_get_pitch
                0x80007fe8                remote_get_yaw
                0x80007ff4                remote_mode_init
                0x80008042                remote_mode_update
                0x80008260                remote_mode_get
                0x8000826e                remote_update
                0x800084f8                remote_init
                0x80008608                remote_send_raw
                0x8000887c                remote_send_scaled
 .text          0x80008b08      0x65c Library/communication/state.o
                0x80008b08                state_send_status
                0x80008cfc                state_init
                0x80008eb8                state_send_heartbeat
 .text          0x80009164      0x188 Library/communication/state_machine.o
                0x80009164                state_machine_init
                0x800091a0                state_machine_update
 .text          0x800092ec      0x244 Library/control/adaptive_parameter.o
                0x800092ec                adaptive_parameter_get_param_set
                0x80009308                adaptive_parameter_init
                0x80009328                adaptive_parameter_add
                0x800093d0                adaptive_parameter_update
                0x8000949c                adaptive_parameter_update_all
 .text          0x80009530       0xe8 Library/control/attitude_controller_p2.o
                0x80009530                attitude_controller_p2_update
                0x800095d4                attitude_controller_p2_init
 .text          0x80009618      0x2dc Library/control/attitude_error_estimator.o
                0x80009618                attitude_error_estimator_init
                0x80009638                attitude_error_estimator_set_quat_ref
                0x80009656                attitude_error_estimator_set_quat_ref_from_rpy
                0x800096b4                attitude_error_estimator_set_quat_ref_from_aero
                0x80009700                attitude_error_estimator_update
 .text          0x800098f4      0x768 Library/control/joystick_parsing.o
                0x800098f4                joystick_parsing_button
                0x80009910                joystick_parsing_get_velocity_vector_from_joystick
                0x800099d8                joystick_parsing_get_attitude_command_from_joystick
                0x80009a88                joystick_parsing_send_manual_ctrl_msg
                0x80009de8                joystick_parsing_init
                0x80009e6c                joystick_parsing_button_1
                0x80009ef8                joystick_parsing_button_mask
                0x80009f74                joystick_parsing_parse_msg
 .text          0x8000a05c      0x290 Library/control/pid_control.o
                0x8000a05c                pid_control_reset_integrator
                0x8000a06a                pid_control_update_dt
                0x8000a15c                pid_control_pass_through_controller
                0x8000a1b8                pid_control_update
 .text          0x8000a2ec      0x184 Library/control/servos_mix_quadcopter_cross.o
                0x8000a2ec                servo_mix_quadcotper_cross_init
                0x8000a324                servos_mix_quadcopter_cross_update
 .text          0x8000a470      0x18c Library/control/servos_mix_quadcopter_diag.o
                0x8000a470                servo_mix_quadcotper_diag_init
                0x8000a4a8                servos_mix_quadcopter_diag_update
 .text          0x8000a5fc      0xa54 Library/control/stabilisation_copter.o
                0x8000a5fc                stabilisation_copter_mix_to_servos_cross_quad
                0x8000a738                stabilisation_copter_mix_to_servos_diag_quad
                0x8000a888                stabilisation_copter_init
                0x8000a920                stabilisation_copter_position_hold
                0x8000aad0                stabilisation_copter_cascade_stabilise
 .text          0x8000b050      0x7c8 Library/hal/analog_monitor.o
                0x8000b050                analog_compute_avg
                0x8000b0f8                analog_monitor_send_sonar
                0x8000b25c                trigger_analog_monitor
                0x8000b284                analog_monitor_update
                0x8000b4cc                analog_monitor_init
                0x8000b7f0                CONV_FACTOR
 .text          0x8000b818      0x290 Library/hal/fat_fs/diskio.o
                0x8000b818                get_fattime
                0x8000b900                disk_ioctl
                0x8000b988                disk_write
                0x8000b9e0                disk_read
                0x8000ba2c                disk_status
                0x8000ba70                disk_initialize
 .text          0x8000baa8     0x60f8 Library/hal/fat_fs/ff.o
                0x8000baa8                clust2sect
                0x8000bf58                f_closedir
                0x8000c9a8                f_mount
                0x8000ca94                f_sync
                0x8000cc28                f_close
                0x8000cc88                get_fat
                0x8000cfe0                f_getfree
                0x8000d1a4                f_read
                0x8000d4a4                f_gets
                0x8000d524                put_fat
                0x8000ea40                f_readdir
                0x8000ee18                f_lseek
                0x8000f004                f_write
                0x8000f334                f_puts
                0x8000f3ec                f_putc
                0x8000f440                f_printf
                0x8000fb98                f_truncate
                0x8000fe30                f_opendir
                0x8000ff18                f_utime
                0x8000ffc0                f_chmod
                0x80010068                f_unlink
                0x80010d38                f_rename
                0x80011018                f_mkdir
                0x80011394                f_open
                0x800116b4                f_stat
 .text          0x80011ba0      0x588 Library/hal/fat_fs/option/ccsbcs.o
                0x80011ba0                ff_convert
                0x80011c18                ff_wtoupper
 .text          0x80012128       0x38 Library/hal/fat_fs/option/syscall.o
                0x80012128                ff_memfree
                0x80012144                ff_memalloc
 .text          0x80012160        0x0 Library/hal/fat_fs/option/unicode.o
 .text          0x80012160     0x29dc Library/hal/gps_ublox.o
                0x800121e4                gps_ublox_init
                0x800126e4                gps_ublox_configure_gps
                0x80012800                gps_ublox_update
                0x800146e4                gps_ublox_send_raw
 .text          0x80014b3c       0xd4 Library/hal/hmc5883l.o
                0x80014b3c                hmc5883l_update
                0x80014ba4                hmc5883l_init_slow
 .text          0x80014c10      0x300 Library/hal/i2c_driver_int.o
                0x80014cf0                i2c_driver_trigger_request
                0x80014db4                i2c_driver_reset
                0x80014e1e                i2c_driver_init
 .text          0x80014f10      0x3c8 Library/hal/lsm330dlc.o
                0x80014f10                lsm330dlc_init
                0x80015034                lsm330dlc_acc_update
                0x8001516c                lsm330dlc_gyro_update
 .text          0x800152d8      0x5ec Library/hal/piezo_speaker.o
                0x800152d8                piezo_speaker_init_binary
                0x80015320                piezo_speaker_init
                0x8001538c                piezo_speaker_beep
                0x8001545c                piezo_speaker_mario_melody
                0x80015530                piezo_speaker_star_wars
                0x80015764                piezo_speaker_critical_error_melody
                0x800157ac                piezo_speaker_quick_startup
                0x800157ec                piezo_speaker_startup_melody
 .text          0x800158c4      0x27c Library/hal/pwm_servos.o
                0x800158c4                write_channels
                0x8001590e                pwm_servos_write_to_hardware
                0x80015a28                pwm_servos_init
                0x80015b38                servo_timer_freq
                0x80015b3c                servo_center_pulse_us
                0x80015b3e                servo_magnitude
 .text          0x80015b40     0x30ac Library/hal/sd_spi.o
                0x80015b40                sd_spi_get_sector_count
                0x80015b68                sd_spi_get_sector_size
                0x80015b78                sd_spi_get_block_size
                0x80015bec                sd_spi_get_capacity
                0x800160ac                sd_spi_reset_card
                0x8001618c                sd_spi_wait_not_busy
                0x8001622c                sd_spi_write_given_sector_from_ram
                0x800164d0                sd_mmc_spi_read_open_PDCA
                0x80016604                sd_spi_read_sector_to_ram_pcda
                0x80016790                sd_spi_status
                0x80016af0                sd_spi_read_given_sector_to_ram
                0x80016c98                sd_mmc_spi_read_sector_to_ram
                0x80016e18                sd_spi_write_sector_from_ram
                0x8001701c                is_sd_spi_write_pwd_locked
                0x800173b0                sd_spi_init
                0x8001819c                sd_spi_mem_check
                0x80018540                sd_spi_test
                0x800187e8                dummy_data
 .text          0x80018bec      0x3ec Library/hal/servos.o
                0x80018bec                servos_set_value
                0x80018c42                servos_set_value_failsafe
                0x80018c70                servos_mavlink_send
                0x80018ef0                servos_init
 .text          0x80018fd8      0x254 Library/hal/sonar_i2cxl.o
                0x80018fd8                sonar_i2cxl_send_telemetry
                0x8001912c                sonar_i2cxl_init
                0x80019174                sonar_i2cxl_get_last_measure
                0x800191cc                sonar_i2cxl_send_range_command
                0x800191fc                sonar_i2cxl_update
                0x80019228                SONAR_I2CXL_DEFAULT_ADDRESS
                0x80019229                SONAR_I2CXL_RANGE_COMMAND
                0x8001922a                SONAR_I2CXL_CHANGE_ADDRESS_COMMAND_1
                0x8001922b                SONAR_I2CXL_CHANGE_ADDRESS_COMMAND_2
 .text          0x8001922c      0x6f4 Library/hal/spektrum_satellite.o
                0x8001922c                spektrum_satellite_get_pointer
                0x80019248                spektrum_satellite_get_channel
                0x8001926c                spektrum_satellite_get_neutral
                0x8001964c                spektrum_satellite_switch_off
                0x80019678                spektrum_satellite_switch_on
                0x800196a4                spektrum_satellite_init
                0x8001975c                spektrum_satellite_bind
 .text          0x80019920      0x15c Library/hal/time_keeper.o
                0x80019920                time_keeper_ticks_to_seconds
                0x8001995c                time_keeper_get_time_ticks
                0x8001997c                time_keeper_get_micros
                0x80019998                time_keeper_delay_until
                0x800199bc                time_keeper_delay_micros
                0x800199ec                time_keeper_get_millis
                0x80019a18                time_keeper_get_time
                0x80019a48                time_keeper_init
 .text          0x80019a7c       0xec Library/hal/usb_int.o
                0x80019a7c                usb_int_set_usb_conf
                0x80019aa4                usb_int_get_usb_handle
                0x80019ac0                usb_int_register_write_stream
                0x80019ae8                usb_int_register_read_stream
                0x80019af4                usb_int_send_byte
                0x80019b40                usb_int_init
 .text          0x80019b68      0x10c Library/hal/xbee.o
                0x80019b68                xbee_get_in_stream
                0x80019b84                xbee_get_out_stream
                0x80019ba0                xbee_init
 .text          0x80019c74      0x480 Library/sensing/ahrs.o
                0x80019c74                ahrs_init
                0x80019cb6                ahrs_send_attitude_quaternion
                0x80019ee0                ahrs_send_attitude
 .text          0x8001a0f4     0x122c Library/sensing/position_estimation.o
                0x8001a0f4                position_estimation_reset_home_altitude
                0x8001a418                position_estimation_send_global_position
                0x8001a714                position_estimation_init
                0x8001a8e0                position_estimation_send_position
                0x8001aed0                position_estimation_update
 .text          0x8001b320      0xb3c Library/sensing/qfilter.o
                0x8001b320                qfilter_init
                0x8001b378                qfilter_update
 .text          0x8001be5c      0x920 Library/util/linear_algebra.o
                0x8001be5c                inv4
                0x8001c58c                inv3
                0x8001c6ec                inv2
 .text          0x8001c77c      0x470 Library/util/matrixlib_float.o
                0x8001c77c                matf_zeros
                0x8001c7a8                matf_diag
                0x8001c7e2                matf_copy
                0x8001c804                matf_cross
                0x8001c858                matf_copy_part
                0x8001c8b6                matf_sum
                0x8001c8dc                matf_add
                0x8001c90c                matf_multiply_factor
                0x8001c932                matf_sub
                0x8001c962                matf_tr
                0x8001c9a2                matf_multiply
                0x8001ca8c                matf_multiply_Bt
                0x8001cb68                matf_norm
                0x8001cba0                matf_std
 .text          0x8001cbec      0x7ec Library/util/quick_trig.o
                0x8001cbec                quick_trig_atan
                0x8001cd24                quick_trig_acos
                0x8001ce04                quick_trig_asin
                0x8001ce2c                quick_trig_tan
                0x8001cf34                quick_trig_sin
                0x8001d060                quick_trig_cos
                0x8001d088                acos_x_min
                0x8001d08c                acos_x_max
                0x8001d090                acos_x_step
                0x8001d094                acos_y
                0x8001d15c                sin_x_min
                0x8001d160                sin_x_max
                0x8001d164                sin_x_step
                0x8001d168                sin_y
                0x8001d230                tan_x_min
                0x8001d234                tan_x_max
                0x8001d238                tan_x_step
                0x8001d23c                tan_y
                0x8001d304                atan_x_min
                0x8001d308                atan_x_max
                0x8001d30c                atan_x_step
                0x8001d310                atan_y
 .text          0x8001d3d8      0x3ec Private_Library/neighbor_selection.o
                0x8001d3d8                neighbors_selection_extrapolate_or_delete_position
                0x8001d4dc                neighbors_selection_read_message_from_neighbors
                0x8001d75c                neighbors_selection_init
 .text          0x8001d7c4     0x1a60 Private_Library/orca.o
                0x8001d7c4                orca_init
                0x8001e224                orca_compute_new_velocity
                0x8001f054                orca_update
 .text          0x8001f224      0xb48 src/central_data.o
                0x8001f224                central_data_get_pointer_to_struct
                0x8001f240                central_data_init
 .text          0x8001fd6c      0xc84 src/mavlink_telemetry.o
                0x8001fd6c                mavlink_telemetry_add_data_logging_parameters
                0x8001fe50                mavlink_telemetry_add_onboard_parameters
                0x8002060c                mavlink_telemetry_init
 .text          0x800209f0      0x990 src/tasks.o
                0x800209f0                tasks_get_main_taskset
                0x80020a1c                tasks_create_tasks
                0x80020c20                tasks_led_toggle
                0x80020c40                tasks_run_barometer_update
                0x80020c88                tasks_run_gps_update
                0x80020cd0                tasks_run_imu_update
                0x80020d70                tasks_run_stabilisation
                0x800211a0                tasks_run_stabilisation_quaternion
 .text          0x80021380      0x474 Library/communication/mavlink_stream.o
                0x80021380                mavlink_stream_init
                0x800213a8                mavlink_stream_flush
                0x800213be                mavlink_stream_receive
                0x8002169c                mavlink_stream_send
 .text          0x800217f4      0xb9c Library/communication/onboard_parameters.o
                0x80021820                onboard_parameters_read_parameters_from_flashc
                0x800218f4                onboard_parameters_write_parameters_to_flashc
                0x800219d0                onboard_parameters_preflight_storage
                0x80021ca8                onboard_parameters_add_parameter_float
                0x80021d50                onboard_parameters_add_parameter_int32
                0x80021df8                onboard_parameters_add_parameter_uint32
                0x80021e88                onboard_parameters_init
 .text          0x80022390     0x14d4 Library/control/navigation.o
                0x80022390                navigation_critical_handler
                0x80022508                navigation_waypoint_take_off_init
                0x80022670                navigation_waypoint_hold_init
                0x8002278c                navigation_hold_position_handler
                0x80022834                navigation_waypoint_take_off_handler
                0x80022d80                navigation_init
                0x80022fec                navigation_waypoint_navigation_handler
                0x80023628                navigation_update
 .text          0x80023864      0x578 Library/control/stabilisation.o
                0x80023864                stabilisation_run
                0x800238d0                stabilisation_init
                0x80023914                stabilisation_send_rpy_rates_error
                0x80023aac                stabilisation_send_rpy_thrust_setpoint
                0x80023c40                stabilisation_send_rpy_speed_thrust_setpoint
 .text          0x80023ddc      0x484 Library/hal/adc_int.o
                0x80023ddc                adc_int_clear_sequencer
                0x80023e08                adc_int_sequencer_add
                0x80023e80                adc_int_sampling_complete
                0x80023eac                adc_int_get_sample
                0x80023ed0                adc_int_get_buffer
                0x80023eec                adc_int_get_sampling_status
                0x80023f08                adc_int_get_period
                0x80023f24                adc_int_stop_sampling
                0x80023f4c                adc_int_start_sampling
                0x80024000                adc_int_init
 .text          0x80024260      0x39c Library/hal/ads1274.o
                0x80024260                get_interrupt_counter
                0x8002427c                ads1274_set_DAC_generator_function
                0x80024298                get_sample
                0x800242c0                get_sampling_status
                0x800242e0                ads1274_ADC_switch_channel
                0x800242ea                ads1274_ADC_set_mode
                0x800242f4                ads1274_ADC_start_oneshot
                0x80024314                eic_nmi_handler
                0x8002434c                ads1274_ADC_switch_clock
                0x800243a4                ads1274_init_DAC
                0x800244ec                process_data
 .text          0x800245fc      0x9b0 Library/hal/bmp085.o
                0x800245fc                bmp085_reset_origin_altitude
                0x80024618                bmp085_send_pressure
                0x80024794                bmp085_update
                0x80024bcc                bmp085_init_slow
                0x80024f78                bmp085_init
 .text          0x80024fac      0x300 Library/hal/dac_dma.o
                0x80024fac                DAC_pause
                0x80024fb6                DAC_resume
                0x80024fc0                DAC_is_finished
                0x80024fca                dac_dma_set_value
                0x80024fe8                dac_dma_play
                0x800250a8                dac_dma_init
                0x80025188                init_gclk
                0x800251b8                init_pevc
                0x800251fc                dac_dma_load_buffer
 .text          0x800252ac      0x34c Library/hal/led.o
                0x800252ac                LED_Read_Display
                0x800252c8                LED_Display
                0x80025374                LED_Read_Display_Mask
                0x80025394                LED_Test
                0x800253b8                LED_Get_Intensity
                0x800253c2                LED_Set_Intensity
                0x800253cc                LED_Read_Display_Field
                0x800253f8                LED_Toggle
                0x80025458                LED_Off
                0x800254b8                LED_On
                0x8002551c                LED_Display_Mask
                0x800255a0                LED_Display_Field
 .text          0x800255f8      0x71c Library/hal/spi_buffered.o
                0x800255f8                spi_buffered_get_spi_in_buffer
                0x8002561c                spi_buffered_set_callback
                0x80025640                spi_buffered_pause
                0x80025668                spi_buffered_activate_receive
                0x80025690                spi_buffered_deactivate_receive
                0x800256b8                spi_buffered_clear_read_buffer
                0x800256e0                spi_buffered_get_traffic
                0x80025704                spi_buffered_read
                0x80025744                spi_buffered_is_transfered_finished
                0x80025770                spi_buffered_bytes_available
                0x8002579c                spi_buffered_transmit
                0x80025810                spi_handler
                0x800258a4                spi1_int_handler
                0x800258c4                spi0_int_handler
                0x800258e4                spi_buffered_start
                0x80025948                spi_buffered_write
                0x8002599c                spi_buffered_resume
                0x800259d0                spi_buffered_flush_buffer
                0x80025a0c                spi_buffered_disable
                0x80025a3c                spi_buffered_enable
                0x80025a6c                spi_buffered_trigger_DMA
                0x80025b00                spi_buffered_init_DMA
                0x80025be8                spi_buffered_init
 .text          0x80025d14      0x6b0 Library/hal/uart_int.o
                0x80025d14                uart_int_set_usart_conf
                0x80025da0                uart_int_get_uart_handle
                0x80025dc4                uart_int_register_write_stream
                0x80025dfc                uart_int_register_read_stream
                0x80025e0a                uart_out_buffer_empty
                0x80025e2c                uart_int_flush
                0x80025e58                uart_int_send_byte
                0x80025e94                uart_int_bytes_available
                0x80025eb4                uart_int_get_byte
                0x80025ed8                register_UART_handler
                0x80025fb0                uart_int_init
 .text          0x800263c4      0xe44 Library/runtime/scheduler.o
                0x800263c4                scheduler_sort_tasks
                0x80026508                scheduler_get_task_by_id
                0x8002654c                scheduler_get_task_by_index
                0x8002656e                scheduler_change_run_mode
                0x8002657a                scheduler_run_task_now
                0x800265a8                scheduler_change_task_period
                0x800265d8                scheduler_suspend_task
                0x800265fc                scheduler_update
                0x800267a0                scheduler_add_task
                0x8002686c                scheduler_init
                0x800268d4                scheduler_send_rt_stats
 .text          0x80027208      0x91c Library/sensing/imu.o
                0x80027208                imu_send_raw
                0x80027490                imu_init
                0x800275b0                imu_update
                0x800277e4                imu_calibrate_gyros
                0x80027878                imu_send_scaled
 .text          0x80027b24     0x2938 Library/sensing/simulation.o
                0x80027b24                forces_from_servos_cross_quad
                0x80027b2e                simulation_calib_set
                0x80027c7c                simulation_send_state
                0x80028154                simulation_switch_from_simulation_to_reality
                0x80028388                simulation_switch_from_reality_to_simulation
                0x80028578                simulation_fake_gps_fix
                0x8002865c                simulation_simulate_gps
                0x800286fc                simulation_simulate_barometer
                0x8002873c                simulation_init
                0x80028904                simulation_send_quaternions
                0x80028e14                forces_from_servos_diag_quad
                0x800295f4                simulation_update
 .text          0x8002a45c      0x1bc Library/util/buffer.o
                0x8002a45c                buffer_full
                0x8002a478                buffer_put_lossy
                0x8002a4c4                buffer_put
                0x8002a514                buffer_get
                0x8002a544                buffer_empty
                0x8002a55c                buffer_bytes_available
                0x8002a578                buffer_init
                0x8002a590                buffer_clear
                0x8002a5a8                buffer_make_buffered_stream
                0x8002a5e0                buffer_make_buffered_stream_lossy
 .text          0x8002a618      0x5a0 Library/util/coord_conventions.o
                0x8002a618                coord_conventions_get_yaw
                0x8002a690                coord_conventions_quaternion_from_aero
                0x8002a778                coord_conventions_quat_to_aero
                0x8002a8c8                coord_conventions_local_to_global_position
                0x8002a9fc                coord_conventions_global_to_local_position
 .text          0x8002abb8      0x154 Library/util/generator.o
                0x8002abb8                generator_init_dac_buffer_triangle
                0x8002ac1c                generator_ramp_generator
                0x8002ac2a                generator_arbitrary_generator
                0x8002ac50                generator_init_dac_buffer_sine
 .text          0x8002ad0c      0x6b8 Library/util/print_util.o
                0x8002ad0c                print_util_get_debug_stream
                0x8002ad28                print_util_dbg_print_init
                0x8002ad44                print_util_putstring
                0x8002ad7c                print_util_putdigit
                0x8002adb4                print_util_putnum
                0x8002ae40                print_util_putlong
                0x8002af1c                putnum_tight
                0x8002afa0                print_util_putfloat
                0x8002b068                print_util_print_vector
                0x8002b0fc                print_util_print_quaternion
                0x8002b170                print_util_print_matrix
                0x8002b254                print_util_dbg_print
                0x8002b27c                print_util_dbg_print_num
                0x8002b2a8                print_util_dbg_putfloat
                0x8002b2d4                print_util_dbg_print_vector
                0x8002b300                print_util_dbg_print_quaternion
                0x8002b32c                print_util_dbg_log_value
                0x8002b378                print_util_dbg_print_long
 .text          0x8002b3c4        0x0 Library/util/sinus.o
 .text          0x8002b3c4      0x594 src/asf/avr32/drivers/adcifa/adcifa.o
                0x8002b3c4                adcifa_get_calibration_data
                0x8002b400                adcifa_configure
                0x8002b4b4                adcifa_configure_sequencer
                0x8002b768                adcifa_configure_window_monitor
                0x8002b7e6                adcifa_start_sequencer
                0x8002b822                adcifa_check_eoc
                0x8002b854                adcifa_check_eos
                0x8002b886                adcifa_get_values_from_sequencer
                0x8002b910                adcifa_start_itimer
                0x8002b922                adcifa_stop_itimer
                0x8002b930                adcifa_enable_interrupt
                0x8002b93e                adcifa_disable_interrupt
                0x8002b94c                adcifa_clear_interrupt
 .text          0x8002b958      0x21c src/asf/avr32/drivers/ast/ast.o
                0x8002b958                ast_enable
                0x8002b978                ast_set_calendar_value
                0x8002b996                ast_init_calendar
                0x8002b9d4                ast_set_counter_value
                0x8002b9f0                ast_init_counter
                0x8002ba1c                ast_get_calendar_value
                0x8002ba28                ast_get_counter_value
                0x8002ba34                ast_set_alarm0_value
                0x8002ba40                ast_set_alarm1_value
                0x8002ba4c                ast_enable_alarm0
                0x8002ba6e                ast_disable_alarm0
                0x8002ba90                ast_enable_alarm1
                0x8002bab2                ast_disable_alarm1
                0x8002bad4                ast_set_periodic0_value
                0x8002bae0                ast_set_periodic1_value
                0x8002baec                ast_enable_periodic0
                0x8002bb0e                ast_disable_periodic0
                0x8002bb30                ast_enable_periodic1
                0x8002bb52                ast_disable_periodic1
 .text          0x8002bb74      0x444 src/asf/avr32/drivers/dacifb/dacifb.o
                0x8002bb74                dacifb_get_calibration_data
                0x8002bba2                dacifb_check_eoc
                0x8002bbae                dacifb_set_value
                0x8002bbea                dacifb_reload_timer
                0x8002bc42                dacifb_start_channel
                0x8002bcec                dacifb_configure_channel
                0x8002bf12                dacifb_configure
 .text          0x8002bfb8      0x1c8 src/asf/avr32/drivers/eic/eic.o
                0x8002bfb8                eic_init
                0x8002c072                eic_enable_lines
                0x8002c07e                eic_enable_line
                0x8002c090                eic_disable_lines
                0x8002c09c                eic_disable_line
                0x8002c0ae                eic_is_line_enabled
                0x8002c0c6                eic_enable_interrupt_lines
                0x8002c0d2                eic_enable_interrupt_line
                0x8002c0e4                eic_is_interrupt_line_enabled
                0x8002c0fc                eic_is_interrupt_line_pending
                0x8002c114                eic_clear_interrupt_line
                0x8002c132                eic_clear_interrupt_lines
                0x8002c14a                eic_disable_interrupt_line
                0x8002c168                eic_disable_interrupt_lines
 .text          0x8002c180     0x18f4 src/asf/avr32/drivers/flashc/flashc.o
                0x8002c180                flashc_get_flash_size
                0x8002c1a8                flashc_get_page_count
                0x8002c1c8                flashc_get_page_count_per_region
                0x8002c1e8                flashc_get_region_first_page_number
                0x8002c208                flashc_get_wait_state
                0x8002c21c                flashc_set_wait_state
                0x8002c232                flashc_set_bus_freq
                0x8002c270                flashc_is_ready_int_enabled
                0x8002c284                flashc_enable_ready_int
                0x8002c29a                flashc_is_lock_error_int_enabled
                0x8002c2ae                flashc_enable_lock_error_int
                0x8002c2c4                flashc_is_prog_error_int_enabled
                0x8002c2d8                flashc_enable_prog_error_int
                0x8002c2ee                flashc_is_ready
                0x8002c302                flashc_default_wait_until_ready
                0x8002c320                flashc_is_lock_error
                0x8002c340                flashc_is_programming_error
                0x8002c360                flashc_get_command
                0x8002c374                flashc_get_page_number
                0x8002c388                flashc_get_page_region
                0x8002c3bc                flashc_issue_command
                0x8002c410                flashc_no_operation
                0x8002c430                flashc_erase_all
                0x8002c450                flashc_is_security_bit_active
                0x8002c464                flashc_activate_security_bit
                0x8002c484                flashc_is_region_locked
                0x8002c4a4                flashc_is_page_region_locked
                0x8002c4cc                flashc_lock_page_region
                0x8002c4f8                flashc_lock_region
                0x8002c52c                flashc_lock_all_regions
                0x8002c6d0                flashc_read_all_gp_fuses
                0x8002c6f6                flashc_read_gp_fuse_byte
                0x8002c740                flashc_read_gp_fuse_bitfield
                0x8002c7c0                flashc_get_bootloader_protected_size
                0x8002c7f4                flashc_read_gp_fuse_bit
                0x8002c83c                flashc_is_external_privileged_fetch_locked
                0x8002c860                flashc_erase_gp_fuse_bit
                0x8002c89c                flashc_erase_gp_fuse_bitfield
                0x8002c950                flashc_erase_all_gp_fuses
                0x8002c98c                flashc_write_gp_fuse_bit
                0x8002c9b4                flashc_write_gp_fuse_bitfield
                0x8002ca20                flashc_write_gp_fuse_byte
                0x8002ca48                flashc_erase_gp_fuse_byte
                0x8002cc44                flashc_write_all_gp_fuses
                0x8002cd50                flashc_set_gp_fuse_bit
                0x8002cd80                flashc_lock_external_privileged_fetch
                0x8002cda8                flashc_set_gp_fuse_bitfield
                0x8002ce14                flashc_set_gp_fuse_byte
                0x8002ce84                flashc_set_all_gp_fuses
                0x8002cef8                flashc_clear_page_buffer
                0x8002cf18                flashc_is_page_erased
                0x8002cf2c                flashc_quick_page_read
                0x8002cf58                flashc_erase_page
                0x8002cfa0                flashc_erase_all_pages
                0x8002cffc                flashc_write_page
                0x8002d01c                flashc_quick_user_page_read
                0x8002d048                flashc_erase_user_page
                0x8002d07c                flashc_write_user_page
                0x8002d09c                flashc_memset64
                0x8002d3c8                flashc_memset32
                0x8002d3f4                flashc_memset16
                0x8002d414                flashc_memset8
                0x8002d438                flashc_memcpy
                0x8002d964                flashc_set_flash_waitstate_and_readmode
                0x8002d9d0                flashc_set_bootloader_protected_size
 .text          0x8002da74      0x64c src/asf/avr32/drivers/gpio/gpio.o
                0x8002da74                gpio_enable_module_pin
                0x8002db54                gpio_enable_module
                0x8002db94                gpio_enable_gpio_pin
                0x8002dbb2                gpio_enable_gpio
                0x8002dbe4                gpio_enable_pin_pull_up
                0x8002dc04                gpio_disable_pin_pull_up
                0x8002dc20                gpio_enable_pin_pull_down
                0x8002dc40                gpio_disable_pin_pull_down
                0x8002dc5c                gpio_enable_pin_buskeeper
                0x8002dc7c                gpio_disable_pin_buskeeper
                0x8002dc9c                gpio_configure_pin
                0x8002dd66                gpio_configure_group
                0x8002de1e                gpio_get_pin_value
                0x8002de3c                gpio_get_gpio_pin_output_value
                0x8002de5a                gpio_get_gpio_open_drain_pin_output_value
                0x8002de7c                gpio_set_gpio_pin
                0x8002de9e                gpio_set_pin_high
                0x8002deba                gpio_set_group_high
                0x8002dece                gpio_set_pin_low
                0x8002deea                gpio_clr_gpio_pin
                0x8002df0c                gpio_set_group_low
                0x8002df20                gpio_tgl_gpio_pin
                0x8002df42                gpio_toggle_pin
                0x8002df5e                gpio_toggle_group
                0x8002df72                gpio_set_gpio_open_drain_pin
                0x8002df90                gpio_clr_gpio_open_drain_pin
                0x8002dfb2                gpio_tgl_gpio_open_drain_pin
                0x8002dfd4                gpio_enable_pin_glitch_filter
                0x8002dff0                gpio_disable_pin_glitch_filter
                0x8002e00c                gpio_enable_pin_interrupt
                0x8002e066                gpio_disable_pin_interrupt
                0x8002e082                gpio_get_pin_interrupt_flag
                0x8002e0a2                gpio_clear_pin_interrupt_flag
 .text          0x8002e0c0        0x0 src/asf/avr32/drivers/intc/exception.o
 .text          0x8002e0c0       0xf4 src/asf/avr32/drivers/intc/intc.o
                0x8002e0c8                INTC_register_interrupt
                0x8002e10c                INTC_init_interrupts
                0x8002e16c                _get_interrupt_handler
 .text          0x8002e1b4      0x394 src/asf/avr32/drivers/pdca/pdca.o
                0x8002e1b4                pdca_get_handler
                0x8002e1ce                pdca_get_channel_status
                0x8002e1f0                pdca_disable
                0x8002e210                pdca_enable
                0x8002e230                pdca_get_load_size
                0x8002e250                pdca_get_reload_size
                0x8002e270                pdca_set_peripheral_select
                0x8002e290                pdca_set_transfer_size
                0x8002e2b8                pdca_disable_event_trigger
                0x8002e2dc                pdca_enable_event_trigger
                0x8002e300                pdca_enable_interrupt_transfer_error
                0x8002e320                pdca_enable_interrupt_transfer_complete
                0x8002e340                pdca_enable_interrupt_reload_counter_zero
                0x8002e360                pdca_get_transfer_status
                0x8002e380                pdca_disable_interrupt_reload_counter_zero
                0x8002e3bc                pdca_disable_interrupt_transfer_complete
                0x8002e3f8                pdca_disable_interrupt_transfer_error
                0x8002e434                pdca_reload_channel
                0x8002e480                pdca_load_channel
                0x8002e4cc                pdca_init_channel
 .text          0x8002e548      0x376 src/asf/avr32/drivers/pevc/pevc.o
                0x8002e548                pevc_channel_configure
                0x8002e5cc                pevc_igfd_set
                0x8002e5dc                pevc_channels_enable
                0x8002e5fa                pevc_channels_disable
                0x8002e618                pevc_get_channel_status
                0x8002e656                pevc_get_channel_state
                0x8002e694                pevc_channel_sev_enable
                0x8002e6b0                pevc_channels_trigger_sev
                0x8002e6ce                pevc_channel_sev_disable
                0x8002e6ea                pevc_channels_enable_trigger_interrupt
                0x8002e708                pevc_channels_disable_trigger_interrupt
                0x8002e726                pevc_channel_is_trigger_interrupt_enabled
                0x8002e768                pevc_channel_is_trigger_interrupt_raised
                0x8002e7a6                pevc_channel_clear_trigger_interrupt
                0x8002e7d2                pevc_channels_enable_overrun_interrupt
                0x8002e7f0                pevc_channels_disable_overrun_interrupt
                0x8002e80e                pevc_channel_is_overrun_interrupt_enabled
                0x8002e850                pevc_channel_is_overrun_interrupt_raised
                0x8002e892                pevc_channel_clear_overrun_interrupt
 .text          0x8002e8be      0x1b6 src/asf/avr32/drivers/pm/pm_uc3c.o
                0x8002e8be                pm_wait_for_clk_ready
                0x8002e8e6                pm_disable_module
                0x8002e926                pm_enable_module
                0x8002e966                pm_disable_clk_domain_div
                0x8002e9b8                pm_set_clk_domain_div
                0x8002ea0a                pm_config_mainclk_safety
                0x8002ea4e                pm_set_mclk_source
 .text          0x8002ea74      0x370 src/asf/avr32/drivers/pm/power_clocks_lib.o
                0x8002ea74                pcl_read_gplp
                0x8002ea90                pcl_write_gplp
                0x8002eaac                pcl_configure_usb_clock
                0x8002eb24                pcl_switch_to_osc
                0x8002eb88                pcl_configure_clocks
 .text          0x8002ede4      0x8ec src/asf/avr32/drivers/pwm/pwm4.o
                0x8002ede4                pwm_write_protect_hw_lock
                0x8002eeb2                pwm_write_protect_sw_lock
                0x8002ef76                pwm_write_protect_sw_unlock
                0x8002f038                pwm_write_protect_status
                0x8002f056                pwm_channel_init
                0x8002f09c                pwm_start_channels
                0x8002f0ba                pwm_stop_channels
                0x8002f0d8                pwm_update_channel
                0x8002f122                pwm_interrupt_update_channel
                0x8002f158                pwm_output_override_setup
                0x8002f1bc                pwm_output_override_write
                0x8002f280                pwm_update_period_value
                0x8002f290                pwm_synchronous_prepare_update
                0x8002f2ce                pwm_update_manual_write_manual_update
                0x8002f2e2                pwm_update_manual_write_auto_update
                0x8002f2f8                pwm_update_auto_write_auto_update_check_ready
                0x8002f30e                pwm_update_auto_write_auto_update_check_eot
                0x8002f324                pwm_fault_lines_polarity_setup
                0x8002f3e8                pwm_fault_lines_level_setup
                0x8002f46c                pwm_fault_lines_enable
                0x8002f4b8                pwm_get_fault_status
                0x8002f4c8                pwm_clr_fault_status
                0x8002f4de                pwm_compare_match_setup
                0x8002f526                pwm_compare_match_reload_setup
                0x8002f56e                pwm_compare_event_enable
                0x8002f590                pwm_compare_event_disable
                0x8002f5ba                pwm_init
 .text          0x8002f6d0      0x850 src/asf/avr32/drivers/scif/scif_uc3c.o
                0x8002f6d0                scif_read_gplp
                0x8002f6e4                scif_write_gplp
                0x8002f702                scif_is_osc_ready
                0x8002f728                scif_wait_for_pll_locked
                0x8002f752                scif_start_gclk
                0x8002f798                scif_stop_gclk
                0x8002f7d0                scif_gc_setup
                0x8002f870                scif_gc_enable
                0x8002f894                scif_bod18_enable_irq
                0x8002f8a6                scif_bod18_clear_irq
                0x8002f8b8                scif_bod18_get_irq_status
                0x8002f8cc                scif_bod18_get_irq_enable_bit
                0x8002f8e0                scif_bod18_get_level
                0x8002f8f4                scif_bod33_enable_irq
                0x8002f908                scif_bod33_clear_irq
                0x8002f91c                scif_bod33_get_irq_status
                0x8002f930                scif_bod33_get_irq_enable_bit
                0x8002f944                scif_bod33_get_level
                0x8002f958                scif_bod50_enable_irq
                0x8002f96c                scif_bod50_clear_irq
                0x8002f980                scif_bod50_get_irq_status
                0x8002f994                scif_bod50_get_irq_enable_bit
                0x8002f9a8                scif_bod50_get_level
                0x8002f9bc                scif_bod50_disable_irq
                0x8002f9f0                scif_bod33_disable_irq
                0x8002fa24                scif_bod18_disable_irq
                0x8002fa54                scif_stop_rc120M
                0x8002fa80                scif_start_rc120M
                0x8002faaa                scif_stop_rc8M
                0x8002fad6                scif_start_rc8M
                0x8002fb0a                scif_stop_osc32
                0x8002fb36                scif_start_osc32
                0x8002fb94                scif_pll_disable
                0x8002fbdc                scif_pll_enable
                0x8002fc24                scif_pll_setup
                0x8002fc96                scif_enable_extosc
                0x8002fcde                scif_enable_osc
                0x8002fd50                scif_configure_osc_extmode
                0x8002fd98                scif_configure_osc_crystalmode
                0x8002fe5c                scif_stop_osc
                0x8002fe8e                scif_start_osc
 .text          0x8002ff20      0x3c0 src/asf/avr32/drivers/spi/spi.o
                0x8002ff20                getBaudDiv
                0x8002ff44                spi_initSlave
                0x8002ffa8                spi_initTest
                0x8002ffc4                spi_initMaster
                0x80030006                spi_selectionMode
                0x80030046                spi_selectChip
                0x800300a2                spi_unselectChip
                0x800300d2                spi_setupChipReg
                0x8003019c                spi_enable
                0x800301aa                spi_disable
                0x800301b8                spi_is_enabled
                0x800301c8                spi_writeRegisterEmptyCheck
                0x800301d8                spi_write
                0x800301fe                spi_variableSlaveWrite
                0x80030254                spi_writeEndCheck
                0x80030264                spi_readRegisterFullCheck
                0x80030274                spi_read
                0x800302a0                spi_getStatus
 .text          0x800302e0      0x472 src/asf/avr32/drivers/tc/tc.o
                0x800302e0                tc_get_interrupt_settings
                0x800302fc                tc_select_external_clock
                0x80030344                tc_init_capture
                0x8003036c                tc_init_waveform
                0x80030412                tc_start
                0x80030436                tc_stop
                0x8003045a                tc_software_trigger
                0x8003047e                tc_sync_trigger
                0x8003048e                tc_sync_start
                0x800304a8                tc_read_sr
                0x800304c4                tc_read_tc
                0x800304e4                tc_read_ra
                0x80030504                tc_read_rb
                0x80030524                tc_read_rc
                0x80030544                tc_write_ra
                0x80030588                tc_write_rb
                0x800305cc                tc_write_rc
                0x80030610                tc_configure_interrupts
 *fill*         0x80030752        0x2 d703d703
 .text          0x80030754      0x8cc src/asf/avr32/drivers/twim/twim.o
                0x800308cc                twim_set_speed
                0x8003094a                twim_status
                0x8003096c                twim_disable_interrupt
                0x80030988                twim_chained_transfer
                0x80030b84                twim_write
                0x80030c50                twim_probe
                0x80030c80                twim_write_packet
                0x80030d8c                twim_read
                0x80030e58                twim_read_packet
                0x80030f40                twim_master_init
 .text          0x80031020      0x9c8 src/asf/avr32/drivers/usart/usart.o
                0x80031020                usart_spi_selectChip
                0x80031030                usart_spi_unselectChip
                0x80031058                usart_write_char
                0x80031078                usart_send_address
                0x800310b8                usart_putchar
                0x800310f0                usart_read_char
                0x80031120                usart_getchar
                0x8003115c                usart_write_line
                0x8003118c                usart_get_echo_line
                0x800311f4                usart_reset
                0x80031228                usart_init_spi_slave
                0x800312c8                usart_init_spi_master
                0x80031388                usart_init_iso7816
                0x8003143c                usart_init_sync_slave
                0x80031508                usart_init_sync_master
                0x800315f8                usart_init_rs232_tx_only
                0x800316e4                usart_init_rs232
                0x80031800                usart_init_IrDA
                0x80031840                usart_init_rs485
                0x80031870                usart_init_modem
                0x800318a0                usart_init_hw_handshaking
                0x800318d0                usart_init_lin_master
                0x8003195c                usart_init_lin_slave
 .text          0x800319e8     0x1210 src/asf/avr32/drivers/usbc/usbc_device.o
                0x800319e8                udd_include_vbus_monitoring
                0x800319f2                udd_is_high_speed
                0x800319fc                udd_set_address
                0x80031a26                udd_getaddress
                0x80031a3a                udd_get_frame_number
                0x80031a4e                udd_get_micro_frame_number
                0x80031a58                udd_set_setup_payload
                0x80031a78                udd_ep_is_halted
                0x80031a92                udd_ep_clear_halt
                0x80031b00                udd_ep_wait_stall_clear
                0x80031b70                udd_ep_alloc
                0x80031db0                udd_ep_abort
                0x80031dd8                udd_ep_set_halt
                0x80031e18                udd_ep_free
                0x80031e48                udd_ep_run
                0x80032250                udd_enable
                0x80032974                udd_detach
                0x800329d8                udd_attach
                0x80032b10                udd_disable
                0x80032b9c                udd_send_wake_up
 .text          0x80032bf8       0x8c src/asf/avr32/services/delay/delay.o
                0x80032bf8                delay_init
                0x80032c14                delay_ms
 .text          0x80032c84        0x0 src/asf/avr32/utils/startup/startup_uc3.o
 .text._stext   0x80032c84       0x50 src/asf/avr32/utils/startup/startup_uc3.o
                0x80032c84                _stext
 .text          0x80032cd4        0x0 src/asf/avr32/utils/startup/trampoline_uc3.o
 .text          0x80032cd4       0x30 src/asf/common/boards/user_board/init.o
                0x80032cd4                board_init
 .text          0x80032d04      0x154 src/asf/common/services/clock/uc3c/osc.o
                0x80032d04                osc_priv_disable_rc120m
                0x80032d2a                osc_priv_enable_rc120m
                0x80032d50                osc_priv_disable_rc8m
                0x80032d7e                osc_priv_enable_rc8m
                0x80032dc0                osc_priv_disable_osc32
                0x80032de6                osc_priv_enable_osc32
                0x80032e0e                osc_priv_disable_osc0
                0x80032e32                osc_priv_enable_osc0
 .text          0x80032e58       0x80 src/asf/common/services/clock/uc3c/pll.o
                0x80032e58                pll_disable
                0x80032e82                pll_enable
                0x80032eae                pll_config_write
 .text          0x80032ed8      0x220 src/asf/common/services/clock/uc3c/sysclk.o
                0x80032ed8                sysclk_disable_usb
                0x80032eec                sysclk_set_source
                0x80032f0e                sysclk_set_prescalers
                0x80032f7e                sysclk_priv_disable_module
                0x80032fb8                sysclk_priv_enable_module
                0x80032ff0                sysclk_enable_usb
                0x8003304c                sysclk_init
 .text          0x800330f8        0x0 src/asf/common/services/sleepmgr/uc3/sleepmgr.o
 .text          0x800330f8      0x284 src/asf/common/services/spi/uc3_spi/spi_master.o
                0x800330f8                spi_read_packet
                0x80033150                spi_write_packet
                0x80033180                spi_master_setup_device
 .text          0x8003337c      0xab4 src/asf/common/services/usb/class/cdc/device/udi_cdc.o
                0x8003337c                udi_cdc_data_disable
                0x80033386                udi_cdc_comm_setup
                0x8003341c                udi_cdc_data_setup
                0x80033426                udi_cdc_getsetting
                0x80033430                udi_cdc_line_coding_received
                0x8003343a                udi_cdc_is_rx_ready
                0x8003346c                udi_cdc_is_tx_ready
                0x800334e0                udi_cdc_write_buf
                0x80033598                udi_cdc_putc
                0x80033610                udi_cdc_data_recevied
                0x800336b0                udi_cdc_signal_parity_error
                0x80033724                udi_cdc_serial_state_msg_sent
                0x800338ac                udi_cdc_data_sent
                0x800338e8                udi_cdc_data_sof_notify
                0x800338fc                udi_cdc_comm_disable
                0x80033928                udi_cdc_comm_enable
                0x80033970                udi_cdc_getc
                0x80033a58                udi_cdc_read_buf
                0x80033b64                udi_cdc_ctrl_signal_dcd
                0x80033bf8                udi_cdc_signal_framing_error
                0x80033c6c                udi_cdc_ctrl_signal_dsr
                0x80033d00                udi_cdc_signal_overrun
                0x80033d74                udi_cdc_data_enable
 .text          0x80033e30        0x0 src/asf/common/services/usb/class/cdc/device/udi_cdc_desc.o
 .text          0x80033e30      0x88c src/asf/common/services/usb/udc/udc.o
                0x80033e30                udc_get_interface_desc
                0x80033e4c                udc_sof_notify
                0x80034100                udc_reset
                0x80034154                udc_process_setup
 .text          0x800346bc       0x74 src/asf/common/utils/stdio/read.o
                0x800346bc                _read
 .text          0x80034730      0x154 src/asf/common/utils/stdio/stdio_usb/stdio_usb.o
                0x80034730                stdio_usb_enable
                0x80034750                stdio_usb_disable
                0x80034770                stdio_usb_vbus_event
                0x800347a0                stdio_usb_init
                0x80034804                stdio_usb_getchar
                0x8003484c                stdio_usb_putchar
 .text          0x80034884       0x50 src/asf/common/utils/stdio/write.o
                0x80034884                _write
 .text          0x800348d4      0x23c src/boardsupport.o
                0x800348d4                boardsupport_init
 .text          0x80034b10       0xc4 src/main.o
                0x80034b10                initialisation()
                0x80034b9c                main
 .text          0x80034bd4        0x0 c:/program files (x86)/atmel/atmel toolchain/avr32 gcc/native/3.4.2.1002/avr32-gnu-toolchain/bin/../lib/gcc/avr32/4.4.7/../../../../avr32/lib/ucr3fp\libm.a(lib_a-s_cos.o)
 .text.cos      0x80034bd4       0x9c c:/program files (x86)/atmel/atmel toolchain/avr32 gcc/native/3.4.2.1002/avr32-gnu-toolchain/bin/../lib/gcc/avr32/4.4.7/../../../../avr32/lib/ucr3fp\libm.a(lib_a-s_cos.o)
                0x80034bd4                cos
 .text          0x80034c70        0x0 c:/program files (x86)/atmel/atmel toolchain/avr32 gcc/native/3.4.2.1002/avr32-gnu-toolchain/bin/../lib/gcc/avr32/4.4.7/../../../../avr32/lib/ucr3fp\libm.a(lib_a-s_floor.o)
 .text.floor    0x80034c70      0x128 c:/program files (x86)/atmel/atmel toolchain/avr32 gcc/native/3.4.2.1002/avr32-gnu-toolchain/bin/../lib/gcc/avr32/4.4.7/../../../../avr32/lib/ucr3fp\libm.a(lib_a-s_floor.o)
                0x80034c70                floor
 .text          0x80034d98        0x0 c:/program files (x86)/atmel/atmel toolchain/avr32 gcc/native/3.4.2.1002/avr32-gnu-toolchain/bin/../lib/gcc/avr32/4.4.7/../../../../avr32/lib/ucr3fp\libm.a(lib_a-s_sin.o)
 .text.sin      0x80034d98       0xa0 c:/program files (x86)/atmel/atmel toolchain/avr32 gcc/native/3.4.2.1002/avr32-gnu-toolchain/bin/../lib/gcc/avr32/4.4.7/../../../../avr32/lib/ucr3fp\libm.a(lib_a-s_sin.o)
                0x80034d98                sin
 .text          0x80034e38        0x0 c:/program files (x86)/atmel/atmel toolchain/avr32 gcc/native/3.4.2.1002/avr32-gnu-toolchain/bin/../lib/gcc/avr32/4.4.7/../../../../avr32/lib/ucr3fp\libm.a(lib_a-w_asin.o)
 .text.asin     0x80034e38       0xb0 c:/program files (x86)/atmel/atmel toolchain/avr32 gcc/native/3.4.2.1002/avr32-gnu-toolchain/bin/../lib/gcc/avr32/4.4.7/../../../../avr32/lib/ucr3fp\libm.a(lib_a-w_asin.o)
                0x80034e38                asin
 .text          0x80034ee8        0x0 c:/program files (x86)/atmel/atmel toolchain/avr32 gcc/native/3.4.2.1002/avr32-gnu-toolchain/bin/../lib/gcc/avr32/4.4.7/../../../../avr32/lib/ucr3fp\libm.a(lib_a-w_atan2.o)
 .text.atan2    0x80034ee8        0xc c:/program files (x86)/atmel/atmel toolchain/avr32 gcc/native/3.4.2.1002/avr32-gnu-toolchain/bin/../lib/gcc/avr32/4.4.7/../../../../avr32/lib/ucr3fp\libm.a(lib_a-w_atan2.o)
                0x80034ee8                atan2
 .text          0x80034ef4        0x0 c:/program files (x86)/atmel/atmel toolchain/avr32 gcc/native/3.4.2.1002/avr32-gnu-toolchain/bin/../lib/gcc/avr32/4.4.7/../../../../avr32/lib/ucr3fp\libm.a(lib_a-w_fmod.o)
 .text.fmod     0x80034ef4       0xbc c:/program files (x86)/atmel/atmel toolchain/avr32 gcc/native/3.4.2.1002/avr32-gnu-toolchain/bin/../lib/gcc/avr32/4.4.7/../../../../avr32/lib/ucr3fp\libm.a(lib_a-w_fmod.o)
                0x80034ef4                fmod
 .text          0x80034fb0        0x0 c:/program files (x86)/atmel/atmel toolchain/avr32 gcc/native/3.4.2.1002/avr32-gnu-toolchain/bin/../lib/gcc/avr32/4.4.7/../../../../avr32/lib/ucr3fp\libm.a(lib_a-w_pow.o)
 .text.pow      0x80034fb0      0x300 c:/program files (x86)/atmel/atmel toolchain/avr32 gcc/native/3.4.2.1002/avr32-gnu-toolchain/bin/../lib/gcc/avr32/4.4.7/../../../../avr32/lib/ucr3fp\libm.a(lib_a-w_pow.o)
                0x80034fb0                pow
 .text          0x800352b0        0x0 c:/program files (x86)/atmel/atmel toolchain/avr32 gcc/native/3.4.2.1002/avr32-gnu-toolchain/bin/../lib/gcc/avr32/4.4.7/../../../../avr32/lib/ucr3fp\libm.a(lib_a-w_sqrt.o)
 .text.sqrt     0x800352b0       0xb4 c:/program files (x86)/atmel/atmel toolchain/avr32 gcc/native/3.4.2.1002/avr32-gnu-toolchain/bin/../lib/gcc/avr32/4.4.7/../../../../avr32/lib/ucr3fp\libm.a(lib_a-w_sqrt.o)
                0x800352b0                sqrt
 .text          0x80035364        0x0 c:/program files (x86)/atmel/atmel toolchain/avr32 gcc/native/3.4.2.1002/avr32-gnu-toolchain/bin/../lib/gcc/avr32/4.4.7/../../../../avr32/lib/ucr3fp\libm.a(lib_a-wf_sqrt.o)
 .text.sqrtf    0x80035364       0xbc c:/program files (x86)/atmel/atmel toolchain/avr32 gcc/native/3.4.2.1002/avr32-gnu-toolchain/bin/../lib/gcc/avr32/4.4.7/../../../../avr32/lib/ucr3fp\libm.a(lib_a-wf_sqrt.o)
                0x80035364                sqrtf
 .text          0x80035420        0x0 c:/program files (x86)/atmel/atmel toolchain/avr32 gcc/native/3.4.2.1002/avr32-gnu-toolchain/bin/../lib/gcc/avr32/4.4.7/../../../../avr32/lib/ucr3fp\libm.a(lib_a-e_asin.o)
 .text.__ieee754_asin
                0x80035420      0x50c c:/program files (x86)/atmel/atmel toolchain/avr32 gcc/native/3.4.2.1002/avr32-gnu-toolchain/bin/../lib/gcc/avr32/4.4.7/../../../../avr32/lib/ucr3fp\libm.a(lib_a-e_asin.o)
                0x80035420                __ieee754_asin
 .text          0x8003592c        0x0 c:/program files (x86)/atmel/atmel toolchain/avr32 gcc/native/3.4.2.1002/avr32-gnu-toolchain/bin/../lib/gcc/avr32/4.4.7/../../../../avr32/lib/ucr3fp\libm.a(lib_a-e_atan2.o)
 .text.__ieee754_atan2
                0x8003592c      0x240 c:/program files (x86)/atmel/atmel toolchain/avr32 gcc/native/3.4.2.1002/avr32-gnu-toolchain/bin/../lib/gcc/avr32/4.4.7/../../../../avr32/lib/ucr3fp\libm.a(lib_a-e_atan2.o)
                0x8003592c                __ieee754_atan2
 .text          0x80035b6c        0x0 c:/program files (x86)/atmel/atmel toolchain/avr32 gcc/native/3.4.2.1002/avr32-gnu-toolchain/bin/../lib/gcc/avr32/4.4.7/../../../../avr32/lib/ucr3fp\libm.a(lib_a-e_fmod.o)
 .text.__ieee754_fmod
                0x80035b6c      0x240 c:/program files (x86)/atmel/atmel toolchain/avr32 gcc/native/3.4.2.1002/avr32-gnu-toolchain/bin/../lib/gcc/avr32/4.4.7/../../../../avr32/lib/ucr3fp\libm.a(lib_a-e_fmod.o)
                0x80035b6c                __ieee754_fmod
 .text          0x80035dac        0x0 c:/program files (x86)/atmel/atmel toolchain/avr32 gcc/native/3.4.2.1002/avr32-gnu-toolchain/bin/../lib/gcc/avr32/4.4.7/../../../../avr32/lib/ucr3fp\libm.a(lib_a-e_pow.o)
 .text.__ieee754_pow
                0x80035dac      0xaf0 c:/program files (x86)/atmel/atmel toolchain/avr32 gcc/native/3.4.2.1002/avr32-gnu-toolchain/bin/../lib/gcc/avr32/4.4.7/../../../../avr32/lib/ucr3fp\libm.a(lib_a-e_pow.o)
                0x80035dac                __ieee754_pow
 .text          0x8003689c        0x0 c:/program files (x86)/atmel/atmel toolchain/avr32 gcc/native/3.4.2.1002/avr32-gnu-toolchain/bin/../lib/gcc/avr32/4.4.7/../../../../avr32/lib/ucr3fp\libm.a(lib_a-e_rem_pio2.o)
 .text.__ieee754_rem_pio2
                0x8003689c      0x4a0 c:/program files (x86)/atmel/atmel toolchain/avr32 gcc/native/3.4.2.1002/avr32-gnu-toolchain/bin/../lib/gcc/avr32/4.4.7/../../../../avr32/lib/ucr3fp\libm.a(lib_a-e_rem_pio2.o)
                0x8003689c                __ieee754_rem_pio2
 .text          0x80036d3c        0x0 c:/program files (x86)/atmel/atmel toolchain/avr32 gcc/native/3.4.2.1002/avr32-gnu-toolchain/bin/../lib/gcc/avr32/4.4.7/../../../../avr32/lib/ucr3fp\libm.a(lib_a-e_sqrt.o)
 .text.__ieee754_sqrt
                0x80036d3c      0x19c c:/program files (x86)/atmel/atmel toolchain/avr32 gcc/native/3.4.2.1002/avr32-gnu-toolchain/bin/../lib/gcc/avr32/4.4.7/../../../../avr32/lib/ucr3fp\libm.a(lib_a-e_sqrt.o)
                0x80036d3c                __ieee754_sqrt
 .text          0x80036ed8        0x0 c:/program files (x86)/atmel/atmel toolchain/avr32 gcc/native/3.4.2.1002/avr32-gnu-toolchain/bin/../lib/gcc/avr32/4.4.7/../../../../avr32/lib/ucr3fp\libm.a(lib_a-ef_sqrt.o)
 .text.__ieee754_sqrtf
                0x80036ed8       0xd4 c:/program files (x86)/atmel/atmel toolchain/avr32 gcc/native/3.4.2.1002/avr32-gnu-toolchain/bin/../lib/gcc/avr32/4.4.7/../../../../avr32/lib/ucr3fp\libm.a(lib_a-ef_sqrt.o)
                0x80036ed8                __ieee754_sqrtf
 .text          0x80036fac        0x0 c:/program files (x86)/atmel/atmel toolchain/avr32 gcc/native/3.4.2.1002/avr32-gnu-toolchain/bin/../lib/gcc/avr32/4.4.7/../../../../avr32/lib/ucr3fp\libm.a(lib_a-k_cos.o)
 .text.__kernel_cos
                0x80036fac      0x1f8 c:/program files (x86)/atmel/atmel toolchain/avr32 gcc/native/3.4.2.1002/avr32-gnu-toolchain/bin/../lib/gcc/avr32/4.4.7/../../../../avr32/lib/ucr3fp\libm.a(lib_a-k_cos.o)
                0x80036fac                __kernel_cos
 .text          0x800371a4        0x0 c:/program files (x86)/atmel/atmel toolchain/avr32 gcc/native/3.4.2.1002/avr32-gnu-toolchain/bin/../lib/gcc/avr32/4.4.7/../../../../avr32/lib/ucr3fp\libm.a(lib_a-k_rem_pio2.o)
 .text.__kernel_rem_pio2
                0x800371a4      0x718 c:/program files (x86)/atmel/atmel toolchain/avr32 gcc/native/3.4.2.1002/avr32-gnu-toolchain/bin/../lib/gcc/avr32/4.4.7/../../../../avr32/lib/ucr3fp\libm.a(lib_a-k_rem_pio2.o)
                0x800371a4                __kernel_rem_pio2
 .text          0x800378bc        0x0 c:/program files (x86)/atmel/atmel toolchain/avr32 gcc/native/3.4.2.1002/avr32-gnu-toolchain/bin/../lib/gcc/avr32/4.4.7/../../../../avr32/lib/ucr3fp\libm.a(lib_a-k_sin.o)
 .text.__kernel_sin
                0x800378bc      0x1a4 c:/program files (x86)/atmel/atmel toolchain/avr32 gcc/native/3.4.2.1002/avr32-gnu-toolchain/bin/../lib/gcc/avr32/4.4.7/../../../../avr32/lib/ucr3fp\libm.a(lib_a-k_sin.o)
                0x800378bc                __kernel_sin
 .text          0x80037a60        0x0 c:/program files (x86)/atmel/atmel toolchain/avr32 gcc/native/3.4.2.1002/avr32-gnu-toolchain/bin/../lib/gcc/avr32/4.4.7/../../../../avr32/lib/ucr3fp\libm.a(lib_a-s_atan.o)
 .text.atan     0x80037a60      0x368 c:/program files (x86)/atmel/atmel toolchain/avr32 gcc/native/3.4.2.1002/avr32-gnu-toolchain/bin/../lib/gcc/avr32/4.4.7/../../../../avr32/lib/ucr3fp\libm.a(lib_a-s_atan.o)
                0x80037a60                atan
 .text          0x80037dc8        0x0 c:/program files (x86)/atmel/atmel toolchain/avr32 gcc/native/3.4.2.1002/avr32-gnu-toolchain/bin/../lib/gcc/avr32/4.4.7/../../../../avr32/lib/ucr3fp\libm.a(lib_a-s_fabs.o)
 .text.fabs     0x80037dc8        0x8 c:/program files (x86)/atmel/atmel toolchain/avr32 gcc/native/3.4.2.1002/avr32-gnu-toolchain/bin/../lib/gcc/avr32/4.4.7/../../../../avr32/lib/ucr3fp\libm.a(lib_a-s_fabs.o)
                0x80037dc8                fabs
 .text          0x80037dd0        0x0 c:/program files (x86)/atmel/atmel toolchain/avr32 gcc/native/3.4.2.1002/avr32-gnu-toolchain/bin/../lib/gcc/avr32/4.4.7/../../../../avr32/lib/ucr3fp\libm.a(lib_a-s_finite.o)
 .text.finite   0x80037dd0       0x10 c:/program files (x86)/atmel/atmel toolchain/avr32 gcc/native/3.4.2.1002/avr32-gnu-toolchain/bin/../lib/gcc/avr32/4.4.7/../../../../avr32/lib/ucr3fp\libm.a(lib_a-s_finite.o)
                0x80037dd0                finite
 .text          0x80037de0        0x0 c:/program files (x86)/atmel/atmel toolchain/avr32 gcc/native/3.4.2.1002/avr32-gnu-toolchain/bin/../lib/gcc/avr32/4.4.7/../../../../avr32/lib/ucr3fp\libm.a(lib_a-s_isnand.o)
 .text.__isnand
                0x80037de0       0x1c c:/program files (x86)/atmel/atmel toolchain/avr32 gcc/native/3.4.2.1002/avr32-gnu-toolchain/bin/../lib/gcc/avr32/4.4.7/../../../../avr32/lib/ucr3fp\libm.a(lib_a-s_isnand.o)
                0x80037de0                __isnand
 .text          0x80037dfc        0x0 c:/program files (x86)/atmel/atmel toolchain/avr32 gcc/native/3.4.2.1002/avr32-gnu-toolchain/bin/../lib/gcc/avr32/4.4.7/../../../../avr32/lib/ucr3fp\libm.a(lib_a-s_lib_ver.o)
 .text          0x80037dfc        0x0 c:/program files (x86)/atmel/atmel toolchain/avr32 gcc/native/3.4.2.1002/avr32-gnu-toolchain/bin/../lib/gcc/avr32/4.4.7/../../../../avr32/lib/ucr3fp\libm.a(lib_a-s_matherr.o)
 .text.matherr  0x80037dfc        0x2 c:/program files (x86)/atmel/atmel toolchain/avr32 gcc/native/3.4.2.1002/avr32-gnu-toolchain/bin/../lib/gcc/avr32/4.4.7/../../../../avr32/lib/ucr3fp\libm.a(lib_a-s_matherr.o)
                0x80037dfc                matherr
 .text          0x80037dfe        0x0 c:/program files (x86)/atmel/atmel toolchain/avr32 gcc/native/3.4.2.1002/avr32-gnu-toolchain/bin/../lib/gcc/avr32/4.4.7/../../../../avr32/lib/ucr3fp\libm.a(lib_a-s_nan.o)
 .text.nan      0x80037dfe        0x8 c:/program files (x86)/atmel/atmel toolchain/avr32 gcc/native/3.4.2.1002/avr32-gnu-toolchain/bin/../lib/gcc/avr32/4.4.7/../../../../avr32/lib/ucr3fp\libm.a(lib_a-s_nan.o)
                0x80037dfe                nan
 .text          0x80037e06        0x0 c:/program files (x86)/atmel/atmel toolchain/avr32 gcc/native/3.4.2.1002/avr32-gnu-toolchain/bin/../lib/gcc/avr32/4.4.7/../../../../avr32/lib/ucr3fp\libm.a(lib_a-s_rint.o)
 *fill*         0x80037e06        0x2 d703d703
 .text.rint     0x80037e08      0x124 c:/program files (x86)/atmel/atmel toolchain/avr32 gcc/native/3.4.2.1002/avr32-gnu-toolchain/bin/../lib/gcc/avr32/4.4.7/../../../../avr32/lib/ucr3fp\libm.a(lib_a-s_rint.o)
                0x80037e08                rint
 .text          0x80037f2c        0x0 c:/program files (x86)/atmel/atmel toolchain/avr32 gcc/native/3.4.2.1002/avr32-gnu-toolchain/bin/../lib/gcc/avr32/4.4.7/../../../../avr32/lib/ucr3fp\libm.a(lib_a-s_scalbn.o)
 .text.scalbn   0x80037f2c       0xf0 c:/program files (x86)/atmel/atmel toolchain/avr32 gcc/native/3.4.2.1002/avr32-gnu-toolchain/bin/../lib/gcc/avr32/4.4.7/../../../../avr32/lib/ucr3fp\libm.a(lib_a-s_scalbn.o)
                0x80037f2c                scalbn
 .text          0x8003801c        0x0 c:/program files (x86)/atmel/atmel toolchain/avr32 gcc/native/3.4.2.1002/avr32-gnu-toolchain/bin/../lib/gcc/avr32/4.4.7/../../../../avr32/lib/ucr3fp\libm.a(lib_a-sf_isnan.o)
 .text.isnanf   0x8003801c        0xe c:/program files (x86)/atmel/atmel toolchain/avr32 gcc/native/3.4.2.1002/avr32-gnu-toolchain/bin/../lib/gcc/avr32/4.4.7/../../../../avr32/lib/ucr3fp\libm.a(lib_a-sf_isnan.o)
                0x8003801c                isnanf
 .text          0x8003802a        0x0 c:/program files (x86)/atmel/atmel toolchain/avr32 gcc/native/3.4.2.1002/avr32-gnu-toolchain/bin/../lib/gcc/avr32/4.4.7/../../../../avr32/lib/ucr3fp\libm.a(lib_a-s_copysign.o)
 .text.copysign
                0x8003802a       0x18 c:/program files (x86)/atmel/atmel toolchain/avr32 gcc/native/3.4.2.1002/avr32-gnu-toolchain/bin/../lib/gcc/avr32/4.4.7/../../../../avr32/lib/ucr3fp\libm.a(lib_a-s_copysign.o)
                0x8003802a                copysign
 *fill*         0x80038042        0x2 d703d703
 .text          0x80038044      0x1d4 c:/program files (x86)/atmel/atmel toolchain/avr32 gcc/native/3.4.2.1002/avr32-gnu-toolchain/bin/../lib/gcc/avr32/4.4.7/ucr3fp\libgcc.a(_avr32_f64_mul.o)
                0x80038044                __avr32_f64_mul
 .text          0x80038218      0x2b0 c:/program files (x86)/atmel/atmel toolchain/avr32 gcc/native/3.4.2.1002/avr32-gnu-toolchain/bin/../lib/gcc/avr32/4.4.7/ucr3fp\libgcc.a(_avr32_f64_addsub.o)
                0x8003821c                __avr32_f64_sub
                0x800383b8                __avr32_f64_add
 .text          0x800384c8       0x2a c:/program files (x86)/atmel/atmel toolchain/avr32 gcc/native/3.4.2.1002/avr32-gnu-toolchain/bin/../lib/gcc/avr32/4.4.7/ucr3fp\libgcc.a(_avr32_f64_to_s32.o)
                0x800384c8                __avr32_f64_to_u32
                0x800384cc                __avr32_f64_to_s32
 .text          0x800384f2       0x60 c:/program files (x86)/atmel/atmel toolchain/avr32 gcc/native/3.4.2.1002/avr32-gnu-toolchain/bin/../lib/gcc/avr32/4.4.7/ucr3fp\libgcc.a(_avr32_f64_to_s64.o)
                0x800384f2                __avr32_f64_to_u64
                0x800384fe                __avr32_f64_to_s64
 .text          0x80038552       0xe8 c:/program files (x86)/atmel/atmel toolchain/avr32 gcc/native/3.4.2.1002/avr32-gnu-toolchain/bin/../lib/gcc/avr32/4.4.7/ucr3fp\libgcc.a(_avr32_s32_to_f64.o)
                0x80038552                __avr32_u32_to_f64
                0x8003855a                __avr32_s32_to_f64
 .text          0x8003863a       0x26 c:/program files (x86)/atmel/atmel toolchain/avr32 gcc/native/3.4.2.1002/avr32-gnu-toolchain/bin/../lib/gcc/avr32/4.4.7/ucr3fp\libgcc.a(_avr32_f64_cmp_eq.o)
                0x8003863a                __avr32_f64_cmp_eq
 .text          0x80038660       0x68 c:/program files (x86)/atmel/atmel toolchain/avr32 gcc/native/3.4.2.1002/avr32-gnu-toolchain/bin/../lib/gcc/avr32/4.4.7/ucr3fp\libgcc.a(_avr32_f64_cmp_ge.o)
                0x80038660                __avr32_f64_cmp_ge
 .text          0x800386c8       0x68 c:/program files (x86)/atmel/atmel toolchain/avr32 gcc/native/3.4.2.1002/avr32-gnu-toolchain/bin/../lib/gcc/avr32/4.4.7/ucr3fp\libgcc.a(_avr32_f64_cmp_lt.o)
                0x800386c8                __avr32_f64_cmp_lt
 .text          0x80038730       0x34 c:/program files (x86)/atmel/atmel toolchain/avr32 gcc/native/3.4.2.1002/avr32-gnu-toolchain/bin/../lib/gcc/avr32/4.4.7/ucr3fp\libgcc.a(_avr32_f32_cmp_lt.o)
                0x80038730                __avr32_f32_cmp_lt
 .text          0x80038764      0x318 c:/program files (x86)/atmel/atmel toolchain/avr32 gcc/native/3.4.2.1002/avr32-gnu-toolchain/bin/../lib/gcc/avr32/4.4.7/ucr3fp\libgcc.a(_avr32_f64_div.o)
                0x80038764                __avr32_f64_div
 .text          0x80038a7c      0x160 c:/program files (x86)/atmel/atmel toolchain/avr32 gcc/native/3.4.2.1002/avr32-gnu-toolchain/bin/../lib/gcc/avr32/4.4.7/ucr3fp\libgcc.a(_avr32_f32_div.o)
                0x80038a7c                __avr32_f32_div
 .text          0x80038bdc      0x180 c:/program files (x86)/atmel/atmel toolchain/avr32 gcc/native/3.4.2.1002/avr32-gnu-toolchain/bin/../lib/gcc/avr32/4.4.7/ucr3fp\libgcc.a(_avr32_f32_addsub.o)
                0x80038be0                __avr32_f32_sub
                0x80038cb0                __avr32_f32_add
 .text          0x80038d5c       0xe2 c:/program files (x86)/atmel/atmel toolchain/avr32 gcc/native/3.4.2.1002/avr32-gnu-toolchain/bin/../lib/gcc/avr32/4.4.7/ucr3fp\libgcc.a(_avr32_f32_mul.o)
                0x80038d5c                __avr32_f32_mul
 .text          0x80038e3e       0x60 c:/program files (x86)/atmel/atmel toolchain/avr32 gcc/native/3.4.2.1002/avr32-gnu-toolchain/bin/../lib/gcc/avr32/4.4.7/ucr3fp\libgcc.a(_avr32_f32_to_f64.o)
                0x80038e3e                __avr32_f32_to_f64
 .text          0x80038e9e       0x8a c:/program files (x86)/atmel/atmel toolchain/avr32 gcc/native/3.4.2.1002/avr32-gnu-toolchain/bin/../lib/gcc/avr32/4.4.7/ucr3fp\libgcc.a(_avr32_f64_to_f32.o)
                0x80038e9e                __avr32_f64_to_f32
 .text          0x80038f28       0x3c c:/program files (x86)/atmel/atmel toolchain/avr32 gcc/native/3.4.2.1002/avr32-gnu-toolchain/bin/../lib/gcc/avr32/4.4.7/ucr3fp\libgcc.a(_floatdidf.o)
                0x80038f28                __avr32_s64_to_f64
                0x80038f28                __floatdidf
 .text          0x80038f64      0x2b4 c:/program files (x86)/atmel/atmel toolchain/avr32 gcc/native/3.4.2.1002/avr32-gnu-toolchain/bin/../lib/gcc/avr32/4.4.7/ucr3fp\libgcc.a(_divdi3.o)
                0x80038f64                __avr32_sdiv64
                0x80038f64                __divdi3
 .text          0x80039218      0x280 c:/program files (x86)/atmel/atmel toolchain/avr32 gcc/native/3.4.2.1002/avr32-gnu-toolchain/bin/../lib/gcc/avr32/4.4.7/ucr3fp\libgcc.a(_moddi3.o)
                0x80039218                __moddi3
                0x80039218                __avr32_smod64
 .text          0x80039498      0x264 c:/program files (x86)/atmel/atmel toolchain/avr32 gcc/native/3.4.2.1002/avr32-gnu-toolchain/bin/../lib/gcc/avr32/4.4.7/ucr3fp\libgcc.a(_udivdi3.o)
                0x80039498                __avr32_udiv64
                0x80039498                __udivdi3
 .text          0x800396fc      0x20c c:/program files (x86)/atmel/atmel toolchain/avr32 gcc/native/3.4.2.1002/avr32-gnu-toolchain/bin/../lib/gcc/avr32/4.4.7/ucr3fp\libgcc.a(_umoddi3.o)
                0x800396fc                __avr32_umod64
                0x800396fc                __umoddi3
 .text          0x80039908        0x0 c:/program files (x86)/atmel/atmel toolchain/avr32 gcc/native/3.4.2.1002/avr32-gnu-toolchain/bin/../lib/gcc/avr32/4.4.7/../../../../avr32/lib/ucr3fp\libc.a(lib_a-errno.o)
 .text.__errno  0x80039908        0xc c:/program files (x86)/atmel/atmel toolchain/avr32 gcc/native/3.4.2.1002/avr32-gnu-toolchain/bin/../lib/gcc/avr32/4.4.7/../../../../avr32/lib/ucr3fp\libc.a(lib_a-errno.o)
                0x80039908                __errno
 .text          0x80039914        0x0 c:/program files (x86)/atmel/atmel toolchain/avr32 gcc/native/3.4.2.1002/avr32-gnu-toolchain/bin/../lib/gcc/avr32/4.4.7/../../../../avr32/lib/ucr3fp\libc.a(lib_a-impure.o)
 .text          0x80039914        0x0 c:/program files (x86)/atmel/atmel toolchain/avr32 gcc/native/3.4.2.1002/avr32-gnu-toolchain/bin/../lib/gcc/avr32/4.4.7/../../../../avr32/lib/ucr3fp\libc.a(lib_a-malloc.o)
 .text.free     0x80039914       0x18 c:/program files (x86)/atmel/atmel toolchain/avr32 gcc/native/3.4.2.1002/avr32-gnu-toolchain/bin/../lib/gcc/avr32/4.4.7/../../../../avr32/lib/ucr3fp\libc.a(lib_a-malloc.o)
                0x80039914                free
 .text.malloc   0x8003992c       0x18 c:/program files (x86)/atmel/atmel toolchain/avr32 gcc/native/3.4.2.1002/avr32-gnu-toolchain/bin/../lib/gcc/avr32/4.4.7/../../../../avr32/lib/ucr3fp\libc.a(lib_a-malloc.o)
                0x8003992c                malloc
 .text          0x80039944        0x0 c:/program files (x86)/atmel/atmel toolchain/avr32 gcc/native/3.4.2.1002/avr32-gnu-toolchain/bin/../lib/gcc/avr32/4.4.7/../../../../avr32/lib/ucr3fp\libc.a(lib_a-mallocr.o)
 .text._malloc_r
                0x80039944      0x450 c:/program files (x86)/atmel/atmel toolchain/avr32 gcc/native/3.4.2.1002/avr32-gnu-toolchain/bin/../lib/gcc/avr32/4.4.7/../../../../avr32/lib/ucr3fp\libc.a(lib_a-mallocr.o)
                0x80039944                _malloc_r
 .text          0x80039d94      0x148 c:/program files (x86)/atmel/atmel toolchain/avr32 gcc/native/3.4.2.1002/avr32-gnu-toolchain/bin/../lib/gcc/avr32/4.4.7/../../../../avr32/lib/ucr3fp\libc.a(lib_a-memcpy.o)
                0x80039d94                memcpy
 .text          0x80039edc        0x0 c:/program files (x86)/atmel/atmel toolchain/avr32 gcc/native/3.4.2.1002/avr32-gnu-toolchain/bin/../lib/gcc/avr32/4.4.7/../../../../avr32/lib/ucr3fp\libc.a(lib_a-memset.o)
 .text.memset   0x80039edc        0xe c:/program files (x86)/atmel/atmel toolchain/avr32 gcc/native/3.4.2.1002/avr32-gnu-toolchain/bin/../lib/gcc/avr32/4.4.7/../../../../avr32/lib/ucr3fp\libc.a(lib_a-memset.o)
                0x80039edc                memset
 .text          0x80039eea        0x0 c:/program files (x86)/atmel/atmel toolchain/avr32 gcc/native/3.4.2.1002/avr32-gnu-toolchain/bin/../lib/gcc/avr32/4.4.7/../../../../avr32/lib/ucr3fp\libc.a(lib_a-mlock.o)
 .text.__malloc_lock
                0x80039eea        0x2 c:/program files (x86)/atmel/atmel toolchain/avr32 gcc/native/3.4.2.1002/avr32-gnu-toolchain/bin/../lib/gcc/avr32/4.4.7/../../../../avr32/lib/ucr3fp\libc.a(lib_a-mlock.o)
                0x80039eea                __malloc_lock
 .text.__malloc_unlock
                0x80039eec        0x2 c:/program files (x86)/atmel/atmel toolchain/avr32 gcc/native/3.4.2.1002/avr32-gnu-toolchain/bin/../lib/gcc/avr32/4.4.7/../../../../avr32/lib/ucr3fp\libc.a(lib_a-mlock.o)
                0x80039eec                __malloc_unlock
 .text          0x80039eee        0x0 c:/program files (x86)/atmel/atmel toolchain/avr32 gcc/native/3.4.2.1002/avr32-gnu-toolchain/bin/../lib/gcc/avr32/4.4.7/../../../../avr32/lib/ucr3fp\libc.a(lib_a-sbrkr.o)
 *fill*         0x80039eee        0x2 d703d703
 .text._sbrk_r  0x80039ef0       0x28 c:/program files (x86)/atmel/atmel toolchain/avr32 gcc/native/3.4.2.1002/avr32-gnu-toolchain/bin/../lib/gcc/avr32/4.4.7/../../../../avr32/lib/ucr3fp\libc.a(lib_a-sbrkr.o)
                0x80039ef0                _sbrk_r
 .text          0x80039f18        0x0 c:/program files (x86)/atmel/atmel toolchain/avr32 gcc/native/3.4.2.1002/avr32-gnu-toolchain/bin/../lib/gcc/avr32/4.4.7/../../../../avr32/lib/ucr3fp\libc.a(lib_a-snprintf.o)
 .text.snprintf
                0x80039f18       0x64 c:/program files (x86)/atmel/atmel toolchain/avr32 gcc/native/3.4.2.1002/avr32-gnu-toolchain/bin/../lib/gcc/avr32/4.4.7/../../../../avr32/lib/ucr3fp\libc.a(lib_a-snprintf.o)
                0x80039f18                snprintf
 .text._snprintf_r
                0x80039f7c       0x60 c:/program files (x86)/atmel/atmel toolchain/avr32 gcc/native/3.4.2.1002/avr32-gnu-toolchain/bin/../lib/gcc/avr32/4.4.7/../../../../avr32/lib/ucr3fp\libc.a(lib_a-snprintf.o)
                0x80039f7c                _snprintf_r
 .text          0x80039fdc        0x0 c:/program files (x86)/atmel/atmel toolchain/avr32 gcc/native/3.4.2.1002/avr32-gnu-toolchain/bin/../lib/gcc/avr32/4.4.7/../../../../avr32/lib/ucr3fp\libc.a(lib_a-strcpy.o)
 .text.strcpy   0x80039fdc       0x12 c:/program files (x86)/atmel/atmel toolchain/avr32 gcc/native/3.4.2.1002/avr32-gnu-toolchain/bin/../lib/gcc/avr32/4.4.7/../../../../avr32/lib/ucr3fp\libc.a(lib_a-strcpy.o)
                0x80039fdc                strcpy
 .text          0x80039fee        0x0 c:/program files (x86)/atmel/atmel toolchain/avr32 gcc/native/3.4.2.1002/avr32-gnu-toolchain/bin/../lib/gcc/avr32/4.4.7/../../../../avr32/lib/ucr3fp\libc.a(lib_a-strlen.o)
 .text.strlen   0x80039fee       0x16 c:/program files (x86)/atmel/atmel toolchain/avr32 gcc/native/3.4.2.1002/avr32-gnu-toolchain/bin/../lib/gcc/avr32/4.4.7/../../../../avr32/lib/ucr3fp\libc.a(lib_a-strlen.o)
                0x80039fee                strlen
 .text          0x8003a004        0x0 c:/program files (x86)/atmel/atmel toolchain/avr32 gcc/native/3.4.2.1002/avr32-gnu-toolchain/bin/../lib/gcc/avr32/4.4.7/../../../../avr32/lib/ucr3fp\libc.a(lib_a-syscalls.o)
 .text._init_startup
                0x8003a004        0x2 c:/program files (x86)/atmel/atmel toolchain/avr32 gcc/native/3.4.2.1002/avr32-gnu-toolchain/bin/../lib/gcc/avr32/4.4.7/../../../../avr32/lib/ucr3fp\libc.a(lib_a-syscalls.o)
                0x8003a004                _init_startup
 .text._init_argv
                0x8003a006        0xa c:/program files (x86)/atmel/atmel toolchain/avr32 gcc/native/3.4.2.1002/avr32-gnu-toolchain/bin/../lib/gcc/avr32/4.4.7/../../../../avr32/lib/ucr3fp\libc.a(lib_a-syscalls.o)
                0x8003a006                _init_argv
 .text._exit    0x8003a010        0xa c:/program files (x86)/atmel/atmel toolchain/avr32 gcc/native/3.4.2.1002/avr32-gnu-toolchain/bin/../lib/gcc/avr32/4.4.7/../../../../avr32/lib/ucr3fp\libc.a(lib_a-syscalls.o)
                0x8003a010                _exit
 *fill*         0x8003a01a        0x2 d703d703
 .text._open    0x8003a01c       0x18 c:/program files (x86)/atmel/atmel toolchain/avr32 gcc/native/3.4.2.1002/avr32-gnu-toolchain/bin/../lib/gcc/avr32/4.4.7/../../../../avr32/lib/ucr3fp\libc.a(lib_a-syscalls.o)
                0x8003a01c                _open
 .text._close   0x8003a034       0x18 c:/program files (x86)/atmel/atmel toolchain/avr32 gcc/native/3.4.2.1002/avr32-gnu-toolchain/bin/../lib/gcc/avr32/4.4.7/../../../../avr32/lib/ucr3fp\libc.a(lib_a-syscalls.o)
                0x8003a034                _close
 .text._lseek   0x8003a04c       0x18 c:/program files (x86)/atmel/atmel toolchain/avr32 gcc/native/3.4.2.1002/avr32-gnu-toolchain/bin/../lib/gcc/avr32/4.4.7/../../../../avr32/lib/ucr3fp\libc.a(lib_a-syscalls.o)
                0x8003a04c                _lseek
 .text._read    0x8003a064       0x18 c:/program files (x86)/atmel/atmel toolchain/avr32 gcc/native/3.4.2.1002/avr32-gnu-toolchain/bin/../lib/gcc/avr32/4.4.7/../../../../avr32/lib/ucr3fp\libc.a(lib_a-syscalls.o)
 .text._write   0x8003a07c       0x18 c:/program files (x86)/atmel/atmel toolchain/avr32 gcc/native/3.4.2.1002/avr32-gnu-toolchain/bin/../lib/gcc/avr32/4.4.7/../../../../avr32/lib/ucr3fp\libc.a(lib_a-syscalls.o)
 .text.isatty   0x8003a094       0x18 c:/program files (x86)/atmel/atmel toolchain/avr32 gcc/native/3.4.2.1002/avr32-gnu-toolchain/bin/../lib/gcc/avr32/4.4.7/../../../../avr32/lib/ucr3fp\libc.a(lib_a-syscalls.o)
                0x8003a094                isatty
 .text._fstat_host
                0x8003a0ac       0x18 c:/program files (x86)/atmel/atmel toolchain/avr32 gcc/native/3.4.2.1002/avr32-gnu-toolchain/bin/../lib/gcc/avr32/4.4.7/../../../../avr32/lib/ucr3fp\libc.a(lib_a-syscalls.o)
                0x8003a0ac                _fstat_host
 .text._stat_host
                0x8003a0c4       0x18 c:/program files (x86)/atmel/atmel toolchain/avr32 gcc/native/3.4.2.1002/avr32-gnu-toolchain/bin/../lib/gcc/avr32/4.4.7/../../../../avr32/lib/ucr3fp\libc.a(lib_a-syscalls.o)
                0x8003a0c4                _stat_host
 .text._fstat   0x8003a0dc       0x50 c:/program files (x86)/atmel/atmel toolchain/avr32 gcc/native/3.4.2.1002/avr32-gnu-toolchain/bin/../lib/gcc/avr32/4.4.7/../../../../avr32/lib/ucr3fp\libc.a(lib_a-syscalls.o)
                0x8003a0dc                _fstat
 .text._stat    0x8003a12c       0x50 c:/program files (x86)/atmel/atmel toolchain/avr32 gcc/native/3.4.2.1002/avr32-gnu-toolchain/bin/../lib/gcc/avr32/4.4.7/../../../../avr32/lib/ucr3fp\libc.a(lib_a-syscalls.o)
                0x8003a12c                _stat
 .text._gettimeofday_host
                0x8003a17c       0x18 c:/program files (x86)/atmel/atmel toolchain/avr32 gcc/native/3.4.2.1002/avr32-gnu-toolchain/bin/../lib/gcc/avr32/4.4.7/../../../../avr32/lib/ucr3fp\libc.a(lib_a-syscalls.o)
                0x8003a17c                _gettimeofday_host
 .text._gettimeofday
                0x8003a194       0x24 c:/program files (x86)/atmel/atmel toolchain/avr32 gcc/native/3.4.2.1002/avr32-gnu-toolchain/bin/../lib/gcc/avr32/4.4.7/../../../../avr32/lib/ucr3fp\libc.a(lib_a-syscalls.o)
                0x8003a194                _gettimeofday
 .text._unlink  0x8003a1b8       0x18 c:/program files (x86)/atmel/atmel toolchain/avr32 gcc/native/3.4.2.1002/avr32-gnu-toolchain/bin/../lib/gcc/avr32/4.4.7/../../../../avr32/lib/ucr3fp\libc.a(lib_a-syscalls.o)
                0x8003a1b8                _unlink
 .text._system  0x8003a1d0       0x18 c:/program files (x86)/atmel/atmel toolchain/avr32 gcc/native/3.4.2.1002/avr32-gnu-toolchain/bin/../lib/gcc/avr32/4.4.7/../../../../avr32/lib/ucr3fp\libc.a(lib_a-syscalls.o)
                0x8003a1d0                _system
 .text._execve  0x8003a1e8        0x2 c:/program files (x86)/atmel/atmel toolchain/avr32 gcc/native/3.4.2.1002/avr32-gnu-toolchain/bin/../lib/gcc/avr32/4.4.7/../../../../avr32/lib/ucr3fp\libc.a(lib_a-syscalls.o)
                0x8003a1e8                _execve
 .text._fork    0x8003a1ea        0x2 c:/program files (x86)/atmel/atmel toolchain/avr32 gcc/native/3.4.2.1002/avr32-gnu-toolchain/bin/../lib/gcc/avr32/4.4.7/../../../../avr32/lib/ucr3fp\libc.a(lib_a-syscalls.o)
                0x8003a1ea                _fork
 .text._wait    0x8003a1ec        0x2 c:/program files (x86)/atmel/atmel toolchain/avr32 gcc/native/3.4.2.1002/avr32-gnu-toolchain/bin/../lib/gcc/avr32/4.4.7/../../../../avr32/lib/ucr3fp\libc.a(lib_a-syscalls.o)
                0x8003a1ec                _wait
 .text.sigfillset
                0x8003a1ee        0x2 c:/program files (x86)/atmel/atmel toolchain/avr32 gcc/native/3.4.2.1002/avr32-gnu-toolchain/bin/../lib/gcc/avr32/4.4.7/../../../../avr32/lib/ucr3fp\libc.a(lib_a-syscalls.o)
                0x8003a1ee                sigfillset
 .text.sigprocmask
                0x8003a1f0        0x2 c:/program files (x86)/atmel/atmel toolchain/avr32 gcc/native/3.4.2.1002/avr32-gnu-toolchain/bin/../lib/gcc/avr32/4.4.7/../../../../avr32/lib/ucr3fp\libc.a(lib_a-syscalls.o)
                0x8003a1f0                sigprocmask
 .text._fcntl   0x8003a1f2        0x2 c:/program files (x86)/atmel/atmel toolchain/avr32 gcc/native/3.4.2.1002/avr32-gnu-toolchain/bin/../lib/gcc/avr32/4.4.7/../../../../avr32/lib/ucr3fp\libc.a(lib_a-syscalls.o)
                0x8003a1f2                _fcntl
 .text._link    0x8003a1f4        0x2 c:/program files (x86)/atmel/atmel toolchain/avr32 gcc/native/3.4.2.1002/avr32-gnu-toolchain/bin/../lib/gcc/avr32/4.4.7/../../../../avr32/lib/ucr3fp\libc.a(lib_a-syscalls.o)
                0x8003a1f4                _link
 .text._kill    0x8003a1f6        0x2 c:/program files (x86)/atmel/atmel toolchain/avr32 gcc/native/3.4.2.1002/avr32-gnu-toolchain/bin/../lib/gcc/avr32/4.4.7/../../../../avr32/lib/ucr3fp\libc.a(lib_a-syscalls.o)
                0x8003a1f6                _kill
 .text._getpid  0x8003a1f8        0x2 c:/program files (x86)/atmel/atmel toolchain/avr32 gcc/native/3.4.2.1002/avr32-gnu-toolchain/bin/../lib/gcc/avr32/4.4.7/../../../../avr32/lib/ucr3fp\libc.a(lib_a-syscalls.o)
                0x8003a1f8                _getpid
 *fill*         0x8003a1fa        0x2 d703d703
 .text._sbrk    0x8003a1fc       0x40 c:/program files (x86)/atmel/atmel toolchain/avr32 gcc/native/3.4.2.1002/avr32-gnu-toolchain/bin/../lib/gcc/avr32/4.4.7/../../../../avr32/lib/ucr3fp\libc.a(lib_a-syscalls.o)
                0x8003a1fc                _sbrk
 .text._times   0x8003a23c       0x12 c:/program files (x86)/atmel/atmel toolchain/avr32 gcc/native/3.4.2.1002/avr32-gnu-toolchain/bin/../lib/gcc/avr32/4.4.7/../../../../avr32/lib/ucr3fp\libc.a(lib_a-syscalls.o)
                0x8003a23c                _times
 .text          0x8003a24e        0x0 c:/program files (x86)/atmel/atmel toolchain/avr32 gcc/native/3.4.2.1002/avr32-gnu-toolchain/bin/../lib/gcc/avr32/4.4.7/../../../../avr32/lib/ucr3fp\libc.a(lib_a-vfprintf.o)
 *fill*         0x8003a24e        0x2 d703d703
 .text.get_arg  0x8003a250      0x324 c:/program files (x86)/atmel/atmel toolchain/avr32 gcc/native/3.4.2.1002/avr32-gnu-toolchain/bin/../lib/gcc/avr32/4.4.7/../../../../avr32/lib/ucr3fp\libc.a(lib_a-vfprintf.o)
 .text.__sprint_r
                0x8003a574       0x20 c:/program files (x86)/atmel/atmel toolchain/avr32 gcc/native/3.4.2.1002/avr32-gnu-toolchain/bin/../lib/gcc/avr32/4.4.7/../../../../avr32/lib/ucr3fp\libc.a(lib_a-vfprintf.o)
 .text._vfprintf_r
                0x8003a594     0x1f9c c:/program files (x86)/atmel/atmel toolchain/avr32 gcc/native/3.4.2.1002/avr32-gnu-toolchain/bin/../lib/gcc/avr32/4.4.7/../../../../avr32/lib/ucr3fp\libc.a(lib_a-vfprintf.o)
                0x8003a594                _vfprintf_r
 .text.vfprintf
                0x8003c530       0x1c c:/program files (x86)/atmel/atmel toolchain/avr32 gcc/native/3.4.2.1002/avr32-gnu-toolchain/bin/../lib/gcc/avr32/4.4.7/../../../../avr32/lib/ucr3fp\libc.a(lib_a-vfprintf.o)
                0x8003c530                vfprintf
 .text          0x8003c54c        0x0 c:/program files (x86)/atmel/atmel toolchain/avr32 gcc/native/3.4.2.1002/avr32-gnu-toolchain/bin/../lib/gcc/avr32/4.4.7/../../../../avr32/lib/ucr3fp\libc.a(lib_a-wsetup.o)
 .text.__swsetup_r
                0x8003c54c       0xe8 c:/program files (x86)/atmel/atmel toolchain/avr32 gcc/native/3.4.2.1002/avr32-gnu-toolchain/bin/../lib/gcc/avr32/4.4.7/../../../../avr32/lib/ucr3fp\libc.a(lib_a-wsetup.o)
                0x8003c54c                __swsetup_r
 .text          0x8003c634        0x0 c:/program files (x86)/atmel/atmel toolchain/avr32 gcc/native/3.4.2.1002/avr32-gnu-toolchain/bin/../lib/gcc/avr32/4.4.7/../../../../avr32/lib/ucr3fp\libc.a(lib_a-dtoa.o)
 .text.quorem   0x8003c634      0x124 c:/program files (x86)/atmel/atmel toolchain/avr32 gcc/native/3.4.2.1002/avr32-gnu-toolchain/bin/../lib/gcc/avr32/4.4.7/../../../../avr32/lib/ucr3fp\libc.a(lib_a-dtoa.o)
 .text._dtoa_r  0x8003c758      0xc90 c:/program files (x86)/atmel/atmel toolchain/avr32 gcc/native/3.4.2.1002/avr32-gnu-toolchain/bin/../lib/gcc/avr32/4.4.7/../../../../avr32/lib/ucr3fp\libc.a(lib_a-dtoa.o)
                0x8003c758                _dtoa_r
 .text          0x8003d3e8        0x0 c:/program files (x86)/atmel/atmel toolchain/avr32 gcc/native/3.4.2.1002/avr32-gnu-toolchain/bin/../lib/gcc/avr32/4.4.7/../../../../avr32/lib/ucr3fp\libc.a(lib_a-fflush.o)
 .text._fflush_r
                0x8003d3e8      0x118 c:/program files (x86)/atmel/atmel toolchain/avr32 gcc/native/3.4.2.1002/avr32-gnu-toolchain/bin/../lib/gcc/avr32/4.4.7/../../../../avr32/lib/ucr3fp\libc.a(lib_a-fflush.o)
                0x8003d3e8                _fflush_r
 .text.fflush   0x8003d500       0x30 c:/program files (x86)/atmel/atmel toolchain/avr32 gcc/native/3.4.2.1002/avr32-gnu-toolchain/bin/../lib/gcc/avr32/4.4.7/../../../../avr32/lib/ucr3fp\libc.a(lib_a-fflush.o)
                0x8003d500                fflush
 .text          0x8003d530        0x0 c:/program files (x86)/atmel/atmel toolchain/avr32 gcc/native/3.4.2.1002/avr32-gnu-toolchain/bin/../lib/gcc/avr32/4.4.7/../../../../avr32/lib/ucr3fp\libc.a(lib_a-findfp.o)
 .text.__sfp_lock_acquire
                0x8003d530        0x2 c:/program files (x86)/atmel/atmel toolchain/avr32 gcc/native/3.4.2.1002/avr32-gnu-toolchain/bin/../lib/gcc/avr32/4.4.7/../../../../avr32/lib/ucr3fp\libc.a(lib_a-findfp.o)
                0x8003d530                __sfp_lock_acquire
 .text.__sfp_lock_release
                0x8003d532        0x2 c:/program files (x86)/atmel/atmel toolchain/avr32 gcc/native/3.4.2.1002/avr32-gnu-toolchain/bin/../lib/gcc/avr32/4.4.7/../../../../avr32/lib/ucr3fp\libc.a(lib_a-findfp.o)
                0x8003d532                __sfp_lock_release
 .text.__sinit_lock_acquire
                0x8003d534        0x2 c:/program files (x86)/atmel/atmel toolchain/avr32 gcc/native/3.4.2.1002/avr32-gnu-toolchain/bin/../lib/gcc/avr32/4.4.7/../../../../avr32/lib/ucr3fp\libc.a(lib_a-findfp.o)
                0x8003d534                __sinit_lock_acquire
 .text.__sinit_lock_release
                0x8003d536        0x2 c:/program files (x86)/atmel/atmel toolchain/avr32 gcc/native/3.4.2.1002/avr32-gnu-toolchain/bin/../lib/gcc/avr32/4.4.7/../../../../avr32/lib/ucr3fp\libc.a(lib_a-findfp.o)
                0x8003d536                __sinit_lock_release
 .text.__fp_lock
                0x8003d538        0x2 c:/program files (x86)/atmel/atmel toolchain/avr32 gcc/native/3.4.2.1002/avr32-gnu-toolchain/bin/../lib/gcc/avr32/4.4.7/../../../../avr32/lib/ucr3fp\libc.a(lib_a-findfp.o)
 .text.__fp_unlock
                0x8003d53a        0x2 c:/program files (x86)/atmel/atmel toolchain/avr32 gcc/native/3.4.2.1002/avr32-gnu-toolchain/bin/../lib/gcc/avr32/4.4.7/../../../../avr32/lib/ucr3fp\libc.a(lib_a-findfp.o)
 .text.__fp_unlock_all
                0x8003d53c       0x1c c:/program files (x86)/atmel/atmel toolchain/avr32 gcc/native/3.4.2.1002/avr32-gnu-toolchain/bin/../lib/gcc/avr32/4.4.7/../../../../avr32/lib/ucr3fp\libc.a(lib_a-findfp.o)
                0x8003d53c                __fp_unlock_all
 .text.__fp_lock_all
                0x8003d558       0x1c c:/program files (x86)/atmel/atmel toolchain/avr32 gcc/native/3.4.2.1002/avr32-gnu-toolchain/bin/../lib/gcc/avr32/4.4.7/../../../../avr32/lib/ucr3fp\libc.a(lib_a-findfp.o)
                0x8003d558                __fp_lock_all
 .text._cleanup_r
                0x8003d574       0x14 c:/program files (x86)/atmel/atmel toolchain/avr32 gcc/native/3.4.2.1002/avr32-gnu-toolchain/bin/../lib/gcc/avr32/4.4.7/../../../../avr32/lib/ucr3fp\libc.a(lib_a-findfp.o)
                0x8003d574                _cleanup_r
 .text._cleanup
                0x8003d588       0x14 c:/program files (x86)/atmel/atmel toolchain/avr32 gcc/native/3.4.2.1002/avr32-gnu-toolchain/bin/../lib/gcc/avr32/4.4.7/../../../../avr32/lib/ucr3fp\libc.a(lib_a-findfp.o)
                0x8003d588                _cleanup
 .text.__sfmoreglue
                0x8003d59c       0x30 c:/program files (x86)/atmel/atmel toolchain/avr32 gcc/native/3.4.2.1002/avr32-gnu-toolchain/bin/../lib/gcc/avr32/4.4.7/../../../../avr32/lib/ucr3fp\libc.a(lib_a-findfp.o)
                0x8003d59c                __sfmoreglue
 .text.__sfp    0x8003d5cc       0x7c c:/program files (x86)/atmel/atmel toolchain/avr32 gcc/native/3.4.2.1002/avr32-gnu-toolchain/bin/../lib/gcc/avr32/4.4.7/../../../../avr32/lib/ucr3fp\libc.a(lib_a-findfp.o)
                0x8003d5cc                __sfp
 .text.__sinit  0x8003d648       0xb0 c:/program files (x86)/atmel/atmel toolchain/avr32 gcc/native/3.4.2.1002/avr32-gnu-toolchain/bin/../lib/gcc/avr32/4.4.7/../../../../avr32/lib/ucr3fp\libc.a(lib_a-findfp.o)
                0x8003d648                __sinit
 .text          0x8003d6f8        0x0 c:/program files (x86)/atmel/atmel toolchain/avr32 gcc/native/3.4.2.1002/avr32-gnu-toolchain/bin/../lib/gcc/avr32/4.4.7/../../../../avr32/lib/ucr3fp\libc.a(lib_a-freer.o)
 .text._malloc_trim_r
                0x8003d6f8       0xa8 c:/program files (x86)/atmel/atmel toolchain/avr32 gcc/native/3.4.2.1002/avr32-gnu-toolchain/bin/../lib/gcc/avr32/4.4.7/../../../../avr32/lib/ucr3fp\libc.a(lib_a-freer.o)
                0x8003d6f8                _malloc_trim_r
 .text._free_r  0x8003d7a0      0x1a0 c:/program files (x86)/atmel/atmel toolchain/avr32 gcc/native/3.4.2.1002/avr32-gnu-toolchain/bin/../lib/gcc/avr32/4.4.7/../../../../avr32/lib/ucr3fp\libc.a(lib_a-freer.o)
                0x8003d7a0                _free_r
 .text          0x8003d940        0x0 c:/program files (x86)/atmel/atmel toolchain/avr32 gcc/native/3.4.2.1002/avr32-gnu-toolchain/bin/../lib/gcc/avr32/4.4.7/../../../../avr32/lib/ucr3fp\libc.a(lib_a-fvwrite.o)
 .text.__sfvwrite_r
                0x8003d940      0x2c4 c:/program files (x86)/atmel/atmel toolchain/avr32 gcc/native/3.4.2.1002/avr32-gnu-toolchain/bin/../lib/gcc/avr32/4.4.7/../../../../avr32/lib/ucr3fp\libc.a(lib_a-fvwrite.o)
                0x8003d940                __sfvwrite_r
 .text          0x8003dc04        0x0 c:/program files (x86)/atmel/atmel toolchain/avr32 gcc/native/3.4.2.1002/avr32-gnu-toolchain/bin/../lib/gcc/avr32/4.4.7/../../../../avr32/lib/ucr3fp\libc.a(lib_a-fwalk.o)
 .text._fwalk_reent
                0x8003dc04       0x58 c:/program files (x86)/atmel/atmel toolchain/avr32 gcc/native/3.4.2.1002/avr32-gnu-toolchain/bin/../lib/gcc/avr32/4.4.7/../../../../avr32/lib/ucr3fp\libc.a(lib_a-fwalk.o)
                0x8003dc04                _fwalk_reent
 .text._fwalk   0x8003dc5c       0x54 c:/program files (x86)/atmel/atmel toolchain/avr32 gcc/native/3.4.2.1002/avr32-gnu-toolchain/bin/../lib/gcc/avr32/4.4.7/../../../../avr32/lib/ucr3fp\libc.a(lib_a-fwalk.o)
                0x8003dc5c                _fwalk
 .text          0x8003dcb0        0x0 c:/program files (x86)/atmel/atmel toolchain/avr32 gcc/native/3.4.2.1002/avr32-gnu-toolchain/bin/../lib/gcc/avr32/4.4.7/../../../../avr32/lib/ucr3fp\libc.a(lib_a-locale.o)
 .text.__locale_charset
                0x8003dcb0        0xc c:/program files (x86)/atmel/atmel toolchain/avr32 gcc/native/3.4.2.1002/avr32-gnu-toolchain/bin/../lib/gcc/avr32/4.4.7/../../../../avr32/lib/ucr3fp\libc.a(lib_a-locale.o)
                0x8003dcb0                __locale_charset
 .text._localeconv_r
                0x8003dcbc        0x8 c:/program files (x86)/atmel/atmel toolchain/avr32 gcc/native/3.4.2.1002/avr32-gnu-toolchain/bin/../lib/gcc/avr32/4.4.7/../../../../avr32/lib/ucr3fp\libc.a(lib_a-locale.o)
                0x8003dcbc                _localeconv_r
 .text.localeconv
                0x8003dcc4        0x8 c:/program files (x86)/atmel/atmel toolchain/avr32 gcc/native/3.4.2.1002/avr32-gnu-toolchain/bin/../lib/gcc/avr32/4.4.7/../../../../avr32/lib/ucr3fp\libc.a(lib_a-locale.o)
                0x8003dcc4                localeconv
 .text._setlocale_r
                0x8003dccc       0x3c c:/program files (x86)/atmel/atmel toolchain/avr32 gcc/native/3.4.2.1002/avr32-gnu-toolchain/bin/../lib/gcc/avr32/4.4.7/../../../../avr32/lib/ucr3fp\libc.a(lib_a-locale.o)
                0x8003dccc                _setlocale_r
 .text.setlocale
                0x8003dd08       0x18 c:/program files (x86)/atmel/atmel toolchain/avr32 gcc/native/3.4.2.1002/avr32-gnu-toolchain/bin/../lib/gcc/avr32/4.4.7/../../../../avr32/lib/ucr3fp\libc.a(lib_a-locale.o)
                0x8003dd08                setlocale
 .text          0x8003dd20        0x0 c:/program files (x86)/atmel/atmel toolchain/avr32 gcc/native/3.4.2.1002/avr32-gnu-toolchain/bin/../lib/gcc/avr32/4.4.7/../../../../avr32/lib/ucr3fp\libc.a(lib_a-makebuf.o)
 .text.__smakebuf_r
                0x8003dd20       0xcc c:/program files (x86)/atmel/atmel toolchain/avr32 gcc/native/3.4.2.1002/avr32-gnu-toolchain/bin/../lib/gcc/avr32/4.4.7/../../../../avr32/lib/ucr3fp\libc.a(lib_a-makebuf.o)
                0x8003dd20                __smakebuf_r
 .text          0x8003ddec        0x0 c:/program files (x86)/atmel/atmel toolchain/avr32 gcc/native/3.4.2.1002/avr32-gnu-toolchain/bin/../lib/gcc/avr32/4.4.7/../../../../avr32/lib/ucr3fp\libc.a(lib_a-memchr.o)
 .text.memchr   0x8003ddec       0x16 c:/program files (x86)/atmel/atmel toolchain/avr32 gcc/native/3.4.2.1002/avr32-gnu-toolchain/bin/../lib/gcc/avr32/4.4.7/../../../../avr32/lib/ucr3fp\libc.a(lib_a-memchr.o)
                0x8003ddec                memchr
 .text          0x8003de02        0x0 c:/program files (x86)/atmel/atmel toolchain/avr32 gcc/native/3.4.2.1002/avr32-gnu-toolchain/bin/../lib/gcc/avr32/4.4.7/../../../../avr32/lib/ucr3fp\libc.a(lib_a-memmove.o)
 .text.memmove  0x8003de02       0x3e c:/program files (x86)/atmel/atmel toolchain/avr32 gcc/native/3.4.2.1002/avr32-gnu-toolchain/bin/../lib/gcc/avr32/4.4.7/../../../../avr32/lib/ucr3fp\libc.a(lib_a-memmove.o)
                0x8003de02                memmove
 .text          0x8003de40        0x0 c:/program files (x86)/atmel/atmel toolchain/avr32 gcc/native/3.4.2.1002/avr32-gnu-toolchain/bin/../lib/gcc/avr32/4.4.7/../../../../avr32/lib/ucr3fp\libc.a(lib_a-mprec.o)
 .text.__hi0bits
                0x8003de40       0x60 c:/program files (x86)/atmel/atmel toolchain/avr32 gcc/native/3.4.2.1002/avr32-gnu-toolchain/bin/../lib/gcc/avr32/4.4.7/../../../../avr32/lib/ucr3fp\libc.a(lib_a-mprec.o)
                0x8003de40                __hi0bits
 .text.__lo0bits
                0x8003dea0       0x8e c:/program files (x86)/atmel/atmel toolchain/avr32 gcc/native/3.4.2.1002/avr32-gnu-toolchain/bin/../lib/gcc/avr32/4.4.7/../../../../avr32/lib/ucr3fp\libc.a(lib_a-mprec.o)
                0x8003dea0                __lo0bits
 .text.__mcmp   0x8003df2e       0x32 c:/program files (x86)/atmel/atmel toolchain/avr32 gcc/native/3.4.2.1002/avr32-gnu-toolchain/bin/../lib/gcc/avr32/4.4.7/../../../../avr32/lib/ucr3fp\libc.a(lib_a-mprec.o)
                0x8003df2e                __mcmp
 .text.__ulp    0x8003df60       0x48 c:/program files (x86)/atmel/atmel toolchain/avr32 gcc/native/3.4.2.1002/avr32-gnu-toolchain/bin/../lib/gcc/avr32/4.4.7/../../../../avr32/lib/ucr3fp\libc.a(lib_a-mprec.o)
                0x8003df60                __ulp
 .text.__b2d    0x8003dfa8       0xa0 c:/program files (x86)/atmel/atmel toolchain/avr32 gcc/native/3.4.2.1002/avr32-gnu-toolchain/bin/../lib/gcc/avr32/4.4.7/../../../../avr32/lib/ucr3fp\libc.a(lib_a-mprec.o)
                0x8003dfa8                __b2d
 .text.__ratio  0x8003e048       0x5c c:/program files (x86)/atmel/atmel toolchain/avr32 gcc/native/3.4.2.1002/avr32-gnu-toolchain/bin/../lib/gcc/avr32/4.4.7/../../../../avr32/lib/ucr3fp\libc.a(lib_a-mprec.o)
                0x8003e048                __ratio
 .text._mprec_log10
                0x8003e0a4       0x34 c:/program files (x86)/atmel/atmel toolchain/avr32 gcc/native/3.4.2.1002/avr32-gnu-toolchain/bin/../lib/gcc/avr32/4.4.7/../../../../avr32/lib/ucr3fp\libc.a(lib_a-mprec.o)
                0x8003e0a4                _mprec_log10
 .text.__copybits
                0x8003e0d8       0x2e c:/program files (x86)/atmel/atmel toolchain/avr32 gcc/native/3.4.2.1002/avr32-gnu-toolchain/bin/../lib/gcc/avr32/4.4.7/../../../../avr32/lib/ucr3fp\libc.a(lib_a-mprec.o)
                0x8003e0d8                __copybits
 .text.__any_on
                0x8003e106       0x4c c:/program files (x86)/atmel/atmel toolchain/avr32 gcc/native/3.4.2.1002/avr32-gnu-toolchain/bin/../lib/gcc/avr32/4.4.7/../../../../avr32/lib/ucr3fp\libc.a(lib_a-mprec.o)
                0x8003e106                __any_on
 *fill*         0x8003e152        0x2 d703d703
 .text._Bfree   0x8003e154       0x38 c:/program files (x86)/atmel/atmel toolchain/avr32 gcc/native/3.4.2.1002/avr32-gnu-toolchain/bin/../lib/gcc/avr32/4.4.7/../../../../avr32/lib/ucr3fp\libc.a(lib_a-mprec.o)
                0x8003e154                _Bfree
 .text._Balloc  0x8003e18c       0x78 c:/program files (x86)/atmel/atmel toolchain/avr32 gcc/native/3.4.2.1002/avr32-gnu-toolchain/bin/../lib/gcc/avr32/4.4.7/../../../../avr32/lib/ucr3fp\libc.a(lib_a-mprec.o)
                0x8003e18c                _Balloc
 .text.__d2b    0x8003e204       0xb4 c:/program files (x86)/atmel/atmel toolchain/avr32 gcc/native/3.4.2.1002/avr32-gnu-toolchain/bin/../lib/gcc/avr32/4.4.7/../../../../avr32/lib/ucr3fp\libc.a(lib_a-mprec.o)
                0x8003e204                __d2b
 .text.__mdiff  0x8003e2b8       0xd8 c:/program files (x86)/atmel/atmel toolchain/avr32 gcc/native/3.4.2.1002/avr32-gnu-toolchain/bin/../lib/gcc/avr32/4.4.7/../../../../avr32/lib/ucr3fp\libc.a(lib_a-mprec.o)
                0x8003e2b8                __mdiff
 .text.__lshift
                0x8003e390       0x94 c:/program files (x86)/atmel/atmel toolchain/avr32 gcc/native/3.4.2.1002/avr32-gnu-toolchain/bin/../lib/gcc/avr32/4.4.7/../../../../avr32/lib/ucr3fp\libc.a(lib_a-mprec.o)
                0x8003e390                __lshift
 .text.__multiply
                0x8003e424      0x108 c:/program files (x86)/atmel/atmel toolchain/avr32 gcc/native/3.4.2.1002/avr32-gnu-toolchain/bin/../lib/gcc/avr32/4.4.7/../../../../avr32/lib/ucr3fp\libc.a(lib_a-mprec.o)
                0x8003e424                __multiply
 .text.__i2b    0x8003e52c       0x18 c:/program files (x86)/atmel/atmel toolchain/avr32 gcc/native/3.4.2.1002/avr32-gnu-toolchain/bin/../lib/gcc/avr32/4.4.7/../../../../avr32/lib/ucr3fp\libc.a(lib_a-mprec.o)
                0x8003e52c                __i2b
 .text.__multadd
                0x8003e544       0x88 c:/program files (x86)/atmel/atmel toolchain/avr32 gcc/native/3.4.2.1002/avr32-gnu-toolchain/bin/../lib/gcc/avr32/4.4.7/../../../../avr32/lib/ucr3fp\libc.a(lib_a-mprec.o)
                0x8003e544                __multadd
 .text.__pow5mult
                0x8003e5cc       0xac c:/program files (x86)/atmel/atmel toolchain/avr32 gcc/native/3.4.2.1002/avr32-gnu-toolchain/bin/../lib/gcc/avr32/4.4.7/../../../../avr32/lib/ucr3fp\libc.a(lib_a-mprec.o)
                0x8003e5cc                __pow5mult
 .text.__s2b    0x8003e678       0x84 c:/program files (x86)/atmel/atmel toolchain/avr32 gcc/native/3.4.2.1002/avr32-gnu-toolchain/bin/../lib/gcc/avr32/4.4.7/../../../../avr32/lib/ucr3fp\libc.a(lib_a-mprec.o)
                0x8003e678                __s2b
 .text          0x8003e6fc        0x0 c:/program files (x86)/atmel/atmel toolchain/avr32 gcc/native/3.4.2.1002/avr32-gnu-toolchain/bin/../lib/gcc/avr32/4.4.7/../../../../avr32/lib/ucr3fp\libc.a(lib_a-reallocr.o)
 .text._realloc_r
                0x8003e6fc      0x2e0 c:/program files (x86)/atmel/atmel toolchain/avr32 gcc/native/3.4.2.1002/avr32-gnu-toolchain/bin/../lib/gcc/avr32/4.4.7/../../../../avr32/lib/ucr3fp\libc.a(lib_a-reallocr.o)
                0x8003e6fc                _realloc_r
 .text          0x8003e9dc        0x0 c:/program files (x86)/atmel/atmel toolchain/avr32 gcc/native/3.4.2.1002/avr32-gnu-toolchain/bin/../lib/gcc/avr32/4.4.7/../../../../avr32/lib/ucr3fp\libc.a(lib_a-reent.o)
 .text._wrapup_reent
                0x8003e9dc       0x3c c:/program files (x86)/atmel/atmel toolchain/avr32 gcc/native/3.4.2.1002/avr32-gnu-toolchain/bin/../lib/gcc/avr32/4.4.7/../../../../avr32/lib/ucr3fp\libc.a(lib_a-reent.o)
                0x8003e9dc                _wrapup_reent
 .text.cleanup_glue
                0x8003ea18       0x24 c:/program files (x86)/atmel/atmel toolchain/avr32 gcc/native/3.4.2.1002/avr32-gnu-toolchain/bin/../lib/gcc/avr32/4.4.7/../../../../avr32/lib/ucr3fp\libc.a(lib_a-reent.o)
                0x8003ea18                cleanup_glue
 .text._reclaim_reent
                0x8003ea3c       0xd4 c:/program files (x86)/atmel/atmel toolchain/avr32 gcc/native/3.4.2.1002/avr32-gnu-toolchain/bin/../lib/gcc/avr32/4.4.7/../../../../avr32/lib/ucr3fp\libc.a(lib_a-reent.o)
                0x8003ea3c                _reclaim_reent
 .text          0x8003eb10        0x0 c:/program files (x86)/atmel/atmel toolchain/avr32 gcc/native/3.4.2.1002/avr32-gnu-toolchain/bin/../lib/gcc/avr32/4.4.7/../../../../avr32/lib/ucr3fp\libc.a(lib_a-s_isinfd.o)
 .text.__isinfd
                0x8003eb10       0x2a c:/program files (x86)/atmel/atmel toolchain/avr32 gcc/native/3.4.2.1002/avr32-gnu-toolchain/bin/../lib/gcc/avr32/4.4.7/../../../../avr32/lib/ucr3fp\libc.a(lib_a-s_isinfd.o)
                0x8003eb10                __isinfd
 .text          0x8003eb3a        0x0 c:/program files (x86)/atmel/atmel toolchain/avr32 gcc/native/3.4.2.1002/avr32-gnu-toolchain/bin/../lib/gcc/avr32/4.4.7/../../../../avr32/lib/ucr3fp\libc.a(lib_a-stdio.o)
 *fill*         0x8003eb3a        0x2 d703d703
 .text.__sclose
                0x8003eb3c       0x10 c:/program files (x86)/atmel/atmel toolchain/avr32 gcc/native/3.4.2.1002/avr32-gnu-toolchain/bin/../lib/gcc/avr32/4.4.7/../../../../avr32/lib/ucr3fp\libc.a(lib_a-stdio.o)
                0x8003eb3c                __sclose
 .text.__sseek  0x8003eb4c       0x28 c:/program files (x86)/atmel/atmel toolchain/avr32 gcc/native/3.4.2.1002/avr32-gnu-toolchain/bin/../lib/gcc/avr32/4.4.7/../../../../avr32/lib/ucr3fp\libc.a(lib_a-stdio.o)
                0x8003eb4c                __sseek
 .text.__swrite
                0x8003eb74       0x38 c:/program files (x86)/atmel/atmel toolchain/avr32 gcc/native/3.4.2.1002/avr32-gnu-toolchain/bin/../lib/gcc/avr32/4.4.7/../../../../avr32/lib/ucr3fp\libc.a(lib_a-stdio.o)
                0x8003eb74                __swrite
 .text.__sread  0x8003ebac       0x24 c:/program files (x86)/atmel/atmel toolchain/avr32 gcc/native/3.4.2.1002/avr32-gnu-toolchain/bin/../lib/gcc/avr32/4.4.7/../../../../avr32/lib/ucr3fp\libc.a(lib_a-stdio.o)
                0x8003ebac                __sread
 .text          0x8003ebd0       0xa8 c:/program files (x86)/atmel/atmel toolchain/avr32 gcc/native/3.4.2.1002/avr32-gnu-toolchain/bin/../lib/gcc/avr32/4.4.7/../../../../avr32/lib/ucr3fp\libc.a(lib_a-strcmp.o)
                0x8003ebd0                strcmp
 .text          0x8003ec78        0x0 c:/program files (x86)/atmel/atmel toolchain/avr32 gcc/native/3.4.2.1002/avr32-gnu-toolchain/bin/../lib/gcc/avr32/4.4.7/../../../../avr32/lib/ucr3fp\libc.a(lib_a-writer.o)
 .text._write_r
                0x8003ec78       0x2c c:/program files (x86)/atmel/atmel toolchain/avr32 gcc/native/3.4.2.1002/avr32-gnu-toolchain/bin/../lib/gcc/avr32/4.4.7/../../../../avr32/lib/ucr3fp\libc.a(lib_a-writer.o)
                0x8003ec78                _write_r
 .text          0x8003eca4        0x0 c:/program files (x86)/atmel/atmel toolchain/avr32 gcc/native/3.4.2.1002/avr32-gnu-toolchain/bin/../lib/gcc/avr32/4.4.7/../../../../avr32/lib/ucr3fp\libc.a(lib_a-callocr.o)
 .text._calloc_r
                0x8003eca4       0x60 c:/program files (x86)/atmel/atmel toolchain/avr32 gcc/native/3.4.2.1002/avr32-gnu-toolchain/bin/../lib/gcc/avr32/4.4.7/../../../../avr32/lib/ucr3fp\libc.a(lib_a-callocr.o)
                0x8003eca4                _calloc_r
 .text          0x8003ed04        0x0 c:/program files (x86)/atmel/atmel toolchain/avr32 gcc/native/3.4.2.1002/avr32-gnu-toolchain/bin/../lib/gcc/avr32/4.4.7/../../../../avr32/lib/ucr3fp\libc.a(lib_a-closer.o)
 .text._close_r
                0x8003ed04       0x28 c:/program files (x86)/atmel/atmel toolchain/avr32 gcc/native/3.4.2.1002/avr32-gnu-toolchain/bin/../lib/gcc/avr32/4.4.7/../../../../avr32/lib/ucr3fp\libc.a(lib_a-closer.o)
                0x8003ed04                _close_r
 .text          0x8003ed2c        0x0 c:/program files (x86)/atmel/atmel toolchain/avr32 gcc/native/3.4.2.1002/avr32-gnu-toolchain/bin/../lib/gcc/avr32/4.4.7/../../../../avr32/lib/ucr3fp\libc.a(lib_a-fclose.o)
 .text._fclose_r
                0x8003ed2c       0xd0 c:/program files (x86)/atmel/atmel toolchain/avr32 gcc/native/3.4.2.1002/avr32-gnu-toolchain/bin/../lib/gcc/avr32/4.4.7/../../../../avr32/lib/ucr3fp\libc.a(lib_a-fclose.o)
                0x8003ed2c                _fclose_r
 .text.fclose   0x8003edfc       0x18 c:/program files (x86)/atmel/atmel toolchain/avr32 gcc/native/3.4.2.1002/avr32-gnu-toolchain/bin/../lib/gcc/avr32/4.4.7/../../../../avr32/lib/ucr3fp\libc.a(lib_a-fclose.o)
                0x8003edfc                fclose
 .text          0x8003ee14        0x0 c:/program files (x86)/atmel/atmel toolchain/avr32 gcc/native/3.4.2.1002/avr32-gnu-toolchain/bin/../lib/gcc/avr32/4.4.7/../../../../avr32/lib/ucr3fp\libc.a(lib_a-fstatr.o)
 .text._fstat_r
                0x8003ee14       0x2c c:/program files (x86)/atmel/atmel toolchain/avr32 gcc/native/3.4.2.1002/avr32-gnu-toolchain/bin/../lib/gcc/avr32/4.4.7/../../../../avr32/lib/ucr3fp\libc.a(lib_a-fstatr.o)
                0x8003ee14                _fstat_r
 .text          0x8003ee40        0x0 c:/program files (x86)/atmel/atmel toolchain/avr32 gcc/native/3.4.2.1002/avr32-gnu-toolchain/bin/../lib/gcc/avr32/4.4.7/../../../../avr32/lib/ucr3fp\libc.a(lib_a-lseekr.o)
 .text._lseek_r
                0x8003ee40       0x2c c:/program files (x86)/atmel/atmel toolchain/avr32 gcc/native/3.4.2.1002/avr32-gnu-toolchain/bin/../lib/gcc/avr32/4.4.7/../../../../avr32/lib/ucr3fp\libc.a(lib_a-lseekr.o)
                0x8003ee40                _lseek_r
 .text          0x8003ee6c        0x0 c:/program files (x86)/atmel/atmel toolchain/avr32 gcc/native/3.4.2.1002/avr32-gnu-toolchain/bin/../lib/gcc/avr32/4.4.7/../../../../avr32/lib/ucr3fp\libc.a(lib_a-readr.o)
 .text._read_r  0x8003ee6c       0x2c c:/program files (x86)/atmel/atmel toolchain/avr32 gcc/native/3.4.2.1002/avr32-gnu-toolchain/bin/../lib/gcc/avr32/4.4.7/../../../../avr32/lib/ucr3fp\libc.a(lib_a-readr.o)
                0x8003ee6c                _read_r
 *(.text.*personality*)
 *(.gnu.warning)

.exception      0x8003f000      0x200
 .exception     0x8003f000      0x200 src/asf/avr32/drivers/intc/exception.o
                0x8003f000                _evba
                0x8003f13c                ipr_val

.fini
 *(.fini)
                0x8003f200                PROVIDE (__etext, .)
                0x8003f200                PROVIDE (_etext, .)
                0x8003f200                PROVIDE (etext, .)

.rodata         0x8003f200     0x2c5c
 *(.rodata .rodata.* .gnu.linkonce.r.*)
 .rodata.str1.4
                0x8003f200      0x490 Library/communication/data_logging.o
                                0x49c (size before relaxing)
 .rodata.str1.4
                0x8003f690       0x1d Library/communication/hud.o
                                 0x20 (size before relaxing)
 *fill*         0x8003f6ad        0x3 
 .rodata.str1.4
                0x8003f6b0       0x6f Library/communication/mavlink_communication.o
                                 0x74 (size before relaxing)
 *fill*         0x8003f71f        0x1 
 .rodata.str1.4
                0x8003f720      0x16e Library/communication/mavlink_message_handler.o
                                0x178 (size before relaxing)
 *fill*         0x8003f88e        0x2 
 .rodata.str1.4
                0x8003f890      0x4a0 Library/communication/mavlink_waypoint_handler.o
                                0x4b0 (size before relaxing)
 .rodata.str1.4
                0x8003fd30       0x42 Library/communication/state.o
                                 0x4c (size before relaxing)
 *fill*         0x8003fd72        0x2 
 .rodata.str1.4
                0x8003fd74       0x33 Library/communication/state_machine.o
                                 0x34 (size before relaxing)
 *fill*         0x8003fda7        0x1 
 .rodata.str1.4
                0x8003fda8       0x34 Library/control/joystick_parsing.o
 .rodata.str1.4
                0x8003fddc       0x1d Library/control/stabilisation_copter.o
                                 0x20 (size before relaxing)
 *fill*         0x8003fdf9        0x3 
 .rodata.str1.4
                0x8003fdfc        0x6 Library/hal/analog_monitor.o
                                  0x8 (size before relaxing)
 *fill*         0x8003fe02        0x2 
 .rodata.str1.4
                0x8003fe04       0x13 Library/hal/fat_fs/ff.o
                                 0x14 (size before relaxing)
 *fill*         0x8003fe17        0x1 
 .rodata.str1.4
                0x8003fe18      0x561 Library/hal/gps_ublox.o
                                0x568 (size before relaxing)
 *fill*         0x80040379        0x3 
 .rodata.str1.4
                0x8004037c       0x58 Library/hal/hmc5883l.o
 .rodata.str1.4
                0x800403d4       0x46 Library/hal/i2c_driver_int.o
                                 0x4c (size before relaxing)
 *fill*         0x8004041a        0x2 
 .rodata.str1.4
                0x8004041c       0x47 Library/hal/lsm330dlc.o
                                 0x48 (size before relaxing)
 *fill*         0x80040463        0x1 
 .rodata.str1.4
                0x80040464      0x335 Library/hal/sd_spi.o
                                0x340 (size before relaxing)
 *fill*         0x80040799        0x3 
 .rodata.str1.4
                0x8004079c       0x22 Library/hal/servos.o
                                 0x24 (size before relaxing)
 *fill*         0x800407be        0x2 
 .rodata.str1.4
                0x800407c0       0x26 Library/hal/sonar_i2cxl.o
                                 0x28 (size before relaxing)
 *fill*         0x800407e6        0x2 
 .rodata.str1.4
                0x800407e8       0x36 Library/hal/spektrum_satellite.o
                                 0x38 (size before relaxing)
 *fill*         0x8004081e        0x2 
 .rodata.str1.4
                0x80040820       0xf3 Library/sensing/position_estimation.o
                                0x118 (size before relaxing)
 *fill*         0x80040913        0x1 
 .rodata.str1.4
                0x80040914       0x19 Library/sensing/qfilter.o
                                 0x1c (size before relaxing)
 *fill*         0x8004092d        0x3 
 .rodata.str1.4
                0x80040930       0x57 Library/util/linear_algebra.o
                                 0x58 (size before relaxing)
 *fill*         0x80040987        0x1 
 .rodata.str1.4
                0x80040988       0x52 Private_Library/neighbor_selection.o
                                 0x54 (size before relaxing)
 *fill*         0x800409da        0x2 
 .rodata.str1.4
                0x800409dc       0x67 Private_Library/orca.o
                                 0x74 (size before relaxing)
 *fill*         0x80040a43        0x1 
 .rodata.str1.4
                0x80040a44      0x4f5 src/mavlink_telemetry.o
                                0x4f8 (size before relaxing)
 *fill*         0x80040f39        0x3 
 .rodata.str1.4
                0x80040f3c      0x226 Library/communication/onboard_parameters.o
                                0x22c (size before relaxing)
 *fill*         0x80041162        0x2 
 .rodata.str1.4
                0x80041164      0x1bf Library/control/navigation.o
                                0x1dc (size before relaxing)
 *fill*         0x80041323        0x1 
 .rodata.str1.4
                0x80041324       0x16 Library/control/stabilisation.o
                                 0x18 (size before relaxing)
 *fill*         0x8004133a        0x2 
 .rodata.str1.4
                0x8004133c       0x6f Library/hal/bmp085.o
                                 0x70 (size before relaxing)
 *fill*         0x800413ab        0x1 
 .rodata.str1.4
                0x800413ac       0x38 Library/hal/dac_dma.o
 .rodata.str1.4
                0x800413e4       0xf6 Library/runtime/scheduler.o
                                 0xf8 (size before relaxing)
 *fill*         0x800414da        0x2 
 .rodata.str1.4
                0x800414dc       0xb6 Library/sensing/simulation.o
                                0x124 (size before relaxing)
 *fill*         0x80041592        0x2 
 .rodata.str1.4
                0x80041594        0xc Library/util/print_util.o
                                 0x24 (size before relaxing)
 .rodata.str1.4
                0x800415a0        0xb src/asf/avr32/drivers/usart/usart.o
                                  0xc (size before relaxing)
 *fill*         0x800415ab        0x1 
 .rodata.str1.4
                0x800415ac       0x60 src/boardsupport.o
 .rodata.str1.4
                0x8004160c       0x13 src/main.o
                                 0x14 (size before relaxing)
 *fill*         0x8004161f        0x1 
 .rodata.str1.4
                0x80041620        0x5 c:/program files (x86)/atmel/atmel toolchain/avr32 gcc/native/3.4.2.1002/avr32-gnu-toolchain/bin/../lib/gcc/avr32/4.4.7/../../../../avr32/lib/ucr3fp\libm.a(lib_a-w_asin.o)
                                  0xc (size before relaxing)
 *fill*         0x80041625        0x3 
 .rodata.str1.4
                0x80041628        0x5 c:/program files (x86)/atmel/atmel toolchain/avr32 gcc/native/3.4.2.1002/avr32-gnu-toolchain/bin/../lib/gcc/avr32/4.4.7/../../../../avr32/lib/ucr3fp\libm.a(lib_a-w_fmod.o)
                                  0x8 (size before relaxing)
 *fill*         0x8004162d        0x3 
 .rodata.str1.4
                0x80041630        0x4 c:/program files (x86)/atmel/atmel toolchain/avr32 gcc/native/3.4.2.1002/avr32-gnu-toolchain/bin/../lib/gcc/avr32/4.4.7/../../../../avr32/lib/ucr3fp\libm.a(lib_a-w_pow.o)
 .rodata.str1.4
                0x80041634        0x5 c:/program files (x86)/atmel/atmel toolchain/avr32 gcc/native/3.4.2.1002/avr32-gnu-toolchain/bin/../lib/gcc/avr32/4.4.7/../../../../avr32/lib/ucr3fp\libm.a(lib_a-w_sqrt.o)
                                  0x8 (size before relaxing)
 *fill*         0x80041639        0x3 
 .rodata.str1.4
                0x8004163c        0x6 c:/program files (x86)/atmel/atmel toolchain/avr32 gcc/native/3.4.2.1002/avr32-gnu-toolchain/bin/../lib/gcc/avr32/4.4.7/../../../../avr32/lib/ucr3fp\libm.a(lib_a-wf_sqrt.o)
                                  0x8 (size before relaxing)
 *fill*         0x80041642        0x2 
 .rodata.Zero   0x80041644       0x10 c:/program files (x86)/atmel/atmel toolchain/avr32 gcc/native/3.4.2.1002/avr32-gnu-toolchain/bin/../lib/gcc/avr32/4.4.7/../../../../avr32/lib/ucr3fp\libm.a(lib_a-e_fmod.o)
 .rodata.dp_h   0x80041654       0x10 c:/program files (x86)/atmel/atmel toolchain/avr32 gcc/native/3.4.2.1002/avr32-gnu-toolchain/bin/../lib/gcc/avr32/4.4.7/../../../../avr32/lib/ucr3fp\libm.a(lib_a-e_pow.o)
 .rodata.dp_l   0x80041664       0x10 c:/program files (x86)/atmel/atmel toolchain/avr32 gcc/native/3.4.2.1002/avr32-gnu-toolchain/bin/../lib/gcc/avr32/4.4.7/../../../../avr32/lib/ucr3fp\libm.a(lib_a-e_pow.o)
 .rodata.bp     0x80041674       0x10 c:/program files (x86)/atmel/atmel toolchain/avr32 gcc/native/3.4.2.1002/avr32-gnu-toolchain/bin/../lib/gcc/avr32/4.4.7/../../../../avr32/lib/ucr3fp\libm.a(lib_a-e_pow.o)
 .rodata.str1.4
                0x00000000        0x4 c:/program files (x86)/atmel/atmel toolchain/avr32 gcc/native/3.4.2.1002/avr32-gnu-toolchain/bin/../lib/gcc/avr32/4.4.7/../../../../avr32/lib/ucr3fp\libm.a(lib_a-e_pow.o)
 .rodata.npio2_hw
                0x80041684       0x80 c:/program files (x86)/atmel/atmel toolchain/avr32 gcc/native/3.4.2.1002/avr32-gnu-toolchain/bin/../lib/gcc/avr32/4.4.7/../../../../avr32/lib/ucr3fp\libm.a(lib_a-e_rem_pio2.o)
 .rodata.two_over_pi
                0x80041704      0x108 c:/program files (x86)/atmel/atmel toolchain/avr32 gcc/native/3.4.2.1002/avr32-gnu-toolchain/bin/../lib/gcc/avr32/4.4.7/../../../../avr32/lib/ucr3fp\libm.a(lib_a-e_rem_pio2.o)
 .rodata.init_jk
                0x8004180c       0x10 c:/program files (x86)/atmel/atmel toolchain/avr32 gcc/native/3.4.2.1002/avr32-gnu-toolchain/bin/../lib/gcc/avr32/4.4.7/../../../../avr32/lib/ucr3fp\libm.a(lib_a-k_rem_pio2.o)
 .rodata.PIo2   0x8004181c       0x40 c:/program files (x86)/atmel/atmel toolchain/avr32 gcc/native/3.4.2.1002/avr32-gnu-toolchain/bin/../lib/gcc/avr32/4.4.7/../../../../avr32/lib/ucr3fp\libm.a(lib_a-k_rem_pio2.o)
 .rodata.atanlo
                0x8004185c       0x20 c:/program files (x86)/atmel/atmel toolchain/avr32 gcc/native/3.4.2.1002/avr32-gnu-toolchain/bin/../lib/gcc/avr32/4.4.7/../../../../avr32/lib/ucr3fp\libm.a(lib_a-s_atan.o)
 .rodata.atanhi
                0x8004187c       0x20 c:/program files (x86)/atmel/atmel toolchain/avr32 gcc/native/3.4.2.1002/avr32-gnu-toolchain/bin/../lib/gcc/avr32/4.4.7/../../../../avr32/lib/ucr3fp\libm.a(lib_a-s_atan.o)
 .rodata.TWO52  0x8004189c       0x10 c:/program files (x86)/atmel/atmel toolchain/avr32 gcc/native/3.4.2.1002/avr32-gnu-toolchain/bin/../lib/gcc/avr32/4.4.7/../../../../avr32/lib/ucr3fp\libm.a(lib_a-s_rint.o)
 .rodata.str1.4
                0x800418ac        0x2 c:/program files (x86)/atmel/atmel toolchain/avr32 gcc/native/3.4.2.1002/avr32-gnu-toolchain/bin/../lib/gcc/avr32/4.4.7/../../../../avr32/lib/ucr3fp\libc.a(lib_a-impure.o)
                                  0x4 (size before relaxing)
 *fill*         0x800418ae        0x2 
 .rodata._global_impure_ptr
                0x800418b0        0x4 c:/program files (x86)/atmel/atmel toolchain/avr32 gcc/native/3.4.2.1002/avr32-gnu-toolchain/bin/../lib/gcc/avr32/4.4.7/../../../../avr32/lib/ucr3fp\libc.a(lib_a-impure.o)
                0x800418b0                _global_impure_ptr
 .rodata.get_arg
                0x800418b4       0x3c c:/program files (x86)/atmel/atmel toolchain/avr32 gcc/native/3.4.2.1002/avr32-gnu-toolchain/bin/../lib/gcc/avr32/4.4.7/../../../../avr32/lib/ucr3fp\libc.a(lib_a-vfprintf.o)
 .rodata._vfprintf_r
                0x800418f0      0x164 c:/program files (x86)/atmel/atmel toolchain/avr32 gcc/native/3.4.2.1002/avr32-gnu-toolchain/bin/../lib/gcc/avr32/4.4.7/../../../../avr32/lib/ucr3fp\libc.a(lib_a-vfprintf.o)
 .rodata.state_table
                0x80041a54       0x6c c:/program files (x86)/atmel/atmel toolchain/avr32 gcc/native/3.4.2.1002/avr32-gnu-toolchain/bin/../lib/gcc/avr32/4.4.7/../../../../avr32/lib/ucr3fp\libc.a(lib_a-vfprintf.o)
 .rodata.action_table
                0x80041ac0       0x6c c:/program files (x86)/atmel/atmel toolchain/avr32 gcc/native/3.4.2.1002/avr32-gnu-toolchain/bin/../lib/gcc/avr32/4.4.7/../../../../avr32/lib/ucr3fp\libc.a(lib_a-vfprintf.o)
 .rodata.str1.4
                0x80041b2c       0x3a c:/program files (x86)/atmel/atmel toolchain/avr32 gcc/native/3.4.2.1002/avr32-gnu-toolchain/bin/../lib/gcc/avr32/4.4.7/../../../../avr32/lib/ucr3fp\libc.a(lib_a-vfprintf.o)
                                 0x3c (size before relaxing)
 *fill*         0x80041b66        0x2 
 .rodata.blanks.3430
                0x80041b68       0x10 c:/program files (x86)/atmel/atmel toolchain/avr32 gcc/native/3.4.2.1002/avr32-gnu-toolchain/bin/../lib/gcc/avr32/4.4.7/../../../../avr32/lib/ucr3fp\libc.a(lib_a-vfprintf.o)
 .rodata.zeroes.3431
                0x80041b78       0x10 c:/program files (x86)/atmel/atmel toolchain/avr32 gcc/native/3.4.2.1002/avr32-gnu-toolchain/bin/../lib/gcc/avr32/4.4.7/../../../../avr32/lib/ucr3fp\libc.a(lib_a-vfprintf.o)
 .rodata.chclass
                0x80041b88      0x100 c:/program files (x86)/atmel/atmel toolchain/avr32 gcc/native/3.4.2.1002/avr32-gnu-toolchain/bin/../lib/gcc/avr32/4.4.7/../../../../avr32/lib/ucr3fp\libc.a(lib_a-vfprintf.o)
 .rodata.str1.4
                0x80041c88       0x10 c:/program files (x86)/atmel/atmel toolchain/avr32 gcc/native/3.4.2.1002/avr32-gnu-toolchain/bin/../lib/gcc/avr32/4.4.7/../../../../avr32/lib/ucr3fp\libc.a(lib_a-dtoa.o)
                                 0x14 (size before relaxing)
 .rodata.__sf_fake_stdin
                0x80041c98       0x20 c:/program files (x86)/atmel/atmel toolchain/avr32 gcc/native/3.4.2.1002/avr32-gnu-toolchain/bin/../lib/gcc/avr32/4.4.7/../../../../avr32/lib/ucr3fp\libc.a(lib_a-findfp.o)
                0x80041c98                __sf_fake_stdin
 .rodata.__sf_fake_stdout
                0x80041cb8       0x20 c:/program files (x86)/atmel/atmel toolchain/avr32 gcc/native/3.4.2.1002/avr32-gnu-toolchain/bin/../lib/gcc/avr32/4.4.7/../../../../avr32/lib/ucr3fp\libc.a(lib_a-findfp.o)
                0x80041cb8                __sf_fake_stdout
 .rodata.__sf_fake_stderr
                0x80041cd8       0x20 c:/program files (x86)/atmel/atmel toolchain/avr32 gcc/native/3.4.2.1002/avr32-gnu-toolchain/bin/../lib/gcc/avr32/4.4.7/../../../../avr32/lib/ucr3fp\libc.a(lib_a-findfp.o)
                0x80041cd8                __sf_fake_stderr
 .rodata.charset
                0x80041cf8        0x4 c:/program files (x86)/atmel/atmel toolchain/avr32 gcc/native/3.4.2.1002/avr32-gnu-toolchain/bin/../lib/gcc/avr32/4.4.7/../../../../avr32/lib/ucr3fp\libc.a(lib_a-locale.o)
 .rodata.lconv  0x80041cfc       0x30 c:/program files (x86)/atmel/atmel toolchain/avr32 gcc/native/3.4.2.1002/avr32-gnu-toolchain/bin/../lib/gcc/avr32/4.4.7/../../../../avr32/lib/ucr3fp\libc.a(lib_a-locale.o)
 .rodata.str1.4
                0x80041d2c        0xc c:/program files (x86)/atmel/atmel toolchain/avr32 gcc/native/3.4.2.1002/avr32-gnu-toolchain/bin/../lib/gcc/avr32/4.4.7/../../../../avr32/lib/ucr3fp\libc.a(lib_a-locale.o)
                                 0x18 (size before relaxing)
 .rodata.p05.2471
                0x80041d38        0xc c:/program files (x86)/atmel/atmel toolchain/avr32 gcc/native/3.4.2.1002/avr32-gnu-toolchain/bin/../lib/gcc/avr32/4.4.7/../../../../avr32/lib/ucr3fp\libc.a(lib_a-mprec.o)
 .rodata.__mprec_tens
                0x80041d44       0xc8 c:/program files (x86)/atmel/atmel toolchain/avr32 gcc/native/3.4.2.1002/avr32-gnu-toolchain/bin/../lib/gcc/avr32/4.4.7/../../../../avr32/lib/ucr3fp\libc.a(lib_a-mprec.o)
                0x80041d44                __mprec_tens
 .rodata.__mprec_bigtens
                0x80041e0c       0x28 c:/program files (x86)/atmel/atmel toolchain/avr32 gcc/native/3.4.2.1002/avr32-gnu-toolchain/bin/../lib/gcc/avr32/4.4.7/../../../../avr32/lib/ucr3fp\libc.a(lib_a-mprec.o)
                0x80041e0c                __mprec_bigtens
 .rodata.__mprec_tinytens
                0x80041e34       0x28 c:/program files (x86)/atmel/atmel toolchain/avr32 gcc/native/3.4.2.1002/avr32-gnu-toolchain/bin/../lib/gcc/avr32/4.4.7/../../../../avr32/lib/ucr3fp\libc.a(lib_a-mprec.o)
                0x80041e34                __mprec_tinytens

.rodata1
 *(.rodata1)

.eh_frame_hdr
 *(.eh_frame_hdr)

.eh_frame
 *(.eh_frame)

.gcc_except_table
 *(.gcc_except_table)
 *(.gcc_except_table.*)

.dalign         0x80041e5c        0x4
                0x80041e60                . = ALIGN (0x8)
 *fill*         0x80041e5c        0x4 
                0x80041e60                PROVIDE (_data_lma, .)
                0x00000004                PROVIDE (_data, ORIGIN (CPUSRAM))
                0x00000004                . = ORIGIN (CPUSRAM)

.eh_frame
 *(.eh_frame)

.gcc_except_table
 *(.gcc_except_table)
 *(.gcc_except_table.*)

.tdata
 *(.tdata .tdata.* .gnu.linkonce.td.*)

.tbss
 *(.tbss .tbss.* .gnu.linkonce.tb.*)
 *(.tcommon)
                0x00000004                PROVIDE (__preinit_array_start, ALIGN (0x4))

.preinit_array
 *(.preinit_array)
                0x00000004                PROVIDE (__preinit_array_end, .)
                0x00000004                PROVIDE (__init_array_start, .)

.init_array
 *(.init_array)
                0x00000004                PROVIDE (__init_array_end, .)
                0x00000004                PROVIDE (__fini_array_start, .)

.fini_array
 *(.fini_array)
                0x00000004                PROVIDE (__fini_array_end, .)

.ctors
 *crtbegin*.o(.ctors)
 *(EXCLUDE_FILE(*crtend*.o) .ctors)
 *(SORT(.ctors.*))
 *(.ctors)

.dtors
 *crtbegin*.o(.dtors)
 *(EXCLUDE_FILE(*crtend*.o) .dtors)
 *(SORT(.dtors.*))
 *(.dtors)

.jcr
 *(.jcr)

.data.rel.ro    0x00000004      0x178 load address 0x80041e60
 *(.data.rel.ro.local)
 .data.rel.ro.local
                0x00000004      0x178 src/asf/avr32/drivers/intc/intc.o
 *(.data.rel.ro*)

.dynamic
 *(.dynamic)

.got            0x0000017c     0x126c load address 0x80041fd8
 *(.got.plt)
 *(.got)
 .got           0x0000017c     0x126c Library/communication/console.o
                0x0000017c                _GLOBAL_OFFSET_TABLE_

.data           0x000013e8     0x15b0 load address 0x80043244
 *(.data .data.* .gnu.linkonce.d.*)
 .data          0x000013e8        0xc Library/communication/console.o
 .data          0x000013f4       0x38 Library/communication/data_logging.o
 .data          0x0000142c        0x8 Library/communication/hud.o
 .data          0x00001434       0x10 Library/communication/mavlink_communication.o
 .data          0x00001444       0x18 Library/communication/mavlink_message_handler.o
 .data          0x0000145c       0x50 Library/communication/mavlink_waypoint_handler.o
 .data          0x000014ac       0x34 Library/communication/remote.o
 .data          0x000014e0       0x10 Library/communication/state.o
 .data          0x000014f0        0x8 Library/communication/state_machine.o
 .data          0x000014f8       0x14 Library/control/adaptive_parameter.o
 .data          0x0000150c        0x8 Library/control/attitude_controller_p2.o
 .data          0x00001514       0x14 Library/control/attitude_error_estimator.o
 .data          0x00001528       0x20 Library/control/joystick_parsing.o
 .data          0x00001548       0x10 Library/control/pid_control.o
 .data          0x00001558        0x8 Library/control/servos_mix_quadcopter_cross.o
 .data          0x00001560        0x8 Library/control/servos_mix_quadcopter_diag.o
 .data          0x00001568       0x14 Library/control/stabilisation_copter.o
 .data          0x0000157c       0x14 Library/hal/analog_monitor.o
 .data          0x00001590       0x18 Library/hal/fat_fs/diskio.o
 .data          0x000015a8       0x9c Library/hal/fat_fs/ff.o
 .data          0x00001644        0x8 Library/hal/fat_fs/option/ccsbcs.o
 .data          0x0000164c        0x8 Library/hal/fat_fs/option/syscall.o
 .data          0x00001654        0x0 Library/hal/fat_fs/option/unicode.o
 .data          0x00001654       0x20 Library/hal/gps_ublox.o
                0x00001670                num_skipped_msg
 .data.rel      0x00001674       0x58 Library/hal/gps_ublox.o
                0x00001674                ubx_current_pos_llh_message
                0x00001678                ubx_last_pos_llh_message
                0x0000167c                ubx_current_status_message
                0x00001680                ubx_last_status_message
                0x00001684                ubx_current_solution_message
                0x00001688                ubx_last_solution_message
                0x0000168c                ubx_current_vel_ned_message
                0x00001690                ubx_last_vel_ned_message
                0x00001694                ubx_current_sv_info_message
                0x00001698                ubx_last_sv_info_message
                0x0000169c                ubx_current_nav_settings_message
                0x000016a0                ubx_last_nav_settings_message
                0x000016a4                ubx_current_cfg_rate_message
                0x000016a8                ubx_last_cfg_rate_message
                0x000016ac                ubx_current_cfg_set_get_rate_message
                0x000016b0                ubx_last_cfg_set_get_rate_message
                0x000016b4                ubx_current_mon_rxr_message
                0x000016b8                ubx_last_mon_rxr_message
                0x000016bc                ubx_current_tim_tp_message
                0x000016c0                ubx_last_tim_tp_message
                0x000016c4                ubx_current_tim_vrfy_message
                0x000016c8                ubx_last_tim_vrfy_message
 .data          0x000016cc        0xc Library/hal/hmc5883l.o
 .data          0x000016d8       0x20 Library/hal/i2c_driver_int.o
 .data          0x000016f8        0xc Library/hal/lsm330dlc.o
 .data          0x00001704       0x20 Library/hal/piezo_speaker.o
 .data          0x00001724        0xc Library/hal/pwm_servos.o
 .data          0x00001730       0x4c Library/hal/sd_spi.o
 .data          0x0000177c       0x10 Library/hal/servos.o
 .data          0x0000178c       0x24 Library/hal/sonar_i2cxl.o
 .data          0x000017b0       0x20 Library/hal/spektrum_satellite.o
 .data          0x000017d0       0x20 Library/hal/time_keeper.o
 .data          0x000017f0       0x18 Library/hal/usb_int.o
 .data          0x00001808        0xc Library/hal/xbee.o
 .data          0x00001814        0xc Library/sensing/ahrs.o
 .data          0x00001820       0x1c Library/sensing/position_estimation.o
 .data          0x0000183c        0x8 Library/sensing/qfilter.o
 .data          0x00001844        0xc Library/util/linear_algebra.o
 .data          0x00001850       0x38 Library/util/matrixlib_float.o
 .data          0x00001888       0x18 Library/util/quick_trig.o
 .data          0x000018a0        0xc Private_Library/neighbor_selection.o
 .data          0x000018ac       0x10 Private_Library/orca.o
 .data          0x000018bc        0x8 src/central_data.o
 .data          0x000018c4        0xc src/mavlink_telemetry.o
 .data          0x000018d0       0x20 src/tasks.o
 .data          0x000018f0       0x10 Library/communication/mavlink_stream.o
 .data          0x00001900       0x2c Library/communication/onboard_parameters.o
 .data          0x0000192c       0x2c Library/control/navigation.o
 .data          0x00001958       0x14 Library/control/stabilisation.o
 .data          0x0000196c       0x4c Library/hal/adc_int.o
                0x00001998                adcifa
                0x0000199c                adc_config_options
                0x000019b0                adcifa_sequence_opt
 .data          0x000019b8       0x38 Library/hal/ads1274.o
                0x000019e4                waveform_opt
                0x000019ec                tc
 .data          0x000019f0       0x14 Library/hal/bmp085.o
 .data          0x00001a04       0x50 Library/hal/dac_dma.o
                0x00001a48                ppevc
                0x00001a4c                dacifb
                0x00001a50                dac_value_audio
                0x00001a52                dac_channel_audio
 .data          0x00001a54       0x34 Library/hal/led.o
 .data          0x00001a88       0x98 Library/hal/spi_buffered.o
 .data          0x00001b20       0x40 Library/hal/uart_int.o
 .data          0x00001b60       0x2c Library/runtime/scheduler.o
 .data          0x00001b8c       0x14 Library/sensing/imu.o
 .data          0x00001ba0       0x38 Library/sensing/simulation.o
 .data          0x00001bd8       0x28 Library/util/buffer.o
 .data          0x00001c00       0x14 Library/util/coord_conventions.o
 .data          0x00001c14       0x10 Library/util/generator.o
 .data          0x00001c24       0x48 Library/util/print_util.o
 .data          0x00001c6c       0x78 Library/util/sinus.o
                0x00001c6c                sin_table
 .data          0x00001ce4       0x34 src/asf/avr32/drivers/adcifa/adcifa.o
 .data          0x00001d18       0x4c src/asf/avr32/drivers/ast/ast.o
 .data          0x00001d64       0x1c src/asf/avr32/drivers/dacifb/dacifb.o
 .data          0x00001d80       0x38 src/asf/avr32/drivers/eic/eic.o
 .data          0x00001db8      0x104 src/asf/avr32/drivers/flashc/flashc.o
 .data.rel      0x00001ebc        0x4 src/asf/avr32/drivers/flashc/flashc.o
                0x00001ebc                flashc_wait_until_ready
 .data          0x00001ec0       0x84 src/asf/avr32/drivers/gpio/gpio.o
 .data          0x00001f44        0x0 src/asf/avr32/drivers/intc/exception.o
 .data          0x00001f44       0x10 src/asf/avr32/drivers/intc/intc.o
 .data          0x00001f54       0x50 src/asf/avr32/drivers/pdca/pdca.o
 .data          0x00001fa4       0x4c src/asf/avr32/drivers/pevc/pevc.o
 .data          0x00001ff0       0x1c src/asf/avr32/drivers/pm/pm_uc3c.o
 .data          0x0000200c       0x14 src/asf/avr32/drivers/pm/power_clocks_lib.o
 .data          0x00002020       0x6c src/asf/avr32/drivers/pwm/pwm4.o
 .data          0x0000208c       0xa4 src/asf/avr32/drivers/scif/scif_uc3c.o
 .data          0x00002130       0x48 src/asf/avr32/drivers/spi/spi.o
 .data          0x00002178       0x48 src/asf/avr32/drivers/tc/tc.o
 .data          0x000021c0       0x30 src/asf/avr32/drivers/twim/twim.o
 .data          0x000021f0       0x5c src/asf/avr32/drivers/usart/usart.o
 .data          0x0000224c       0x60 src/asf/avr32/drivers/usbc/usbc_device.o
 .data          0x000022ac        0x8 src/asf/avr32/services/delay/delay.o
 .data          0x000022b4        0x0 src/asf/avr32/utils/startup/startup_uc3.o
 .data          0x000022b4        0x0 src/asf/avr32/utils/startup/trampoline_uc3.o
 .data          0x000022b4        0x4 src/asf/common/boards/user_board/init.o
 .data          0x000022b8       0x20 src/asf/common/services/clock/uc3c/osc.o
 .data          0x000022d8        0xc src/asf/common/services/clock/uc3c/pll.o
 .data          0x000022e4       0x1c src/asf/common/services/clock/uc3c/sysclk.o
 .data          0x00002300        0x0 src/asf/common/services/sleepmgr/uc3/sleepmgr.o
 .data          0x00002300        0xc src/asf/common/services/spi/uc3_spi/spi_master.o
 .data          0x0000230c       0x6c src/asf/common/services/usb/class/cdc/device/udi_cdc.o
 .data.rel      0x00002378       0x28 src/asf/common/services/usb/class/cdc/device/udi_cdc.o
                0x00002378                udi_api_cdc_comm
                0x0000238c                udi_api_cdc_data
 .data          0x000023a0       0x58 src/asf/common/services/usb/class/cdc/device/udi_cdc_desc.o
                0x000023a0                udc_device_desc
                0x000023b4                udc_desc
 .data.rel      0x000023f8       0x18 src/asf/common/services/usb/class/cdc/device/udi_cdc_desc.o
                0x000023f8                udi_apis
                0x00002400                udc_config_fshs
                0x00002408                udc_config
 .data          0x00002410       0x44 src/asf/common/services/usb/udc/udc.o
 .data          0x00002454        0x4 src/asf/common/utils/stdio/read.o
 .data          0x00002458       0x18 src/asf/common/utils/stdio/stdio_usb/stdio_usb.o
 .data          0x00002470        0x4 src/asf/common/utils/stdio/write.o
 .data          0x00002474        0x4 src/boardsupport.o
 .data          0x00002478        0x8 src/main.o
 .data          0x00002480        0x0 c:/program files (x86)/atmel/atmel toolchain/avr32 gcc/native/3.4.2.1002/avr32-gnu-toolchain/bin/../lib/gcc/avr32/4.4.7/../../../../avr32/lib/ucr3fp\libm.a(lib_a-s_cos.o)
 .data          0x00002480        0x0 c:/program files (x86)/atmel/atmel toolchain/avr32 gcc/native/3.4.2.1002/avr32-gnu-toolchain/bin/../lib/gcc/avr32/4.4.7/../../../../avr32/lib/ucr3fp\libm.a(lib_a-s_floor.o)
 .data          0x00002480        0x0 c:/program files (x86)/atmel/atmel toolchain/avr32 gcc/native/3.4.2.1002/avr32-gnu-toolchain/bin/../lib/gcc/avr32/4.4.7/../../../../avr32/lib/ucr3fp\libm.a(lib_a-s_sin.o)
 .data          0x00002480        0x0 c:/program files (x86)/atmel/atmel toolchain/avr32 gcc/native/3.4.2.1002/avr32-gnu-toolchain/bin/../lib/gcc/avr32/4.4.7/../../../../avr32/lib/ucr3fp\libm.a(lib_a-w_asin.o)
 .data          0x00002480        0x0 c:/program files (x86)/atmel/atmel toolchain/avr32 gcc/native/3.4.2.1002/avr32-gnu-toolchain/bin/../lib/gcc/avr32/4.4.7/../../../../avr32/lib/ucr3fp\libm.a(lib_a-w_atan2.o)
 .data          0x00002480        0x0 c:/program files (x86)/atmel/atmel toolchain/avr32 gcc/native/3.4.2.1002/avr32-gnu-toolchain/bin/../lib/gcc/avr32/4.4.7/../../../../avr32/lib/ucr3fp\libm.a(lib_a-w_fmod.o)
 .data          0x00002480        0x0 c:/program files (x86)/atmel/atmel toolchain/avr32 gcc/native/3.4.2.1002/avr32-gnu-toolchain/bin/../lib/gcc/avr32/4.4.7/../../../../avr32/lib/ucr3fp\libm.a(lib_a-w_pow.o)
 .data          0x00002480        0x0 c:/program files (x86)/atmel/atmel toolchain/avr32 gcc/native/3.4.2.1002/avr32-gnu-toolchain/bin/../lib/gcc/avr32/4.4.7/../../../../avr32/lib/ucr3fp\libm.a(lib_a-w_sqrt.o)
 .data          0x00002480        0x0 c:/program files (x86)/atmel/atmel toolchain/avr32 gcc/native/3.4.2.1002/avr32-gnu-toolchain/bin/../lib/gcc/avr32/4.4.7/../../../../avr32/lib/ucr3fp\libm.a(lib_a-wf_sqrt.o)
 .data          0x00002480        0x0 c:/program files (x86)/atmel/atmel toolchain/avr32 gcc/native/3.4.2.1002/avr32-gnu-toolchain/bin/../lib/gcc/avr32/4.4.7/../../../../avr32/lib/ucr3fp\libm.a(lib_a-e_asin.o)
 .data          0x00002480        0x0 c:/program files (x86)/atmel/atmel toolchain/avr32 gcc/native/3.4.2.1002/avr32-gnu-toolchain/bin/../lib/gcc/avr32/4.4.7/../../../../avr32/lib/ucr3fp\libm.a(lib_a-e_atan2.o)
 .data          0x00002480        0x0 c:/program files (x86)/atmel/atmel toolchain/avr32 gcc/native/3.4.2.1002/avr32-gnu-toolchain/bin/../lib/gcc/avr32/4.4.7/../../../../avr32/lib/ucr3fp\libm.a(lib_a-e_fmod.o)
 .data          0x00002480        0x0 c:/program files (x86)/atmel/atmel toolchain/avr32 gcc/native/3.4.2.1002/avr32-gnu-toolchain/bin/../lib/gcc/avr32/4.4.7/../../../../avr32/lib/ucr3fp\libm.a(lib_a-e_pow.o)
 .data          0x00002480        0x0 c:/program files (x86)/atmel/atmel toolchain/avr32 gcc/native/3.4.2.1002/avr32-gnu-toolchain/bin/../lib/gcc/avr32/4.4.7/../../../../avr32/lib/ucr3fp\libm.a(lib_a-e_rem_pio2.o)
 .data          0x00002480        0x0 c:/program files (x86)/atmel/atmel toolchain/avr32 gcc/native/3.4.2.1002/avr32-gnu-toolchain/bin/../lib/gcc/avr32/4.4.7/../../../../avr32/lib/ucr3fp\libm.a(lib_a-e_sqrt.o)
 .data          0x00002480        0x0 c:/program files (x86)/atmel/atmel toolchain/avr32 gcc/native/3.4.2.1002/avr32-gnu-toolchain/bin/../lib/gcc/avr32/4.4.7/../../../../avr32/lib/ucr3fp\libm.a(lib_a-ef_sqrt.o)
 .data          0x00002480        0x0 c:/program files (x86)/atmel/atmel toolchain/avr32 gcc/native/3.4.2.1002/avr32-gnu-toolchain/bin/../lib/gcc/avr32/4.4.7/../../../../avr32/lib/ucr3fp\libm.a(lib_a-k_cos.o)
 .data          0x00002480        0x0 c:/program files (x86)/atmel/atmel toolchain/avr32 gcc/native/3.4.2.1002/avr32-gnu-toolchain/bin/../lib/gcc/avr32/4.4.7/../../../../avr32/lib/ucr3fp\libm.a(lib_a-k_rem_pio2.o)
 .data          0x00002480        0x0 c:/program files (x86)/atmel/atmel toolchain/avr32 gcc/native/3.4.2.1002/avr32-gnu-toolchain/bin/../lib/gcc/avr32/4.4.7/../../../../avr32/lib/ucr3fp\libm.a(lib_a-k_sin.o)
 .data          0x00002480        0x0 c:/program files (x86)/atmel/atmel toolchain/avr32 gcc/native/3.4.2.1002/avr32-gnu-toolchain/bin/../lib/gcc/avr32/4.4.7/../../../../avr32/lib/ucr3fp\libm.a(lib_a-s_atan.o)
 .data          0x00002480        0x0 c:/program files (x86)/atmel/atmel toolchain/avr32 gcc/native/3.4.2.1002/avr32-gnu-toolchain/bin/../lib/gcc/avr32/4.4.7/../../../../avr32/lib/ucr3fp\libm.a(lib_a-s_fabs.o)
 .data          0x00002480        0x0 c:/program files (x86)/atmel/atmel toolchain/avr32 gcc/native/3.4.2.1002/avr32-gnu-toolchain/bin/../lib/gcc/avr32/4.4.7/../../../../avr32/lib/ucr3fp\libm.a(lib_a-s_finite.o)
 .data          0x00002480        0x0 c:/program files (x86)/atmel/atmel toolchain/avr32 gcc/native/3.4.2.1002/avr32-gnu-toolchain/bin/../lib/gcc/avr32/4.4.7/../../../../avr32/lib/ucr3fp\libm.a(lib_a-s_isnand.o)
 .data          0x00002480        0x0 c:/program files (x86)/atmel/atmel toolchain/avr32 gcc/native/3.4.2.1002/avr32-gnu-toolchain/bin/../lib/gcc/avr32/4.4.7/../../../../avr32/lib/ucr3fp\libm.a(lib_a-s_lib_ver.o)
 .data.__fdlib_version
                0x00002480        0x4 c:/program files (x86)/atmel/atmel toolchain/avr32 gcc/native/3.4.2.1002/avr32-gnu-toolchain/bin/../lib/gcc/avr32/4.4.7/../../../../avr32/lib/ucr3fp\libm.a(lib_a-s_lib_ver.o)
                0x00002480                __fdlib_version
 .data          0x00002484        0x0 c:/program files (x86)/atmel/atmel toolchain/avr32 gcc/native/3.4.2.1002/avr32-gnu-toolchain/bin/../lib/gcc/avr32/4.4.7/../../../../avr32/lib/ucr3fp\libm.a(lib_a-s_matherr.o)
 .data          0x00002484        0x0 c:/program files (x86)/atmel/atmel toolchain/avr32 gcc/native/3.4.2.1002/avr32-gnu-toolchain/bin/../lib/gcc/avr32/4.4.7/../../../../avr32/lib/ucr3fp\libm.a(lib_a-s_nan.o)
 .data          0x00002484        0x0 c:/program files (x86)/atmel/atmel toolchain/avr32 gcc/native/3.4.2.1002/avr32-gnu-toolchain/bin/../lib/gcc/avr32/4.4.7/../../../../avr32/lib/ucr3fp\libm.a(lib_a-s_rint.o)
 .data          0x00002484        0x0 c:/program files (x86)/atmel/atmel toolchain/avr32 gcc/native/3.4.2.1002/avr32-gnu-toolchain/bin/../lib/gcc/avr32/4.4.7/../../../../avr32/lib/ucr3fp\libm.a(lib_a-s_scalbn.o)
 .data          0x00002484        0x0 c:/program files (x86)/atmel/atmel toolchain/avr32 gcc/native/3.4.2.1002/avr32-gnu-toolchain/bin/../lib/gcc/avr32/4.4.7/../../../../avr32/lib/ucr3fp\libm.a(lib_a-sf_isnan.o)
 .data          0x00002484        0x0 c:/program files (x86)/atmel/atmel toolchain/avr32 gcc/native/3.4.2.1002/avr32-gnu-toolchain/bin/../lib/gcc/avr32/4.4.7/../../../../avr32/lib/ucr3fp\libm.a(lib_a-s_copysign.o)
 .data          0x00002484        0x0 c:/program files (x86)/atmel/atmel toolchain/avr32 gcc/native/3.4.2.1002/avr32-gnu-toolchain/bin/../lib/gcc/avr32/4.4.7/ucr3fp\libgcc.a(_avr32_f64_mul.o)
 .data          0x00002484        0x0 c:/program files (x86)/atmel/atmel toolchain/avr32 gcc/native/3.4.2.1002/avr32-gnu-toolchain/bin/../lib/gcc/avr32/4.4.7/ucr3fp\libgcc.a(_avr32_f64_addsub.o)
 .data          0x00002484        0x0 c:/program files (x86)/atmel/atmel toolchain/avr32 gcc/native/3.4.2.1002/avr32-gnu-toolchain/bin/../lib/gcc/avr32/4.4.7/ucr3fp\libgcc.a(_avr32_f64_to_s32.o)
 .data          0x00002484        0x0 c:/program files (x86)/atmel/atmel toolchain/avr32 gcc/native/3.4.2.1002/avr32-gnu-toolchain/bin/../lib/gcc/avr32/4.4.7/ucr3fp\libgcc.a(_avr32_f64_to_s64.o)
 .data          0x00002484        0x0 c:/program files (x86)/atmel/atmel toolchain/avr32 gcc/native/3.4.2.1002/avr32-gnu-toolchain/bin/../lib/gcc/avr32/4.4.7/ucr3fp\libgcc.a(_avr32_s32_to_f64.o)
 .data          0x00002484        0x0 c:/program files (x86)/atmel/atmel toolchain/avr32 gcc/native/3.4.2.1002/avr32-gnu-toolchain/bin/../lib/gcc/avr32/4.4.7/ucr3fp\libgcc.a(_avr32_f64_cmp_eq.o)
 .data          0x00002484        0x0 c:/program files (x86)/atmel/atmel toolchain/avr32 gcc/native/3.4.2.1002/avr32-gnu-toolchain/bin/../lib/gcc/avr32/4.4.7/ucr3fp\libgcc.a(_avr32_f64_cmp_ge.o)
 .data          0x00002484        0x0 c:/program files (x86)/atmel/atmel toolchain/avr32 gcc/native/3.4.2.1002/avr32-gnu-toolchain/bin/../lib/gcc/avr32/4.4.7/ucr3fp\libgcc.a(_avr32_f64_cmp_lt.o)
 .data          0x00002484        0x0 c:/program files (x86)/atmel/atmel toolchain/avr32 gcc/native/3.4.2.1002/avr32-gnu-toolchain/bin/../lib/gcc/avr32/4.4.7/ucr3fp\libgcc.a(_avr32_f32_cmp_lt.o)
 .data          0x00002484        0x0 c:/program files (x86)/atmel/atmel toolchain/avr32 gcc/native/3.4.2.1002/avr32-gnu-toolchain/bin/../lib/gcc/avr32/4.4.7/ucr3fp\libgcc.a(_avr32_f64_div.o)
 .data          0x00002484        0x0 c:/program files (x86)/atmel/atmel toolchain/avr32 gcc/native/3.4.2.1002/avr32-gnu-toolchain/bin/../lib/gcc/avr32/4.4.7/ucr3fp\libgcc.a(_avr32_f32_div.o)
 .data          0x00002484        0x0 c:/program files (x86)/atmel/atmel toolchain/avr32 gcc/native/3.4.2.1002/avr32-gnu-toolchain/bin/../lib/gcc/avr32/4.4.7/ucr3fp\libgcc.a(_avr32_f32_addsub.o)
 .data          0x00002484        0x0 c:/program files (x86)/atmel/atmel toolchain/avr32 gcc/native/3.4.2.1002/avr32-gnu-toolchain/bin/../lib/gcc/avr32/4.4.7/ucr3fp\libgcc.a(_avr32_f32_mul.o)
 .data          0x00002484        0x0 c:/program files (x86)/atmel/atmel toolchain/avr32 gcc/native/3.4.2.1002/avr32-gnu-toolchain/bin/../lib/gcc/avr32/4.4.7/ucr3fp\libgcc.a(_avr32_f32_to_f64.o)
 .data          0x00002484        0x0 c:/program files (x86)/atmel/atmel toolchain/avr32 gcc/native/3.4.2.1002/avr32-gnu-toolchain/bin/../lib/gcc/avr32/4.4.7/ucr3fp\libgcc.a(_avr32_f64_to_f32.o)
 .data          0x00002484        0x0 c:/program files (x86)/atmel/atmel toolchain/avr32 gcc/native/3.4.2.1002/avr32-gnu-toolchain/bin/../lib/gcc/avr32/4.4.7/ucr3fp\libgcc.a(_floatdidf.o)
 .data          0x00002484        0x0 c:/program files (x86)/atmel/atmel toolchain/avr32 gcc/native/3.4.2.1002/avr32-gnu-toolchain/bin/../lib/gcc/avr32/4.4.7/ucr3fp\libgcc.a(_divdi3.o)
 .data          0x00002484        0x0 c:/program files (x86)/atmel/atmel toolchain/avr32 gcc/native/3.4.2.1002/avr32-gnu-toolchain/bin/../lib/gcc/avr32/4.4.7/ucr3fp\libgcc.a(_moddi3.o)
 .data          0x00002484        0x0 c:/program files (x86)/atmel/atmel toolchain/avr32 gcc/native/3.4.2.1002/avr32-gnu-toolchain/bin/../lib/gcc/avr32/4.4.7/ucr3fp\libgcc.a(_udivdi3.o)
 .data          0x00002484        0x0 c:/program files (x86)/atmel/atmel toolchain/avr32 gcc/native/3.4.2.1002/avr32-gnu-toolchain/bin/../lib/gcc/avr32/4.4.7/ucr3fp\libgcc.a(_umoddi3.o)
 .data          0x00002484        0x0 c:/program files (x86)/atmel/atmel toolchain/avr32 gcc/native/3.4.2.1002/avr32-gnu-toolchain/bin/../lib/gcc/avr32/4.4.7/../../../../avr32/lib/ucr3fp\libc.a(lib_a-errno.o)
 .data          0x00002484        0x0 c:/program files (x86)/atmel/atmel toolchain/avr32 gcc/native/3.4.2.1002/avr32-gnu-toolchain/bin/../lib/gcc/avr32/4.4.7/../../../../avr32/lib/ucr3fp\libc.a(lib_a-impure.o)
 .data.impure_data
                0x00002484       0xf0 c:/program files (x86)/atmel/atmel toolchain/avr32 gcc/native/3.4.2.1002/avr32-gnu-toolchain/bin/../lib/gcc/avr32/4.4.7/../../../../avr32/lib/ucr3fp\libc.a(lib_a-impure.o)
 .data._impure_ptr
                0x00002574        0x4 c:/program files (x86)/atmel/atmel toolchain/avr32 gcc/native/3.4.2.1002/avr32-gnu-toolchain/bin/../lib/gcc/avr32/4.4.7/../../../../avr32/lib/ucr3fp\libc.a(lib_a-impure.o)
                0x00002574                _impure_ptr
 .data          0x00002578        0x0 c:/program files (x86)/atmel/atmel toolchain/avr32 gcc/native/3.4.2.1002/avr32-gnu-toolchain/bin/../lib/gcc/avr32/4.4.7/../../../../avr32/lib/ucr3fp\libc.a(lib_a-malloc.o)
 .data          0x00002578        0x0 c:/program files (x86)/atmel/atmel toolchain/avr32 gcc/native/3.4.2.1002/avr32-gnu-toolchain/bin/../lib/gcc/avr32/4.4.7/../../../../avr32/lib/ucr3fp\libc.a(lib_a-mallocr.o)
 .data.__malloc_av_
                0x00002578      0x408 c:/program files (x86)/atmel/atmel toolchain/avr32 gcc/native/3.4.2.1002/avr32-gnu-toolchain/bin/../lib/gcc/avr32/4.4.7/../../../../avr32/lib/ucr3fp\libc.a(lib_a-mallocr.o)
                0x00002578                __malloc_av_
 .data.__malloc_trim_threshold
                0x00002980        0x4 c:/program files (x86)/atmel/atmel toolchain/avr32 gcc/native/3.4.2.1002/avr32-gnu-toolchain/bin/../lib/gcc/avr32/4.4.7/../../../../avr32/lib/ucr3fp\libc.a(lib_a-mallocr.o)
                0x00002980                __malloc_trim_threshold
 .data.__malloc_sbrk_base
                0x00002984        0x4 c:/program files (x86)/atmel/atmel toolchain/avr32 gcc/native/3.4.2.1002/avr32-gnu-toolchain/bin/../lib/gcc/avr32/4.4.7/../../../../avr32/lib/ucr3fp\libc.a(lib_a-mallocr.o)
                0x00002984                __malloc_sbrk_base
 .data          0x00002988        0x0 c:/program files (x86)/atmel/atmel toolchain/avr32 gcc/native/3.4.2.1002/avr32-gnu-toolchain/bin/../lib/gcc/avr32/4.4.7/../../../../avr32/lib/ucr3fp\libc.a(lib_a-memcpy.o)
 .data          0x00002988        0x0 c:/program files (x86)/atmel/atmel toolchain/avr32 gcc/native/3.4.2.1002/avr32-gnu-toolchain/bin/../lib/gcc/avr32/4.4.7/../../../../avr32/lib/ucr3fp\libc.a(lib_a-memset.o)
 .data          0x00002988        0x0 c:/program files (x86)/atmel/atmel toolchain/avr32 gcc/native/3.4.2.1002/avr32-gnu-toolchain/bin/../lib/gcc/avr32/4.4.7/../../../../avr32/lib/ucr3fp\libc.a(lib_a-mlock.o)
 .data          0x00002988        0x0 c:/program files (x86)/atmel/atmel toolchain/avr32 gcc/native/3.4.2.1002/avr32-gnu-toolchain/bin/../lib/gcc/avr32/4.4.7/../../../../avr32/lib/ucr3fp\libc.a(lib_a-sbrkr.o)
 .data          0x00002988        0x0 c:/program files (x86)/atmel/atmel toolchain/avr32 gcc/native/3.4.2.1002/avr32-gnu-toolchain/bin/../lib/gcc/avr32/4.4.7/../../../../avr32/lib/ucr3fp\libc.a(lib_a-snprintf.o)
 .data          0x00002988        0x0 c:/program files (x86)/atmel/atmel toolchain/avr32 gcc/native/3.4.2.1002/avr32-gnu-toolchain/bin/../lib/gcc/avr32/4.4.7/../../../../avr32/lib/ucr3fp\libc.a(lib_a-strcpy.o)
 .data          0x00002988        0x0 c:/program files (x86)/atmel/atmel toolchain/avr32 gcc/native/3.4.2.1002/avr32-gnu-toolchain/bin/../lib/gcc/avr32/4.4.7/../../../../avr32/lib/ucr3fp\libc.a(lib_a-strlen.o)
 .data          0x00002988        0x0 c:/program files (x86)/atmel/atmel toolchain/avr32 gcc/native/3.4.2.1002/avr32-gnu-toolchain/bin/../lib/gcc/avr32/4.4.7/../../../../avr32/lib/ucr3fp\libc.a(lib_a-syscalls.o)
 .data          0x00002988        0x0 c:/program files (x86)/atmel/atmel toolchain/avr32 gcc/native/3.4.2.1002/avr32-gnu-toolchain/bin/../lib/gcc/avr32/4.4.7/../../../../avr32/lib/ucr3fp\libc.a(lib_a-vfprintf.o)
 .data          0x00002988        0x0 c:/program files (x86)/atmel/atmel toolchain/avr32 gcc/native/3.4.2.1002/avr32-gnu-toolchain/bin/../lib/gcc/avr32/4.4.7/../../../../avr32/lib/ucr3fp\libc.a(lib_a-wsetup.o)
 .data          0x00002988        0x0 c:/program files (x86)/atmel/atmel toolchain/avr32 gcc/native/3.4.2.1002/avr32-gnu-toolchain/bin/../lib/gcc/avr32/4.4.7/../../../../avr32/lib/ucr3fp\libc.a(lib_a-dtoa.o)
 .data          0x00002988        0x0 c:/program files (x86)/atmel/atmel toolchain/avr32 gcc/native/3.4.2.1002/avr32-gnu-toolchain/bin/../lib/gcc/avr32/4.4.7/../../../../avr32/lib/ucr3fp\libc.a(lib_a-fflush.o)
 .data          0x00002988        0x0 c:/program files (x86)/atmel/atmel toolchain/avr32 gcc/native/3.4.2.1002/avr32-gnu-toolchain/bin/../lib/gcc/avr32/4.4.7/../../../../avr32/lib/ucr3fp\libc.a(lib_a-findfp.o)
 .data          0x00002988        0x0 c:/program files (x86)/atmel/atmel toolchain/avr32 gcc/native/3.4.2.1002/avr32-gnu-toolchain/bin/../lib/gcc/avr32/4.4.7/../../../../avr32/lib/ucr3fp\libc.a(lib_a-freer.o)
 .data          0x00002988        0x0 c:/program files (x86)/atmel/atmel toolchain/avr32 gcc/native/3.4.2.1002/avr32-gnu-toolchain/bin/../lib/gcc/avr32/4.4.7/../../../../avr32/lib/ucr3fp\libc.a(lib_a-fvwrite.o)
 .data          0x00002988        0x0 c:/program files (x86)/atmel/atmel toolchain/avr32 gcc/native/3.4.2.1002/avr32-gnu-toolchain/bin/../lib/gcc/avr32/4.4.7/../../../../avr32/lib/ucr3fp\libc.a(lib_a-fwalk.o)
 .data          0x00002988        0x0 c:/program files (x86)/atmel/atmel toolchain/avr32 gcc/native/3.4.2.1002/avr32-gnu-toolchain/bin/../lib/gcc/avr32/4.4.7/../../../../avr32/lib/ucr3fp\libc.a(lib_a-locale.o)
 .data.__lc_ctype
                0x00002988        0xc c:/program files (x86)/atmel/atmel toolchain/avr32 gcc/native/3.4.2.1002/avr32-gnu-toolchain/bin/../lib/gcc/avr32/4.4.7/../../../../avr32/lib/ucr3fp\libc.a(lib_a-locale.o)
                0x00002988                __lc_ctype
 .data.__mb_cur_max
                0x00002994        0x4 c:/program files (x86)/atmel/atmel toolchain/avr32 gcc/native/3.4.2.1002/avr32-gnu-toolchain/bin/../lib/gcc/avr32/4.4.7/../../../../avr32/lib/ucr3fp\libc.a(lib_a-locale.o)
                0x00002994                __mb_cur_max
 .data          0x00002998        0x0 c:/program files (x86)/atmel/atmel toolchain/avr32 gcc/native/3.4.2.1002/avr32-gnu-toolchain/bin/../lib/gcc/avr32/4.4.7/../../../../avr32/lib/ucr3fp\libc.a(lib_a-makebuf.o)
 .data          0x00002998        0x0 c:/program files (x86)/atmel/atmel toolchain/avr32 gcc/native/3.4.2.1002/avr32-gnu-toolchain/bin/../lib/gcc/avr32/4.4.7/../../../../avr32/lib/ucr3fp\libc.a(lib_a-memchr.o)
 .data          0x00002998        0x0 c:/program files (x86)/atmel/atmel toolchain/avr32 gcc/native/3.4.2.1002/avr32-gnu-toolchain/bin/../lib/gcc/avr32/4.4.7/../../../../avr32/lib/ucr3fp\libc.a(lib_a-memmove.o)
 .data          0x00002998        0x0 c:/program files (x86)/atmel/atmel toolchain/avr32 gcc/native/3.4.2.1002/avr32-gnu-toolchain/bin/../lib/gcc/avr32/4.4.7/../../../../avr32/lib/ucr3fp\libc.a(lib_a-mprec.o)
 .data          0x00002998        0x0 c:/program files (x86)/atmel/atmel toolchain/avr32 gcc/native/3.4.2.1002/avr32-gnu-toolchain/bin/../lib/gcc/avr32/4.4.7/../../../../avr32/lib/ucr3fp\libc.a(lib_a-reallocr.o)
 .data          0x00002998        0x0 c:/program files (x86)/atmel/atmel toolchain/avr32 gcc/native/3.4.2.1002/avr32-gnu-toolchain/bin/../lib/gcc/avr32/4.4.7/../../../../avr32/lib/ucr3fp\libc.a(lib_a-reent.o)
 .data          0x00002998        0x0 c:/program files (x86)/atmel/atmel toolchain/avr32 gcc/native/3.4.2.1002/avr32-gnu-toolchain/bin/../lib/gcc/avr32/4.4.7/../../../../avr32/lib/ucr3fp\libc.a(lib_a-s_isinfd.o)
 .data          0x00002998        0x0 c:/program files (x86)/atmel/atmel toolchain/avr32 gcc/native/3.4.2.1002/avr32-gnu-toolchain/bin/../lib/gcc/avr32/4.4.7/../../../../avr32/lib/ucr3fp\libc.a(lib_a-stdio.o)
 .data          0x00002998        0x0 c:/program files (x86)/atmel/atmel toolchain/avr32 gcc/native/3.4.2.1002/avr32-gnu-toolchain/bin/../lib/gcc/avr32/4.4.7/../../../../avr32/lib/ucr3fp\libc.a(lib_a-strcmp.o)
 .data          0x00002998        0x0 c:/program files (x86)/atmel/atmel toolchain/avr32 gcc/native/3.4.2.1002/avr32-gnu-toolchain/bin/../lib/gcc/avr32/4.4.7/../../../../avr32/lib/ucr3fp\libc.a(lib_a-writer.o)
 .data          0x00002998        0x0 c:/program files (x86)/atmel/atmel toolchain/avr32 gcc/native/3.4.2.1002/avr32-gnu-toolchain/bin/../lib/gcc/avr32/4.4.7/../../../../avr32/lib/ucr3fp\libc.a(lib_a-callocr.o)
 .data          0x00002998        0x0 c:/program files (x86)/atmel/atmel toolchain/avr32 gcc/native/3.4.2.1002/avr32-gnu-toolchain/bin/../lib/gcc/avr32/4.4.7/../../../../avr32/lib/ucr3fp\libc.a(lib_a-closer.o)
 .data          0x00002998        0x0 c:/program files (x86)/atmel/atmel toolchain/avr32 gcc/native/3.4.2.1002/avr32-gnu-toolchain/bin/../lib/gcc/avr32/4.4.7/../../../../avr32/lib/ucr3fp\libc.a(lib_a-fclose.o)
 .data          0x00002998        0x0 c:/program files (x86)/atmel/atmel toolchain/avr32 gcc/native/3.4.2.1002/avr32-gnu-toolchain/bin/../lib/gcc/avr32/4.4.7/../../../../avr32/lib/ucr3fp\libc.a(lib_a-fstatr.o)
 .data          0x00002998        0x0 c:/program files (x86)/atmel/atmel toolchain/avr32 gcc/native/3.4.2.1002/avr32-gnu-toolchain/bin/../lib/gcc/avr32/4.4.7/../../../../avr32/lib/ucr3fp\libc.a(lib_a-lseekr.o)
 .data          0x00002998        0x0 c:/program files (x86)/atmel/atmel toolchain/avr32 gcc/native/3.4.2.1002/avr32-gnu-toolchain/bin/../lib/gcc/avr32/4.4.7/../../../../avr32/lib/ucr3fp\libc.a(lib_a-readr.o)
 *(.gnu.linkonce.d.*personality*)

.data1
 *(.data1)

.balign         0x00002998        0x0 load address 0x800447f4
                0x00002998                . = ALIGN (0x8)
                0x00002998                _edata = .
                0x00002998                _edata = .
                0x00002998                PROVIDE (edata, .)
                0x00002998                __bss_start = .

.bss            0x000029a0     0x8db0 load address 0x80044800
 *(.dynbss)
 *(.bss .bss.* .gnu.linkonce.b.*)
 .bss           0x000029a0        0x0 Library/communication/console.o
 .bss           0x000029a0        0x0 Library/communication/data_logging.o
 .bss           0x000029a0       0x40 Library/communication/hud.o
 .bss           0x000029e0        0x0 Library/communication/mavlink_communication.o
 .bss           0x000029e0        0x0 Library/communication/mavlink_message_handler.o
 .bss           0x000029e0       0x40 Library/communication/mavlink_waypoint_handler.o
 .bss           0x00002a20       0x40 Library/communication/remote.o
 .bss           0x00002a60       0x40 Library/communication/state.o
 .bss           0x00002aa0        0x0 Library/communication/state_machine.o
 .bss           0x00002aa0        0x0 Library/control/adaptive_parameter.o
 .bss           0x00002aa0        0x0 Library/control/attitude_controller_p2.o
 .bss           0x00002aa0        0x0 Library/control/attitude_error_estimator.o
 .bss           0x00002aa0       0x40 Library/control/joystick_parsing.o
 .bss           0x00002ae0        0x0 Library/control/pid_control.o
 .bss           0x00002ae0        0x0 Library/control/servos_mix_quadcopter_cross.o
 .bss           0x00002ae0        0x0 Library/control/servos_mix_quadcopter_diag.o
 .bss           0x00002ae0        0x0 Library/control/stabilisation_copter.o
 .bss           0x00002ae0       0x40 Library/hal/analog_monitor.o
 .bss           0x00002b20        0x0 Library/hal/fat_fs/diskio.o
 .bss           0x00002b20        0x8 Library/hal/fat_fs/ff.o
 .bss           0x00002b28        0x0 Library/hal/fat_fs/option/ccsbcs.o
 .bss           0x00002b28        0x0 Library/hal/fat_fs/option/syscall.o
 .bss           0x00002b28        0x0 Library/hal/fat_fs/option/unicode.o
 .bss           0x00002b28       0x6c Library/hal/gps_ublox.o
                0x00002b68                ubx_current_message
                0x00002b6c                ubx_last_message
                0x00002b70                ubx_valid_message
                0x00002b74                ubx_number_of_valid_pos_llh_message
                0x00002b76                ubx_number_of_valid_status_message
                0x00002b78                ubx_number_of_valid_solution_message
                0x00002b7a                ubx_number_of_valid_vel_ned_message
                0x00002b7c                ubx_number_of_valid_sv_info_message
                0x00002b7e                ubx_number_of_valid_nav_settings_message
                0x00002b80                ubx_number_of_valid_cfg_rate_message
                0x00002b82                ubx_number_of_valid_cfg_set_get_rate_message
                0x00002b84                ubx_number_of_valid_mon_rxr_message
                0x00002b86                ubx_number_of_valid_tim_tp_message
                0x00002b88                ubx_number_of_valid_tim_vrfy_message
                0x00002b8a                print_nav_on_debug
                0x00002b8b                loop_pos_llh
                0x00002b8c                loop_vel_ned
                0x00002b8d                loop_status
                0x00002b8e                loop_solution
                0x00002b8f                loop_tim_tp
                0x00002b90                loop_tim_vrfy
 .bss           0x00002b94        0x0 Library/hal/hmc5883l.o
 .bss           0x00002b94        0x0 Library/hal/i2c_driver_int.o
 .bss           0x00002b94        0x0 Library/hal/lsm330dlc.o
 .bss           0x00002b94        0x0 Library/hal/piezo_speaker.o
 .bss           0x00002b94        0x0 Library/hal/pwm_servos.o
 .bss           0x00002b94        0x4 Library/hal/sd_spi.o
 .bss           0x00002b98       0x40 Library/hal/servos.o
 .bss           0x00002bd8       0x40 Library/hal/sonar_i2cxl.o
 .bss           0x00002c18        0x0 Library/hal/spektrum_satellite.o
 .bss           0x00002c18        0x0 Library/hal/time_keeper.o
 .bss           0x00002c18        0xc Library/hal/usb_int.o
 .bss           0x00002c24        0x0 Library/hal/xbee.o
 .bss           0x00002c24       0x40 Library/sensing/ahrs.o
 .bss           0x00002c64       0x40 Library/sensing/position_estimation.o
 .bss           0x00002ca4        0x0 Library/sensing/qfilter.o
 .bss           0x00002ca4        0x0 Library/util/linear_algebra.o
 .bss           0x00002ca4        0x0 Library/util/matrixlib_float.o
 .bss           0x00002ca4        0x0 Library/util/quick_trig.o
 .bss           0x00002ca4        0x0 Private_Library/neighbor_selection.o
 .bss           0x00002ca4        0x2 Private_Library/orca.o
                0x00002ca4                loop_count_orca
                0x00002ca5                loop_count_collisions
 *fill*         0x00002ca6        0x2 
 .bss           0x00002ca8     0x1bd4 src/central_data.o
 .bss           0x0000487c        0x0 src/mavlink_telemetry.o
 .bss           0x0000487c        0x0 src/tasks.o
 .bss           0x0000487c      0x480 Library/communication/mavlink_stream.o
 .bss           0x00004cfc       0x40 Library/communication/onboard_parameters.o
 .bss           0x00004d3c       0x40 Library/control/navigation.o
 .bss           0x00004d7c       0x40 Library/control/stabilisation.o
 .bss           0x00004dbc       0x64 Library/hal/adc_int.o
 .bss           0x00004e20     0x400c Library/hal/ads1274.o
 .bss           0x00008e2c       0x40 Library/hal/bmp085.o
 .bss           0x00008e6c        0xc Library/hal/dac_dma.o
 .bss           0x00008e78        0x0 Library/hal/led.o
 .bss           0x00008e78       0xa8 Library/hal/spi_buffered.o
 .bss           0x00008f20      0xac8 Library/hal/uart_int.o
 .bss           0x000099e8       0x40 Library/runtime/scheduler.o
 .bss           0x00009a28       0x40 Library/sensing/imu.o
 .bss           0x00009a68       0x40 Library/sensing/simulation.o
 .bss           0x00009aa8        0x0 Library/util/buffer.o
 .bss           0x00009aa8        0x0 Library/util/coord_conventions.o
 .bss           0x00009aa8      0x400 Library/util/generator.o
 .bss           0x00009ea8        0x0 Library/util/print_util.o
 .bss           0x00009ea8        0x0 Library/util/sinus.o
 .bss           0x00009ea8        0x0 src/asf/avr32/drivers/adcifa/adcifa.o
 .bss           0x00009ea8        0x0 src/asf/avr32/drivers/ast/ast.o
 .bss           0x00009ea8        0x0 src/asf/avr32/drivers/dacifb/dacifb.o
 .bss           0x00009ea8        0x0 src/asf/avr32/drivers/eic/eic.o
 .bss           0x00009ea8        0x4 src/asf/avr32/drivers/flashc/flashc.o
 .bss           0x00009eac        0x0 src/asf/avr32/drivers/gpio/gpio.o
 .bss           0x00009eac        0x0 src/asf/avr32/drivers/intc/exception.o
 .bss           0x00009eac      0x1c8 src/asf/avr32/drivers/intc/intc.o
 .bss           0x0000a074        0x0 src/asf/avr32/drivers/pdca/pdca.o
 .bss           0x0000a074        0x0 src/asf/avr32/drivers/pevc/pevc.o
 .bss           0x0000a074        0x0 src/asf/avr32/drivers/pm/pm_uc3c.o
 .bss           0x0000a074        0x0 src/asf/avr32/drivers/pm/power_clocks_lib.o
 .bss           0x0000a074        0x0 src/asf/avr32/drivers/pwm/pwm4.o
 .bss           0x0000a074        0x0 src/asf/avr32/drivers/scif/scif_uc3c.o
 .bss           0x0000a074        0x0 src/asf/avr32/drivers/spi/spi.o
 .bss           0x0000a074        0x0 src/asf/avr32/drivers/tc/tc.o
 .bss           0x0000a074       0x24 src/asf/avr32/drivers/twim/twim.o
 .bss           0x0000a098        0x0 src/asf/avr32/drivers/usart/usart.o
 *fill*         0x0000a098        0x8 
 .bss           0x0000a0a0       0xe0 src/asf/avr32/drivers/usbc/usbc_device.o
 .bss           0x0000a180        0x4 src/asf/avr32/services/delay/delay.o
 .bss           0x0000a184        0x0 src/asf/avr32/utils/startup/startup_uc3.o
 .bss           0x0000a184        0x0 src/asf/avr32/utils/startup/trampoline_uc3.o
 .bss           0x0000a184        0x0 src/asf/common/boards/user_board/init.o
 .bss           0x0000a184        0x0 src/asf/common/services/clock/uc3c/osc.o
 .bss           0x0000a184        0x0 src/asf/common/services/clock/uc3c/pll.o
 .bss           0x0000a184        0x0 src/asf/common/services/clock/uc3c/sysclk.o
 .bss           0x0000a184        0x0 src/asf/common/services/sleepmgr/uc3/sleepmgr.o
 .bss           0x0000a184        0x0 src/asf/common/services/spi/uc3_spi/spi_master.o
 .bss           0x0000a184      0x128 src/asf/common/services/usb/class/cdc/device/udi_cdc.o
 .bss           0x0000a2ac        0x0 src/asf/common/services/usb/class/cdc/device/udi_cdc_desc.o
 .bss           0x0000a2ac       0x14 src/asf/common/services/usb/udc/udc.o
 .bss           0x0000a2c0        0x0 src/asf/common/utils/stdio/read.o
 .bss           0x0000a2c0        0x1 src/asf/common/utils/stdio/stdio_usb/stdio_usb.o
 .bss           0x0000a2c1        0x0 src/asf/common/utils/stdio/write.o
 .bss           0x0000a2c1        0x0 src/boardsupport.o
 *fill*         0x0000a2c1        0x3 
 .bss           0x0000a2c4       0x48 src/main.o
                0x0000a2c4                nav_settings
                0x0000a2e8                cksum_a
                0x0000a2e9                cksum_b
                0x0000a2ea                step
                0x0000a2eb                msg_id
                0x0000a2ec                payload_length
                0x0000a2ee                payload_counter
                0x0000a2f0                ubx_class
                0x0000a2f1                new_position
                0x0000a2f2                new_speed
                0x0000a2f3                disable_counter
                0x0000a2f4                next_fix
                0x0000a2f5                have_raw_velocity
                0x0000a2f8                engine_nav_setting
                0x0000a2fc                idle_timer
                0x0000a300                idle_timeout
                0x0000a304                last_fix_time
                0x0000a308                central_data
 .bss           0x0000a30c        0x0 c:/program files (x86)/atmel/atmel toolchain/avr32 gcc/native/3.4.2.1002/avr32-gnu-toolchain/bin/../lib/gcc/avr32/4.4.7/../../../../avr32/lib/ucr3fp\libm.a(lib_a-s_cos.o)
 .bss           0x0000a30c        0x0 c:/program files (x86)/atmel/atmel toolchain/avr32 gcc/native/3.4.2.1002/avr32-gnu-toolchain/bin/../lib/gcc/avr32/4.4.7/../../../../avr32/lib/ucr3fp\libm.a(lib_a-s_floor.o)
 .bss           0x0000a30c        0x0 c:/program files (x86)/atmel/atmel toolchain/avr32 gcc/native/3.4.2.1002/avr32-gnu-toolchain/bin/../lib/gcc/avr32/4.4.7/../../../../avr32/lib/ucr3fp\libm.a(lib_a-s_sin.o)
 .bss           0x0000a30c        0x0 c:/program files (x86)/atmel/atmel toolchain/avr32 gcc/native/3.4.2.1002/avr32-gnu-toolchain/bin/../lib/gcc/avr32/4.4.7/../../../../avr32/lib/ucr3fp\libm.a(lib_a-w_asin.o)
 .bss           0x0000a30c        0x0 c:/program files (x86)/atmel/atmel toolchain/avr32 gcc/native/3.4.2.1002/avr32-gnu-toolchain/bin/../lib/gcc/avr32/4.4.7/../../../../avr32/lib/ucr3fp\libm.a(lib_a-w_atan2.o)
 .bss           0x0000a30c        0x0 c:/program files (x86)/atmel/atmel toolchain/avr32 gcc/native/3.4.2.1002/avr32-gnu-toolchain/bin/../lib/gcc/avr32/4.4.7/../../../../avr32/lib/ucr3fp\libm.a(lib_a-w_fmod.o)
 .bss           0x0000a30c        0x0 c:/program files (x86)/atmel/atmel toolchain/avr32 gcc/native/3.4.2.1002/avr32-gnu-toolchain/bin/../lib/gcc/avr32/4.4.7/../../../../avr32/lib/ucr3fp\libm.a(lib_a-w_pow.o)
 .bss           0x0000a30c        0x0 c:/program files (x86)/atmel/atmel toolchain/avr32 gcc/native/3.4.2.1002/avr32-gnu-toolchain/bin/../lib/gcc/avr32/4.4.7/../../../../avr32/lib/ucr3fp\libm.a(lib_a-w_sqrt.o)
 .bss           0x0000a30c        0x0 c:/program files (x86)/atmel/atmel toolchain/avr32 gcc/native/3.4.2.1002/avr32-gnu-toolchain/bin/../lib/gcc/avr32/4.4.7/../../../../avr32/lib/ucr3fp\libm.a(lib_a-wf_sqrt.o)
 .bss           0x0000a30c        0x0 c:/program files (x86)/atmel/atmel toolchain/avr32 gcc/native/3.4.2.1002/avr32-gnu-toolchain/bin/../lib/gcc/avr32/4.4.7/../../../../avr32/lib/ucr3fp\libm.a(lib_a-e_asin.o)
 .bss           0x0000a30c        0x0 c:/program files (x86)/atmel/atmel toolchain/avr32 gcc/native/3.4.2.1002/avr32-gnu-toolchain/bin/../lib/gcc/avr32/4.4.7/../../../../avr32/lib/ucr3fp\libm.a(lib_a-e_atan2.o)
 .bss           0x0000a30c        0x0 c:/program files (x86)/atmel/atmel toolchain/avr32 gcc/native/3.4.2.1002/avr32-gnu-toolchain/bin/../lib/gcc/avr32/4.4.7/../../../../avr32/lib/ucr3fp\libm.a(lib_a-e_fmod.o)
 .bss           0x0000a30c        0x0 c:/program files (x86)/atmel/atmel toolchain/avr32 gcc/native/3.4.2.1002/avr32-gnu-toolchain/bin/../lib/gcc/avr32/4.4.7/../../../../avr32/lib/ucr3fp\libm.a(lib_a-e_pow.o)
 .bss           0x0000a30c        0x0 c:/program files (x86)/atmel/atmel toolchain/avr32 gcc/native/3.4.2.1002/avr32-gnu-toolchain/bin/../lib/gcc/avr32/4.4.7/../../../../avr32/lib/ucr3fp\libm.a(lib_a-e_rem_pio2.o)
 .bss           0x0000a30c        0x0 c:/program files (x86)/atmel/atmel toolchain/avr32 gcc/native/3.4.2.1002/avr32-gnu-toolchain/bin/../lib/gcc/avr32/4.4.7/../../../../avr32/lib/ucr3fp\libm.a(lib_a-e_sqrt.o)
 .bss           0x0000a30c        0x0 c:/program files (x86)/atmel/atmel toolchain/avr32 gcc/native/3.4.2.1002/avr32-gnu-toolchain/bin/../lib/gcc/avr32/4.4.7/../../../../avr32/lib/ucr3fp\libm.a(lib_a-ef_sqrt.o)
 .bss           0x0000a30c        0x0 c:/program files (x86)/atmel/atmel toolchain/avr32 gcc/native/3.4.2.1002/avr32-gnu-toolchain/bin/../lib/gcc/avr32/4.4.7/../../../../avr32/lib/ucr3fp\libm.a(lib_a-k_cos.o)
 .bss           0x0000a30c        0x0 c:/program files (x86)/atmel/atmel toolchain/avr32 gcc/native/3.4.2.1002/avr32-gnu-toolchain/bin/../lib/gcc/avr32/4.4.7/../../../../avr32/lib/ucr3fp\libm.a(lib_a-k_rem_pio2.o)
 .bss           0x0000a30c        0x0 c:/program files (x86)/atmel/atmel toolchain/avr32 gcc/native/3.4.2.1002/avr32-gnu-toolchain/bin/../lib/gcc/avr32/4.4.7/../../../../avr32/lib/ucr3fp\libm.a(lib_a-k_sin.o)
 .bss           0x0000a30c        0x0 c:/program files (x86)/atmel/atmel toolchain/avr32 gcc/native/3.4.2.1002/avr32-gnu-toolchain/bin/../lib/gcc/avr32/4.4.7/../../../../avr32/lib/ucr3fp\libm.a(lib_a-s_atan.o)
 .bss           0x0000a30c        0x0 c:/program files (x86)/atmel/atmel toolchain/avr32 gcc/native/3.4.2.1002/avr32-gnu-toolchain/bin/../lib/gcc/avr32/4.4.7/../../../../avr32/lib/ucr3fp\libm.a(lib_a-s_fabs.o)
 .bss           0x0000a30c        0x0 c:/program files (x86)/atmel/atmel toolchain/avr32 gcc/native/3.4.2.1002/avr32-gnu-toolchain/bin/../lib/gcc/avr32/4.4.7/../../../../avr32/lib/ucr3fp\libm.a(lib_a-s_finite.o)
 .bss           0x0000a30c        0x0 c:/program files (x86)/atmel/atmel toolchain/avr32 gcc/native/3.4.2.1002/avr32-gnu-toolchain/bin/../lib/gcc/avr32/4.4.7/../../../../avr32/lib/ucr3fp\libm.a(lib_a-s_isnand.o)
 .bss           0x0000a30c        0x0 c:/program files (x86)/atmel/atmel toolchain/avr32 gcc/native/3.4.2.1002/avr32-gnu-toolchain/bin/../lib/gcc/avr32/4.4.7/../../../../avr32/lib/ucr3fp\libm.a(lib_a-s_lib_ver.o)
 .bss           0x0000a30c        0x0 c:/program files (x86)/atmel/atmel toolchain/avr32 gcc/native/3.4.2.1002/avr32-gnu-toolchain/bin/../lib/gcc/avr32/4.4.7/../../../../avr32/lib/ucr3fp\libm.a(lib_a-s_matherr.o)
 .bss           0x0000a30c        0x0 c:/program files (x86)/atmel/atmel toolchain/avr32 gcc/native/3.4.2.1002/avr32-gnu-toolchain/bin/../lib/gcc/avr32/4.4.7/../../../../avr32/lib/ucr3fp\libm.a(lib_a-s_nan.o)
 .bss           0x0000a30c        0x0 c:/program files (x86)/atmel/atmel toolchain/avr32 gcc/native/3.4.2.1002/avr32-gnu-toolchain/bin/../lib/gcc/avr32/4.4.7/../../../../avr32/lib/ucr3fp\libm.a(lib_a-s_rint.o)
 .bss           0x0000a30c        0x0 c:/program files (x86)/atmel/atmel toolchain/avr32 gcc/native/3.4.2.1002/avr32-gnu-toolchain/bin/../lib/gcc/avr32/4.4.7/../../../../avr32/lib/ucr3fp\libm.a(lib_a-s_scalbn.o)
 .bss           0x0000a30c        0x0 c:/program files (x86)/atmel/atmel toolchain/avr32 gcc/native/3.4.2.1002/avr32-gnu-toolchain/bin/../lib/gcc/avr32/4.4.7/../../../../avr32/lib/ucr3fp\libm.a(lib_a-sf_isnan.o)
 .bss           0x0000a30c        0x0 c:/program files (x86)/atmel/atmel toolchain/avr32 gcc/native/3.4.2.1002/avr32-gnu-toolchain/bin/../lib/gcc/avr32/4.4.7/../../../../avr32/lib/ucr3fp\libm.a(lib_a-s_copysign.o)
 .bss           0x0000a30c        0x0 c:/program files (x86)/atmel/atmel toolchain/avr32 gcc/native/3.4.2.1002/avr32-gnu-toolchain/bin/../lib/gcc/avr32/4.4.7/ucr3fp\libgcc.a(_avr32_f64_mul.o)
 .bss           0x0000a30c        0x0 c:/program files (x86)/atmel/atmel toolchain/avr32 gcc/native/3.4.2.1002/avr32-gnu-toolchain/bin/../lib/gcc/avr32/4.4.7/ucr3fp\libgcc.a(_avr32_f64_addsub.o)
 .bss           0x0000a30c        0x0 c:/program files (x86)/atmel/atmel toolchain/avr32 gcc/native/3.4.2.1002/avr32-gnu-toolchain/bin/../lib/gcc/avr32/4.4.7/ucr3fp\libgcc.a(_avr32_f64_to_s32.o)
 .bss           0x0000a30c        0x0 c:/program files (x86)/atmel/atmel toolchain/avr32 gcc/native/3.4.2.1002/avr32-gnu-toolchain/bin/../lib/gcc/avr32/4.4.7/ucr3fp\libgcc.a(_avr32_f64_to_s64.o)
 .bss           0x0000a30c        0x0 c:/program files (x86)/atmel/atmel toolchain/avr32 gcc/native/3.4.2.1002/avr32-gnu-toolchain/bin/../lib/gcc/avr32/4.4.7/ucr3fp\libgcc.a(_avr32_s32_to_f64.o)
 .bss           0x0000a30c        0x0 c:/program files (x86)/atmel/atmel toolchain/avr32 gcc/native/3.4.2.1002/avr32-gnu-toolchain/bin/../lib/gcc/avr32/4.4.7/ucr3fp\libgcc.a(_avr32_f64_cmp_eq.o)
 .bss           0x0000a30c        0x0 c:/program files (x86)/atmel/atmel toolchain/avr32 gcc/native/3.4.2.1002/avr32-gnu-toolchain/bin/../lib/gcc/avr32/4.4.7/ucr3fp\libgcc.a(_avr32_f64_cmp_ge.o)
 .bss           0x0000a30c        0x0 c:/program files (x86)/atmel/atmel toolchain/avr32 gcc/native/3.4.2.1002/avr32-gnu-toolchain/bin/../lib/gcc/avr32/4.4.7/ucr3fp\libgcc.a(_avr32_f64_cmp_lt.o)
 .bss           0x0000a30c        0x0 c:/program files (x86)/atmel/atmel toolchain/avr32 gcc/native/3.4.2.1002/avr32-gnu-toolchain/bin/../lib/gcc/avr32/4.4.7/ucr3fp\libgcc.a(_avr32_f32_cmp_lt.o)
 .bss           0x0000a30c        0x0 c:/program files (x86)/atmel/atmel toolchain/avr32 gcc/native/3.4.2.1002/avr32-gnu-toolchain/bin/../lib/gcc/avr32/4.4.7/ucr3fp\libgcc.a(_avr32_f64_div.o)
 .bss           0x0000a30c        0x0 c:/program files (x86)/atmel/atmel toolchain/avr32 gcc/native/3.4.2.1002/avr32-gnu-toolchain/bin/../lib/gcc/avr32/4.4.7/ucr3fp\libgcc.a(_avr32_f32_div.o)
 .bss           0x0000a30c        0x0 c:/program files (x86)/atmel/atmel toolchain/avr32 gcc/native/3.4.2.1002/avr32-gnu-toolchain/bin/../lib/gcc/avr32/4.4.7/ucr3fp\libgcc.a(_avr32_f32_addsub.o)
 .bss           0x0000a30c        0x0 c:/program files (x86)/atmel/atmel toolchain/avr32 gcc/native/3.4.2.1002/avr32-gnu-toolchain/bin/../lib/gcc/avr32/4.4.7/ucr3fp\libgcc.a(_avr32_f32_mul.o)
 .bss           0x0000a30c        0x0 c:/program files (x86)/atmel/atmel toolchain/avr32 gcc/native/3.4.2.1002/avr32-gnu-toolchain/bin/../lib/gcc/avr32/4.4.7/ucr3fp\libgcc.a(_avr32_f32_to_f64.o)
 .bss           0x0000a30c        0x0 c:/program files (x86)/atmel/atmel toolchain/avr32 gcc/native/3.4.2.1002/avr32-gnu-toolchain/bin/../lib/gcc/avr32/4.4.7/ucr3fp\libgcc.a(_avr32_f64_to_f32.o)
 .bss           0x0000a30c        0x0 c:/program files (x86)/atmel/atmel toolchain/avr32 gcc/native/3.4.2.1002/avr32-gnu-toolchain/bin/../lib/gcc/avr32/4.4.7/ucr3fp\libgcc.a(_floatdidf.o)
 .bss           0x0000a30c        0x0 c:/program files (x86)/atmel/atmel toolchain/avr32 gcc/native/3.4.2.1002/avr32-gnu-toolchain/bin/../lib/gcc/avr32/4.4.7/ucr3fp\libgcc.a(_divdi3.o)
 .bss           0x0000a30c        0x0 c:/program files (x86)/atmel/atmel toolchain/avr32 gcc/native/3.4.2.1002/avr32-gnu-toolchain/bin/../lib/gcc/avr32/4.4.7/ucr3fp\libgcc.a(_moddi3.o)
 .bss           0x0000a30c        0x0 c:/program files (x86)/atmel/atmel toolchain/avr32 gcc/native/3.4.2.1002/avr32-gnu-toolchain/bin/../lib/gcc/avr32/4.4.7/ucr3fp\libgcc.a(_udivdi3.o)
 .bss           0x0000a30c        0x0 c:/program files (x86)/atmel/atmel toolchain/avr32 gcc/native/3.4.2.1002/avr32-gnu-toolchain/bin/../lib/gcc/avr32/4.4.7/ucr3fp\libgcc.a(_umoddi3.o)
 .bss           0x0000a30c        0x0 c:/program files (x86)/atmel/atmel toolchain/avr32 gcc/native/3.4.2.1002/avr32-gnu-toolchain/bin/../lib/gcc/avr32/4.4.7/../../../../avr32/lib/ucr3fp\libc.a(lib_a-errno.o)
 .bss           0x0000a30c        0x0 c:/program files (x86)/atmel/atmel toolchain/avr32 gcc/native/3.4.2.1002/avr32-gnu-toolchain/bin/../lib/gcc/avr32/4.4.7/../../../../avr32/lib/ucr3fp\libc.a(lib_a-impure.o)
 .bss           0x0000a30c        0x0 c:/program files (x86)/atmel/atmel toolchain/avr32 gcc/native/3.4.2.1002/avr32-gnu-toolchain/bin/../lib/gcc/avr32/4.4.7/../../../../avr32/lib/ucr3fp\libc.a(lib_a-malloc.o)
 .bss           0x0000a30c        0x0 c:/program files (x86)/atmel/atmel toolchain/avr32 gcc/native/3.4.2.1002/avr32-gnu-toolchain/bin/../lib/gcc/avr32/4.4.7/../../../../avr32/lib/ucr3fp\libc.a(lib_a-mallocr.o)
 .bss.__malloc_max_total_mem
                0x0000a30c        0x4 c:/program files (x86)/atmel/atmel toolchain/avr32 gcc/native/3.4.2.1002/avr32-gnu-toolchain/bin/../lib/gcc/avr32/4.4.7/../../../../avr32/lib/ucr3fp\libc.a(lib_a-mallocr.o)
                0x0000a30c                __malloc_max_total_mem
 .bss.__malloc_max_sbrked_mem
                0x0000a310        0x4 c:/program files (x86)/atmel/atmel toolchain/avr32 gcc/native/3.4.2.1002/avr32-gnu-toolchain/bin/../lib/gcc/avr32/4.4.7/../../../../avr32/lib/ucr3fp\libc.a(lib_a-mallocr.o)
                0x0000a310                __malloc_max_sbrked_mem
 .bss.__malloc_top_pad
                0x0000a314        0x4 c:/program files (x86)/atmel/atmel toolchain/avr32 gcc/native/3.4.2.1002/avr32-gnu-toolchain/bin/../lib/gcc/avr32/4.4.7/../../../../avr32/lib/ucr3fp\libc.a(lib_a-mallocr.o)
                0x0000a314                __malloc_top_pad
 .bss.__malloc_current_mallinfo
                0x0000a318       0x28 c:/program files (x86)/atmel/atmel toolchain/avr32 gcc/native/3.4.2.1002/avr32-gnu-toolchain/bin/../lib/gcc/avr32/4.4.7/../../../../avr32/lib/ucr3fp\libc.a(lib_a-mallocr.o)
                0x0000a318                __malloc_current_mallinfo
 .bss           0x0000a340        0x0 c:/program files (x86)/atmel/atmel toolchain/avr32 gcc/native/3.4.2.1002/avr32-gnu-toolchain/bin/../lib/gcc/avr32/4.4.7/../../../../avr32/lib/ucr3fp\libc.a(lib_a-memcpy.o)
 .bss           0x0000a340        0x0 c:/program files (x86)/atmel/atmel toolchain/avr32 gcc/native/3.4.2.1002/avr32-gnu-toolchain/bin/../lib/gcc/avr32/4.4.7/../../../../avr32/lib/ucr3fp\libc.a(lib_a-memset.o)
 .bss           0x0000a340        0x0 c:/program files (x86)/atmel/atmel toolchain/avr32 gcc/native/3.4.2.1002/avr32-gnu-toolchain/bin/../lib/gcc/avr32/4.4.7/../../../../avr32/lib/ucr3fp\libc.a(lib_a-mlock.o)
 .bss           0x0000a340        0x0 c:/program files (x86)/atmel/atmel toolchain/avr32 gcc/native/3.4.2.1002/avr32-gnu-toolchain/bin/../lib/gcc/avr32/4.4.7/../../../../avr32/lib/ucr3fp\libc.a(lib_a-sbrkr.o)
 .bss           0x0000a340        0x0 c:/program files (x86)/atmel/atmel toolchain/avr32 gcc/native/3.4.2.1002/avr32-gnu-toolchain/bin/../lib/gcc/avr32/4.4.7/../../../../avr32/lib/ucr3fp\libc.a(lib_a-snprintf.o)
 .bss           0x0000a340        0x0 c:/program files (x86)/atmel/atmel toolchain/avr32 gcc/native/3.4.2.1002/avr32-gnu-toolchain/bin/../lib/gcc/avr32/4.4.7/../../../../avr32/lib/ucr3fp\libc.a(lib_a-strcpy.o)
 .bss           0x0000a340        0x0 c:/program files (x86)/atmel/atmel toolchain/avr32 gcc/native/3.4.2.1002/avr32-gnu-toolchain/bin/../lib/gcc/avr32/4.4.7/../../../../avr32/lib/ucr3fp\libc.a(lib_a-strlen.o)
 .bss           0x0000a340        0x0 c:/program files (x86)/atmel/atmel toolchain/avr32 gcc/native/3.4.2.1002/avr32-gnu-toolchain/bin/../lib/gcc/avr32/4.4.7/../../../../avr32/lib/ucr3fp\libc.a(lib_a-syscalls.o)
 .bss.cur_heap_pos.1869
                0x0000a340        0x4 c:/program files (x86)/atmel/atmel toolchain/avr32 gcc/native/3.4.2.1002/avr32-gnu-toolchain/bin/../lib/gcc/avr32/4.4.7/../../../../avr32/lib/ucr3fp\libc.a(lib_a-syscalls.o)
 .bss           0x0000a344        0x0 c:/program files (x86)/atmel/atmel toolchain/avr32 gcc/native/3.4.2.1002/avr32-gnu-toolchain/bin/../lib/gcc/avr32/4.4.7/../../../../avr32/lib/ucr3fp\libc.a(lib_a-vfprintf.o)
 .bss           0x0000a344        0x0 c:/program files (x86)/atmel/atmel toolchain/avr32 gcc/native/3.4.2.1002/avr32-gnu-toolchain/bin/../lib/gcc/avr32/4.4.7/../../../../avr32/lib/ucr3fp\libc.a(lib_a-wsetup.o)
 .bss           0x0000a344        0x0 c:/program files (x86)/atmel/atmel toolchain/avr32 gcc/native/3.4.2.1002/avr32-gnu-toolchain/bin/../lib/gcc/avr32/4.4.7/../../../../avr32/lib/ucr3fp\libc.a(lib_a-dtoa.o)
 .bss           0x0000a344        0x0 c:/program files (x86)/atmel/atmel toolchain/avr32 gcc/native/3.4.2.1002/avr32-gnu-toolchain/bin/../lib/gcc/avr32/4.4.7/../../../../avr32/lib/ucr3fp\libc.a(lib_a-fflush.o)
 .bss           0x0000a344        0x0 c:/program files (x86)/atmel/atmel toolchain/avr32 gcc/native/3.4.2.1002/avr32-gnu-toolchain/bin/../lib/gcc/avr32/4.4.7/../../../../avr32/lib/ucr3fp\libc.a(lib_a-findfp.o)
 .bss           0x0000a344        0x0 c:/program files (x86)/atmel/atmel toolchain/avr32 gcc/native/3.4.2.1002/avr32-gnu-toolchain/bin/../lib/gcc/avr32/4.4.7/../../../../avr32/lib/ucr3fp\libc.a(lib_a-freer.o)
 .bss           0x0000a344        0x0 c:/program files (x86)/atmel/atmel toolchain/avr32 gcc/native/3.4.2.1002/avr32-gnu-toolchain/bin/../lib/gcc/avr32/4.4.7/../../../../avr32/lib/ucr3fp\libc.a(lib_a-fvwrite.o)
 .bss           0x0000a344        0x0 c:/program files (x86)/atmel/atmel toolchain/avr32 gcc/native/3.4.2.1002/avr32-gnu-toolchain/bin/../lib/gcc/avr32/4.4.7/../../../../avr32/lib/ucr3fp\libc.a(lib_a-fwalk.o)
 .bss           0x0000a344        0x0 c:/program files (x86)/atmel/atmel toolchain/avr32 gcc/native/3.4.2.1002/avr32-gnu-toolchain/bin/../lib/gcc/avr32/4.4.7/../../../../avr32/lib/ucr3fp\libc.a(lib_a-locale.o)
 .bss.__nlocale_changed
                0x0000a344        0x4 c:/program files (x86)/atmel/atmel toolchain/avr32 gcc/native/3.4.2.1002/avr32-gnu-toolchain/bin/../lib/gcc/avr32/4.4.7/../../../../avr32/lib/ucr3fp\libc.a(lib_a-locale.o)
                0x0000a344                __nlocale_changed
 .bss.__mlocale_changed
                0x0000a348        0x4 c:/program files (x86)/atmel/atmel toolchain/avr32 gcc/native/3.4.2.1002/avr32-gnu-toolchain/bin/../lib/gcc/avr32/4.4.7/../../../../avr32/lib/ucr3fp\libc.a(lib_a-locale.o)
                0x0000a348                __mlocale_changed
 .bss._PathLocale
                0x0000a34c        0x4 c:/program files (x86)/atmel/atmel toolchain/avr32 gcc/native/3.4.2.1002/avr32-gnu-toolchain/bin/../lib/gcc/avr32/4.4.7/../../../../avr32/lib/ucr3fp\libc.a(lib_a-locale.o)
                0x0000a34c                _PathLocale
 .bss           0x0000a350        0x0 c:/program files (x86)/atmel/atmel toolchain/avr32 gcc/native/3.4.2.1002/avr32-gnu-toolchain/bin/../lib/gcc/avr32/4.4.7/../../../../avr32/lib/ucr3fp\libc.a(lib_a-makebuf.o)
 .bss           0x0000a350        0x0 c:/program files (x86)/atmel/atmel toolchain/avr32 gcc/native/3.4.2.1002/avr32-gnu-toolchain/bin/../lib/gcc/avr32/4.4.7/../../../../avr32/lib/ucr3fp\libc.a(lib_a-memchr.o)
 .bss           0x0000a350        0x0 c:/program files (x86)/atmel/atmel toolchain/avr32 gcc/native/3.4.2.1002/avr32-gnu-toolchain/bin/../lib/gcc/avr32/4.4.7/../../../../avr32/lib/ucr3fp\libc.a(lib_a-memmove.o)
 .bss           0x0000a350        0x0 c:/program files (x86)/atmel/atmel toolchain/avr32 gcc/native/3.4.2.1002/avr32-gnu-toolchain/bin/../lib/gcc/avr32/4.4.7/../../../../avr32/lib/ucr3fp\libc.a(lib_a-mprec.o)
 .bss           0x0000a350        0x0 c:/program files (x86)/atmel/atmel toolchain/avr32 gcc/native/3.4.2.1002/avr32-gnu-toolchain/bin/../lib/gcc/avr32/4.4.7/../../../../avr32/lib/ucr3fp\libc.a(lib_a-reallocr.o)
 .bss           0x0000a350        0x0 c:/program files (x86)/atmel/atmel toolchain/avr32 gcc/native/3.4.2.1002/avr32-gnu-toolchain/bin/../lib/gcc/avr32/4.4.7/../../../../avr32/lib/ucr3fp\libc.a(lib_a-reent.o)
 .bss           0x0000a350        0x0 c:/program files (x86)/atmel/atmel toolchain/avr32 gcc/native/3.4.2.1002/avr32-gnu-toolchain/bin/../lib/gcc/avr32/4.4.7/../../../../avr32/lib/ucr3fp\libc.a(lib_a-s_isinfd.o)
 .bss           0x0000a350        0x0 c:/program files (x86)/atmel/atmel toolchain/avr32 gcc/native/3.4.2.1002/avr32-gnu-toolchain/bin/../lib/gcc/avr32/4.4.7/../../../../avr32/lib/ucr3fp\libc.a(lib_a-stdio.o)
 .bss           0x0000a350        0x0 c:/program files (x86)/atmel/atmel toolchain/avr32 gcc/native/3.4.2.1002/avr32-gnu-toolchain/bin/../lib/gcc/avr32/4.4.7/../../../../avr32/lib/ucr3fp\libc.a(lib_a-strcmp.o)
 .bss           0x0000a350        0x0 c:/program files (x86)/atmel/atmel toolchain/avr32 gcc/native/3.4.2.1002/avr32-gnu-toolchain/bin/../lib/gcc/avr32/4.4.7/../../../../avr32/lib/ucr3fp\libc.a(lib_a-writer.o)
 .bss           0x0000a350        0x0 c:/program files (x86)/atmel/atmel toolchain/avr32 gcc/native/3.4.2.1002/avr32-gnu-toolchain/bin/../lib/gcc/avr32/4.4.7/../../../../avr32/lib/ucr3fp\libc.a(lib_a-callocr.o)
 .bss           0x0000a350        0x0 c:/program files (x86)/atmel/atmel toolchain/avr32 gcc/native/3.4.2.1002/avr32-gnu-toolchain/bin/../lib/gcc/avr32/4.4.7/../../../../avr32/lib/ucr3fp\libc.a(lib_a-closer.o)
 .bss           0x0000a350        0x0 c:/program files (x86)/atmel/atmel toolchain/avr32 gcc/native/3.4.2.1002/avr32-gnu-toolchain/bin/../lib/gcc/avr32/4.4.7/../../../../avr32/lib/ucr3fp\libc.a(lib_a-fclose.o)
 .bss           0x0000a350        0x0 c:/program files (x86)/atmel/atmel toolchain/avr32 gcc/native/3.4.2.1002/avr32-gnu-toolchain/bin/../lib/gcc/avr32/4.4.7/../../../../avr32/lib/ucr3fp\libc.a(lib_a-fstatr.o)
 .bss           0x0000a350        0x0 c:/program files (x86)/atmel/atmel toolchain/avr32 gcc/native/3.4.2.1002/avr32-gnu-toolchain/bin/../lib/gcc/avr32/4.4.7/../../../../avr32/lib/ucr3fp\libc.a(lib_a-lseekr.o)
 .bss           0x0000a350        0x0 c:/program files (x86)/atmel/atmel toolchain/avr32 gcc/native/3.4.2.1002/avr32-gnu-toolchain/bin/../lib/gcc/avr32/4.4.7/../../../../avr32/lib/ucr3fp\libc.a(lib_a-readr.o)
 *(COMMON)
 COMMON         0x0000a350      0x134 Library/communication/console.o
                0x0000a350                console_out_stream
                0x0000a368                console_in_buffer
                0x0000a46c                console_in_stream
 COMMON         0x0000a484        0x0 Library/communication/hud.o
 COMMON         0x0000a484      0x20c Library/control/adaptive_parameter.o
                0x0000a484                adapt_param_set
 COMMON         0x0000a690        0x1 Library/hal/fat_fs/diskio.o
                0x0000a690                actual_status
 *fill*         0x0000a691        0x3 
 COMMON         0x0000a694      0x340 Library/hal/gps_ublox.o
                0x0000a694                ubx_cfg_rate_message
                0x0000a6a0                ubx_solution_message
                0x0000a708                ubx_tim_vrfy_message
                0x0000a730                ubx_vel_ned_message
                0x0000a778                ubx_mon_rxr_message
                0x0000a77c                ubx_nav_settings_message
                0x0000a7c4                ubx_sv_info_message
                0x0000a954                ubx_pos_llh_message
                0x0000a98c                ubx_tim_tp_message
                0x0000a9ac                ubx_cfg_set_get_rate_message
                0x0000a9b4                ubx_status_message
 COMMON         0x0000a9d4      0x124 Library/hal/i2c_driver_int.o
                0x0000a9d4                current_transfer
                0x0000a9d8                current_slot
                0x0000a9dc                last_slot
                0x0000a9e0                transfer_queue
 COMMON         0x0000aaf8        0x1 Library/hal/pwm_servos.o
                0x0000aaf8                use_servos_7_8
 *fill*         0x0000aaf9        0x3 
 COMMON         0x0000aafc      0x808 Library/hal/sd_spi.o
                0x0000aafc                ram_buffer2
                0x0000aee4                end_of_transfer
                0x0000aee8                sd_spi
                0x0000af14                pdca_channeltx
                0x0000af18                pdca_channelrx
                0x0000af1c                ram_buffer
 COMMON         0x0000b304      0x154 Library/hal/spektrum_satellite.o
                0x0000b304                sat
                0x0000b438                channel_center
 COMMON         0x0000b458      0x134 Library/hal/xbee.o
                0x0000b458                xbee_in_buffer
                0x0000b55c                xbee_in_stream
                0x0000b574                xbee_out_stream
 COMMON         0x0000b58c        0xc Private_Library/orca.o
                0x0000b58c                inv_time_horizon
                0x0000b590                time_horizon
                0x0000b594                min_coll_dist
 COMMON         0x0000b598        0x0 src/mavlink_telemetry.o
 COMMON         0x0000b598       0x5a Library/hal/adc_int.o
                0x0000b598                adci_buffer
                0x0000b5d8                continuous_mode
                0x0000b5d9                even_odd
                0x0000b5da                adcifa_sequencer0_conversion_opt
 *fill*         0x0000b5f2        0x2 
 COMMON         0x0000b5f4        0xc Library/hal/ads1274.o
                0x0000b5f4                eic_options
                0x0000b5fc                gcfg
 COMMON         0x0000b600       0x16 Library/hal/bmp085.o
                0x0000b600                b2
                0x0000b602                mb
                0x0000b604                ac1
                0x0000b606                b1
                0x0000b608                ac6
                0x0000b60a                ac5
                0x0000b60c                ac2
                0x0000b60e                md
                0x0000b610                ac4
                0x0000b612                mc
                0x0000b614                ac3
 *fill*         0x0000b616        0x2 
 COMMON         0x0000b618        0x5 Library/util/print_util.o
                0x0000b618                deb_stream
                0x0000b61c                blocking
 *fill*         0x0000b61d        0x3 
 COMMON         0x0000b620      0x118 src/asf/avr32/drivers/usbc/usbc_device.o
                0x0000b620                udd_ep_out_cache_buffer
                0x0000b6e0                udd_g_ctrlreq
                0x0000b6f8                udd_ctrl_buffer
 COMMON         0x0000b738        0x7 src/asf/common/services/sleepmgr/uc3/sleepmgr.o
                0x0000b738                sleepmgr_locks
 *fill*         0x0000b73f        0x1 
 COMMON         0x0000b740        0x4 src/asf/common/utils/stdio/read.o
                0x0000b740                ptr_get
 COMMON         0x0000b744        0x8 src/asf/common/utils/stdio/write.o
                0x0000b744                ptr_put
                0x0000b748                stdio_base
 COMMON         0x0000b74c        0x4 c:/program files (x86)/atmel/atmel toolchain/avr32 gcc/native/3.4.2.1002/avr32-gnu-toolchain/bin/../lib/gcc/avr32/4.4.7/../../../../avr32/lib/ucr3fp\libc.a(lib_a-reent.o)
                0x0000b74c                errno
                0x0000b750                . = ALIGN (0x8)
                0x0000b750                . = ALIGN (0x8)
                0x0000b750                _end = .
                0x0000b750                PROVIDE (end, .)
                0x0000b750                __heap_start__ = ALIGN (0x8)
                0x0000f000                . = ((ORIGIN (CPUSRAM) + 0xfffc) - _stack_size)
                0x0000f000                __heap_end__ = .

.stab
 *(.stab)

.stabstr
 *(.stabstr)

.stab.excl
 *(.stab.excl)

.stab.exclstr
 *(.stab.exclstr)

.stab.index
 *(.stab.index)

.stab.indexstr
 *(.stab.indexstr)

.comment        0x00000000       0x30
 *(.comment)
 .comment       0x00000000       0x30 Library/communication/console.o
                                 0x31 (size before relaxing)
 .comment       0x00000000       0x31 Library/communication/data_logging.o
 .comment       0x00000000       0x31 Library/communication/hud.o
 .comment       0x00000000       0x31 Library/communication/mavlink_communication.o
 .comment       0x00000000       0x31 Library/communication/mavlink_message_handler.o
 .comment       0x00000000       0x31 Library/communication/mavlink_waypoint_handler.o
 .comment       0x00000000       0x31 Library/communication/remote.o
 .comment       0x00000000       0x31 Library/communication/state.o
 .comment       0x00000000       0x31 Library/communication/state_machine.o
 .comment       0x00000000       0x31 Library/control/adaptive_parameter.o
 .comment       0x00000000       0x31 Library/control/attitude_controller_p2.o
 .comment       0x00000000       0x31 Library/control/attitude_error_estimator.o
 .comment       0x00000000       0x31 Library/control/joystick_parsing.o
 .comment       0x00000000       0x31 Library/control/pid_control.o
 .comment       0x00000000       0x31 Library/control/servos_mix_quadcopter_cross.o
 .comment       0x00000000       0x31 Library/control/servos_mix_quadcopter_diag.o
 .comment       0x00000000       0x31 Library/control/stabilisation_copter.o
 .comment       0x00000000       0x31 Library/hal/analog_monitor.o
 .comment       0x00000000       0x31 Library/hal/fat_fs/diskio.o
 .comment       0x00000000       0x31 Library/hal/fat_fs/ff.o
 .comment       0x00000000       0x31 Library/hal/fat_fs/option/ccsbcs.o
 .comment       0x00000000       0x31 Library/hal/fat_fs/option/syscall.o
 .comment       0x00000000       0x31 Library/hal/fat_fs/option/unicode.o
 .comment       0x00000000       0x31 Library/hal/gps_ublox.o
 .comment       0x00000000       0x31 Library/hal/hmc5883l.o
 .comment       0x00000000       0x31 Library/hal/i2c_driver_int.o
 .comment       0x00000000       0x31 Library/hal/lsm330dlc.o
 .comment       0x00000000       0x31 Library/hal/piezo_speaker.o
 .comment       0x00000000       0x31 Library/hal/pwm_servos.o
 .comment       0x00000000       0x31 Library/hal/sd_spi.o
 .comment       0x00000000       0x31 Library/hal/servos.o
 .comment       0x00000000       0x31 Library/hal/sonar_i2cxl.o
 .comment       0x00000000       0x31 Library/hal/spektrum_satellite.o
 .comment       0x00000000       0x31 Library/hal/time_keeper.o
 .comment       0x00000000       0x31 Library/hal/usb_int.o
 .comment       0x00000000       0x31 Library/hal/xbee.o
 .comment       0x00000000       0x31 Library/sensing/ahrs.o
 .comment       0x00000000       0x31 Library/sensing/position_estimation.o
 .comment       0x00000000       0x31 Library/sensing/qfilter.o
 .comment       0x00000000       0x31 Library/util/linear_algebra.o
 .comment       0x00000000       0x31 Library/util/matrixlib_float.o
 .comment       0x00000000       0x31 Library/util/quick_trig.o
 .comment       0x00000000       0x31 Private_Library/neighbor_selection.o
 .comment       0x00000000       0x31 Private_Library/orca.o
 .comment       0x00000000       0x31 src/central_data.o
 .comment       0x00000000       0x31 src/mavlink_telemetry.o
 .comment       0x00000000       0x31 src/tasks.o
 .comment       0x00000000       0x31 Library/communication/mavlink_stream.o
 .comment       0x00000000       0x31 Library/communication/onboard_parameters.o
 .comment       0x00000000       0x31 Library/control/navigation.o
 .comment       0x00000000       0x31 Library/control/stabilisation.o
 .comment       0x00000000       0x31 Library/hal/adc_int.o
 .comment       0x00000000       0x31 Library/hal/ads1274.o
 .comment       0x00000000       0x31 Library/hal/bmp085.o
 .comment       0x00000000       0x31 Library/hal/dac_dma.o
 .comment       0x00000000       0x31 Library/hal/led.o
 .comment       0x00000000       0x31 Library/hal/spi_buffered.o
 .comment       0x00000000       0x31 Library/hal/uart_int.o
 .comment       0x00000000       0x31 Library/runtime/scheduler.o
 .comment       0x00000000       0x31 Library/sensing/imu.o
 .comment       0x00000000       0x31 Library/sensing/simulation.o
 .comment       0x00000000       0x31 Library/util/buffer.o
 .comment       0x00000000       0x31 Library/util/coord_conventions.o
 .comment       0x00000000       0x31 Library/util/generator.o
 .comment       0x00000000       0x31 Library/util/print_util.o
 .comment       0x00000000       0x31 Library/util/sinus.o
 .comment       0x00000000       0x31 src/asf/avr32/drivers/adcifa/adcifa.o
 .comment       0x00000000       0x31 src/asf/avr32/drivers/ast/ast.o
 .comment       0x00000000       0x31 src/asf/avr32/drivers/dacifb/dacifb.o
 .comment       0x00000000       0x31 src/asf/avr32/drivers/eic/eic.o
 .comment       0x00000000       0x31 src/asf/avr32/drivers/flashc/flashc.o
 .comment       0x00000000       0x31 src/asf/avr32/drivers/gpio/gpio.o
 .comment       0x00000000       0x31 src/asf/avr32/drivers/intc/intc.o
 .comment       0x00000000       0x31 src/asf/avr32/drivers/pdca/pdca.o
 .comment       0x00000000       0x31 src/asf/avr32/drivers/pevc/pevc.o
 .comment       0x00000000       0x31 src/asf/avr32/drivers/pm/pm_uc3c.o
 .comment       0x00000000       0x31 src/asf/avr32/drivers/pm/power_clocks_lib.o
 .comment       0x00000000       0x31 src/asf/avr32/drivers/pwm/pwm4.o
 .comment       0x00000000       0x31 src/asf/avr32/drivers/scif/scif_uc3c.o
 .comment       0x00000000       0x31 src/asf/avr32/drivers/spi/spi.o
 .comment       0x00000000       0x31 src/asf/avr32/drivers/tc/tc.o
 .comment       0x00000000       0x31 src/asf/avr32/drivers/twim/twim.o
 .comment       0x00000000       0x31 src/asf/avr32/drivers/usart/usart.o
 .comment       0x00000000       0x31 src/asf/avr32/drivers/usbc/usbc_device.o
 .comment       0x00000000       0x31 src/asf/avr32/services/delay/delay.o
 .comment       0x00000000       0x31 src/asf/common/boards/user_board/init.o
 .comment       0x00000000       0x31 src/asf/common/services/clock/uc3c/osc.o
 .comment       0x00000000       0x31 src/asf/common/services/clock/uc3c/pll.o
 .comment       0x00000000       0x31 src/asf/common/services/clock/uc3c/sysclk.o
 .comment       0x00000000       0x31 src/asf/common/services/sleepmgr/uc3/sleepmgr.o
 .comment       0x00000000       0x31 src/asf/common/services/spi/uc3_spi/spi_master.o
 .comment       0x00000000       0x31 src/asf/common/services/usb/class/cdc/device/udi_cdc.o
 .comment       0x00000000       0x31 src/asf/common/services/usb/class/cdc/device/udi_cdc_desc.o
 .comment       0x00000000       0x31 src/asf/common/services/usb/udc/udc.o
 .comment       0x00000000       0x31 src/asf/common/utils/stdio/read.o
 .comment       0x00000000       0x31 src/asf/common/utils/stdio/stdio_usb/stdio_usb.o
 .comment       0x00000000       0x31 src/asf/common/utils/stdio/write.o
 .comment       0x00000000       0x31 src/boardsupport.o
 .comment       0x00000000       0x31 src/main.o
 .comment       0x00000000       0x31 c:/program files (x86)/atmel/atmel toolchain/avr32 gcc/native/3.4.2.1002/avr32-gnu-toolchain/bin/../lib/gcc/avr32/4.4.7/../../../../avr32/lib/ucr3fp\libm.a(lib_a-s_cos.o)
 .comment       0x00000000       0x31 c:/program files (x86)/atmel/atmel toolchain/avr32 gcc/native/3.4.2.1002/avr32-gnu-toolchain/bin/../lib/gcc/avr32/4.4.7/../../../../avr32/lib/ucr3fp\libm.a(lib_a-s_floor.o)
 .comment       0x00000000       0x31 c:/program files (x86)/atmel/atmel toolchain/avr32 gcc/native/3.4.2.1002/avr32-gnu-toolchain/bin/../lib/gcc/avr32/4.4.7/../../../../avr32/lib/ucr3fp\libm.a(lib_a-s_sin.o)
 .comment       0x00000000       0x31 c:/program files (x86)/atmel/atmel toolchain/avr32 gcc/native/3.4.2.1002/avr32-gnu-toolchain/bin/../lib/gcc/avr32/4.4.7/../../../../avr32/lib/ucr3fp\libm.a(lib_a-w_asin.o)
 .comment       0x00000000       0x31 c:/program files (x86)/atmel/atmel toolchain/avr32 gcc/native/3.4.2.1002/avr32-gnu-toolchain/bin/../lib/gcc/avr32/4.4.7/../../../../avr32/lib/ucr3fp\libm.a(lib_a-w_atan2.o)
 .comment       0x00000000       0x31 c:/program files (x86)/atmel/atmel toolchain/avr32 gcc/native/3.4.2.1002/avr32-gnu-toolchain/bin/../lib/gcc/avr32/4.4.7/../../../../avr32/lib/ucr3fp\libm.a(lib_a-w_fmod.o)
 .comment       0x00000000       0x31 c:/program files (x86)/atmel/atmel toolchain/avr32 gcc/native/3.4.2.1002/avr32-gnu-toolchain/bin/../lib/gcc/avr32/4.4.7/../../../../avr32/lib/ucr3fp\libm.a(lib_a-w_pow.o)
 .comment       0x00000000       0x31 c:/program files (x86)/atmel/atmel toolchain/avr32 gcc/native/3.4.2.1002/avr32-gnu-toolchain/bin/../lib/gcc/avr32/4.4.7/../../../../avr32/lib/ucr3fp\libm.a(lib_a-w_sqrt.o)
 .comment       0x00000000       0x31 c:/program files (x86)/atmel/atmel toolchain/avr32 gcc/native/3.4.2.1002/avr32-gnu-toolchain/bin/../lib/gcc/avr32/4.4.7/../../../../avr32/lib/ucr3fp\libm.a(lib_a-wf_sqrt.o)
 .comment       0x00000000       0x31 c:/program files (x86)/atmel/atmel toolchain/avr32 gcc/native/3.4.2.1002/avr32-gnu-toolchain/bin/../lib/gcc/avr32/4.4.7/../../../../avr32/lib/ucr3fp\libm.a(lib_a-e_asin.o)
 .comment       0x00000000       0x31 c:/program files (x86)/atmel/atmel toolchain/avr32 gcc/native/3.4.2.1002/avr32-gnu-toolchain/bin/../lib/gcc/avr32/4.4.7/../../../../avr32/lib/ucr3fp\libm.a(lib_a-e_atan2.o)
 .comment       0x00000000       0x31 c:/program files (x86)/atmel/atmel toolchain/avr32 gcc/native/3.4.2.1002/avr32-gnu-toolchain/bin/../lib/gcc/avr32/4.4.7/../../../../avr32/lib/ucr3fp\libm.a(lib_a-e_fmod.o)
 .comment       0x00000000       0x31 c:/program files (x86)/atmel/atmel toolchain/avr32 gcc/native/3.4.2.1002/avr32-gnu-toolchain/bin/../lib/gcc/avr32/4.4.7/../../../../avr32/lib/ucr3fp\libm.a(lib_a-e_pow.o)
 .comment       0x00000000       0x31 c:/program files (x86)/atmel/atmel toolchain/avr32 gcc/native/3.4.2.1002/avr32-gnu-toolchain/bin/../lib/gcc/avr32/4.4.7/../../../../avr32/lib/ucr3fp\libm.a(lib_a-e_rem_pio2.o)
 .comment       0x00000000       0x31 c:/program files (x86)/atmel/atmel toolchain/avr32 gcc/native/3.4.2.1002/avr32-gnu-toolchain/bin/../lib/gcc/avr32/4.4.7/../../../../avr32/lib/ucr3fp\libm.a(lib_a-e_sqrt.o)
 .comment       0x00000000       0x31 c:/program files (x86)/atmel/atmel toolchain/avr32 gcc/native/3.4.2.1002/avr32-gnu-toolchain/bin/../lib/gcc/avr32/4.4.7/../../../../avr32/lib/ucr3fp\libm.a(lib_a-ef_sqrt.o)
 .comment       0x00000000       0x31 c:/program files (x86)/atmel/atmel toolchain/avr32 gcc/native/3.4.2.1002/avr32-gnu-toolchain/bin/../lib/gcc/avr32/4.4.7/../../../../avr32/lib/ucr3fp\libm.a(lib_a-k_cos.o)
 .comment       0x00000000       0x31 c:/program files (x86)/atmel/atmel toolchain/avr32 gcc/native/3.4.2.1002/avr32-gnu-toolchain/bin/../lib/gcc/avr32/4.4.7/../../../../avr32/lib/ucr3fp\libm.a(lib_a-k_rem_pio2.o)
 .comment       0x00000000       0x31 c:/program files (x86)/atmel/atmel toolchain/avr32 gcc/native/3.4.2.1002/avr32-gnu-toolchain/bin/../lib/gcc/avr32/4.4.7/../../../../avr32/lib/ucr3fp\libm.a(lib_a-k_sin.o)
 .comment       0x00000000       0x31 c:/program files (x86)/atmel/atmel toolchain/avr32 gcc/native/3.4.2.1002/avr32-gnu-toolchain/bin/../lib/gcc/avr32/4.4.7/../../../../avr32/lib/ucr3fp\libm.a(lib_a-s_atan.o)
 .comment       0x00000000       0x31 c:/program files (x86)/atmel/atmel toolchain/avr32 gcc/native/3.4.2.1002/avr32-gnu-toolchain/bin/../lib/gcc/avr32/4.4.7/../../../../avr32/lib/ucr3fp\libm.a(lib_a-s_fabs.o)
 .comment       0x00000000       0x31 c:/program files (x86)/atmel/atmel toolchain/avr32 gcc/native/3.4.2.1002/avr32-gnu-toolchain/bin/../lib/gcc/avr32/4.4.7/../../../../avr32/lib/ucr3fp\libm.a(lib_a-s_finite.o)
 .comment       0x00000000       0x31 c:/program files (x86)/atmel/atmel toolchain/avr32 gcc/native/3.4.2.1002/avr32-gnu-toolchain/bin/../lib/gcc/avr32/4.4.7/../../../../avr32/lib/ucr3fp\libm.a(lib_a-s_isnand.o)
 .comment       0x00000000       0x31 c:/program files (x86)/atmel/atmel toolchain/avr32 gcc/native/3.4.2.1002/avr32-gnu-toolchain/bin/../lib/gcc/avr32/4.4.7/../../../../avr32/lib/ucr3fp\libm.a(lib_a-s_lib_ver.o)
 .comment       0x00000000       0x31 c:/program files (x86)/atmel/atmel toolchain/avr32 gcc/native/3.4.2.1002/avr32-gnu-toolchain/bin/../lib/gcc/avr32/4.4.7/../../../../avr32/lib/ucr3fp\libm.a(lib_a-s_matherr.o)
 .comment       0x00000000       0x31 c:/program files (x86)/atmel/atmel toolchain/avr32 gcc/native/3.4.2.1002/avr32-gnu-toolchain/bin/../lib/gcc/avr32/4.4.7/../../../../avr32/lib/ucr3fp\libm.a(lib_a-s_nan.o)
 .comment       0x00000000       0x31 c:/program files (x86)/atmel/atmel toolchain/avr32 gcc/native/3.4.2.1002/avr32-gnu-toolchain/bin/../lib/gcc/avr32/4.4.7/../../../../avr32/lib/ucr3fp\libm.a(lib_a-s_rint.o)
 .comment       0x00000000       0x31 c:/program files (x86)/atmel/atmel toolchain/avr32 gcc/native/3.4.2.1002/avr32-gnu-toolchain/bin/../lib/gcc/avr32/4.4.7/../../../../avr32/lib/ucr3fp\libm.a(lib_a-s_scalbn.o)
 .comment       0x00000000       0x31 c:/program files (x86)/atmel/atmel toolchain/avr32 gcc/native/3.4.2.1002/avr32-gnu-toolchain/bin/../lib/gcc/avr32/4.4.7/../../../../avr32/lib/ucr3fp\libm.a(lib_a-sf_isnan.o)
 .comment       0x00000000       0x31 c:/program files (x86)/atmel/atmel toolchain/avr32 gcc/native/3.4.2.1002/avr32-gnu-toolchain/bin/../lib/gcc/avr32/4.4.7/../../../../avr32/lib/ucr3fp\libm.a(lib_a-s_copysign.o)
 .comment       0x00000000       0x31 c:/program files (x86)/atmel/atmel toolchain/avr32 gcc/native/3.4.2.1002/avr32-gnu-toolchain/bin/../lib/gcc/avr32/4.4.7/ucr3fp\libgcc.a(_floatdidf.o)
 .comment       0x00000000       0x31 c:/program files (x86)/atmel/atmel toolchain/avr32 gcc/native/3.4.2.1002/avr32-gnu-toolchain/bin/../lib/gcc/avr32/4.4.7/ucr3fp\libgcc.a(_divdi3.o)
 .comment       0x00000000       0x31 c:/program files (x86)/atmel/atmel toolchain/avr32 gcc/native/3.4.2.1002/avr32-gnu-toolchain/bin/../lib/gcc/avr32/4.4.7/ucr3fp\libgcc.a(_moddi3.o)
 .comment       0x00000000       0x31 c:/program files (x86)/atmel/atmel toolchain/avr32 gcc/native/3.4.2.1002/avr32-gnu-toolchain/bin/../lib/gcc/avr32/4.4.7/ucr3fp\libgcc.a(_udivdi3.o)
 .comment       0x00000000       0x31 c:/program files (x86)/atmel/atmel toolchain/avr32 gcc/native/3.4.2.1002/avr32-gnu-toolchain/bin/../lib/gcc/avr32/4.4.7/ucr3fp\libgcc.a(_umoddi3.o)
 .comment       0x00000000       0x31 c:/program files (x86)/atmel/atmel toolchain/avr32 gcc/native/3.4.2.1002/avr32-gnu-toolchain/bin/../lib/gcc/avr32/4.4.7/../../../../avr32/lib/ucr3fp\libc.a(lib_a-errno.o)
 .comment       0x00000000       0x31 c:/program files (x86)/atmel/atmel toolchain/avr32 gcc/native/3.4.2.1002/avr32-gnu-toolchain/bin/../lib/gcc/avr32/4.4.7/../../../../avr32/lib/ucr3fp\libc.a(lib_a-impure.o)
 .comment       0x00000000       0x31 c:/program files (x86)/atmel/atmel toolchain/avr32 gcc/native/3.4.2.1002/avr32-gnu-toolchain/bin/../lib/gcc/avr32/4.4.7/../../../../avr32/lib/ucr3fp\libc.a(lib_a-malloc.o)
 .comment       0x00000000       0x31 c:/program files (x86)/atmel/atmel toolchain/avr32 gcc/native/3.4.2.1002/avr32-gnu-toolchain/bin/../lib/gcc/avr32/4.4.7/../../../../avr32/lib/ucr3fp\libc.a(lib_a-mallocr.o)
 .comment       0x00000000       0x31 c:/program files (x86)/atmel/atmel toolchain/avr32 gcc/native/3.4.2.1002/avr32-gnu-toolchain/bin/../lib/gcc/avr32/4.4.7/../../../../avr32/lib/ucr3fp\libc.a(lib_a-memset.o)
 .comment       0x00000000       0x31 c:/program files (x86)/atmel/atmel toolchain/avr32 gcc/native/3.4.2.1002/avr32-gnu-toolchain/bin/../lib/gcc/avr32/4.4.7/../../../../avr32/lib/ucr3fp\libc.a(lib_a-mlock.o)
 .comment       0x00000000       0x31 c:/program files (x86)/atmel/atmel toolchain/avr32 gcc/native/3.4.2.1002/avr32-gnu-toolchain/bin/../lib/gcc/avr32/4.4.7/../../../../avr32/lib/ucr3fp\libc.a(lib_a-sbrkr.o)
 .comment       0x00000000       0x31 c:/program files (x86)/atmel/atmel toolchain/avr32 gcc/native/3.4.2.1002/avr32-gnu-toolchain/bin/../lib/gcc/avr32/4.4.7/../../../../avr32/lib/ucr3fp\libc.a(lib_a-snprintf.o)
 .comment       0x00000000       0x31 c:/program files (x86)/atmel/atmel toolchain/avr32 gcc/native/3.4.2.1002/avr32-gnu-toolchain/bin/../lib/gcc/avr32/4.4.7/../../../../avr32/lib/ucr3fp\libc.a(lib_a-strcpy.o)
 .comment       0x00000000       0x31 c:/program files (x86)/atmel/atmel toolchain/avr32 gcc/native/3.4.2.1002/avr32-gnu-toolchain/bin/../lib/gcc/avr32/4.4.7/../../../../avr32/lib/ucr3fp\libc.a(lib_a-strlen.o)
 .comment       0x00000000       0x31 c:/program files (x86)/atmel/atmel toolchain/avr32 gcc/native/3.4.2.1002/avr32-gnu-toolchain/bin/../lib/gcc/avr32/4.4.7/../../../../avr32/lib/ucr3fp\libc.a(lib_a-syscalls.o)
 .comment       0x00000000       0x31 c:/program files (x86)/atmel/atmel toolchain/avr32 gcc/native/3.4.2.1002/avr32-gnu-toolchain/bin/../lib/gcc/avr32/4.4.7/../../../../avr32/lib/ucr3fp\libc.a(lib_a-vfprintf.o)
 .comment       0x00000000       0x31 c:/program files (x86)/atmel/atmel toolchain/avr32 gcc/native/3.4.2.1002/avr32-gnu-toolchain/bin/../lib/gcc/avr32/4.4.7/../../../../avr32/lib/ucr3fp\libc.a(lib_a-wsetup.o)
 .comment       0x00000000       0x31 c:/program files (x86)/atmel/atmel toolchain/avr32 gcc/native/3.4.2.1002/avr32-gnu-toolchain/bin/../lib/gcc/avr32/4.4.7/../../../../avr32/lib/ucr3fp\libc.a(lib_a-dtoa.o)
 .comment       0x00000000       0x31 c:/program files (x86)/atmel/atmel toolchain/avr32 gcc/native/3.4.2.1002/avr32-gnu-toolchain/bin/../lib/gcc/avr32/4.4.7/../../../../avr32/lib/ucr3fp\libc.a(lib_a-fflush.o)
 .comment       0x00000000       0x31 c:/program files (x86)/atmel/atmel toolchain/avr32 gcc/native/3.4.2.1002/avr32-gnu-toolchain/bin/../lib/gcc/avr32/4.4.7/../../../../avr32/lib/ucr3fp\libc.a(lib_a-findfp.o)
 .comment       0x00000000       0x31 c:/program files (x86)/atmel/atmel toolchain/avr32 gcc/native/3.4.2.1002/avr32-gnu-toolchain/bin/../lib/gcc/avr32/4.4.7/../../../../avr32/lib/ucr3fp\libc.a(lib_a-freer.o)
 .comment       0x00000000       0x31 c:/program files (x86)/atmel/atmel toolchain/avr32 gcc/native/3.4.2.1002/avr32-gnu-toolchain/bin/../lib/gcc/avr32/4.4.7/../../../../avr32/lib/ucr3fp\libc.a(lib_a-fvwrite.o)
 .comment       0x00000000       0x31 c:/program files (x86)/atmel/atmel toolchain/avr32 gcc/native/3.4.2.1002/avr32-gnu-toolchain/bin/../lib/gcc/avr32/4.4.7/../../../../avr32/lib/ucr3fp\libc.a(lib_a-fwalk.o)
 .comment       0x00000000       0x31 c:/program files (x86)/atmel/atmel toolchain/avr32 gcc/native/3.4.2.1002/avr32-gnu-toolchain/bin/../lib/gcc/avr32/4.4.7/../../../../avr32/lib/ucr3fp\libc.a(lib_a-locale.o)
 .comment       0x00000000       0x31 c:/program files (x86)/atmel/atmel toolchain/avr32 gcc/native/3.4.2.1002/avr32-gnu-toolchain/bin/../lib/gcc/avr32/4.4.7/../../../../avr32/lib/ucr3fp\libc.a(lib_a-makebuf.o)
 .comment       0x00000000       0x31 c:/program files (x86)/atmel/atmel toolchain/avr32 gcc/native/3.4.2.1002/avr32-gnu-toolchain/bin/../lib/gcc/avr32/4.4.7/../../../../avr32/lib/ucr3fp\libc.a(lib_a-memchr.o)
 .comment       0x00000000       0x31 c:/program files (x86)/atmel/atmel toolchain/avr32 gcc/native/3.4.2.1002/avr32-gnu-toolchain/bin/../lib/gcc/avr32/4.4.7/../../../../avr32/lib/ucr3fp\libc.a(lib_a-memmove.o)
 .comment       0x00000000       0x31 c:/program files (x86)/atmel/atmel toolchain/avr32 gcc/native/3.4.2.1002/avr32-gnu-toolchain/bin/../lib/gcc/avr32/4.4.7/../../../../avr32/lib/ucr3fp\libc.a(lib_a-mprec.o)
 .comment       0x00000000       0x31 c:/program files (x86)/atmel/atmel toolchain/avr32 gcc/native/3.4.2.1002/avr32-gnu-toolchain/bin/../lib/gcc/avr32/4.4.7/../../../../avr32/lib/ucr3fp\libc.a(lib_a-reallocr.o)
 .comment       0x00000000       0x31 c:/program files (x86)/atmel/atmel toolchain/avr32 gcc/native/3.4.2.1002/avr32-gnu-toolchain/bin/../lib/gcc/avr32/4.4.7/../../../../avr32/lib/ucr3fp\libc.a(lib_a-reent.o)
 .comment       0x00000000       0x31 c:/program files (x86)/atmel/atmel toolchain/avr32 gcc/native/3.4.2.1002/avr32-gnu-toolchain/bin/../lib/gcc/avr32/4.4.7/../../../../avr32/lib/ucr3fp\libc.a(lib_a-s_isinfd.o)
 .comment       0x00000000       0x31 c:/program files (x86)/atmel/atmel toolchain/avr32 gcc/native/3.4.2.1002/avr32-gnu-toolchain/bin/../lib/gcc/avr32/4.4.7/../../../../avr32/lib/ucr3fp\libc.a(lib_a-stdio.o)
 .comment       0x00000000       0x31 c:/program files (x86)/atmel/atmel toolchain/avr32 gcc/native/3.4.2.1002/avr32-gnu-toolchain/bin/../lib/gcc/avr32/4.4.7/../../../../avr32/lib/ucr3fp\libc.a(lib_a-writer.o)
 .comment       0x00000000       0x31 c:/program files (x86)/atmel/atmel toolchain/avr32 gcc/native/3.4.2.1002/avr32-gnu-toolchain/bin/../lib/gcc/avr32/4.4.7/../../../../avr32/lib/ucr3fp\libc.a(lib_a-callocr.o)
 .comment       0x00000000       0x31 c:/program files (x86)/atmel/atmel toolchain/avr32 gcc/native/3.4.2.1002/avr32-gnu-toolchain/bin/../lib/gcc/avr32/4.4.7/../../../../avr32/lib/ucr3fp\libc.a(lib_a-closer.o)
 .comment       0x00000000       0x31 c:/program files (x86)/atmel/atmel toolchain/avr32 gcc/native/3.4.2.1002/avr32-gnu-toolchain/bin/../lib/gcc/avr32/4.4.7/../../../../avr32/lib/ucr3fp\libc.a(lib_a-fclose.o)
 .comment       0x00000000       0x31 c:/program files (x86)/atmel/atmel toolchain/avr32 gcc/native/3.4.2.1002/avr32-gnu-toolchain/bin/../lib/gcc/avr32/4.4.7/../../../../avr32/lib/ucr3fp\libc.a(lib_a-fstatr.o)
 .comment       0x00000000       0x31 c:/program files (x86)/atmel/atmel toolchain/avr32 gcc/native/3.4.2.1002/avr32-gnu-toolchain/bin/../lib/gcc/avr32/4.4.7/../../../../avr32/lib/ucr3fp\libc.a(lib_a-lseekr.o)
 .comment       0x00000000       0x31 c:/program files (x86)/atmel/atmel toolchain/avr32 gcc/native/3.4.2.1002/avr32-gnu-toolchain/bin/../lib/gcc/avr32/4.4.7/../../../../avr32/lib/ucr3fp\libc.a(lib_a-readr.o)

.debug
 *(.debug)

.line
 *(.line)

.debug_srcinfo
 *(.debug_srcinfo)

.debug_sfnames
 *(.debug_sfnames)

.debug_aranges  0x00000000     0x16c8
 *(.debug_aranges)
 .debug_aranges
                0x00000000       0x20 Library/communication/console.o
 .debug_aranges
                0x00000020       0x20 Library/communication/data_logging.o
 .debug_aranges
                0x00000040       0x20 Library/communication/hud.o
 .debug_aranges
                0x00000060       0x20 Library/communication/mavlink_communication.o
 .debug_aranges
                0x00000080       0x20 Library/communication/mavlink_message_handler.o
 .debug_aranges
                0x000000a0       0x20 Library/communication/mavlink_waypoint_handler.o
 .debug_aranges
                0x000000c0       0x20 Library/communication/remote.o
 .debug_aranges
                0x000000e0       0x20 Library/communication/state.o
 .debug_aranges
                0x00000100       0x20 Library/communication/state_machine.o
 .debug_aranges
                0x00000120       0x20 Library/control/adaptive_parameter.o
 .debug_aranges
                0x00000140       0x20 Library/control/attitude_controller_p2.o
 .debug_aranges
                0x00000160       0x20 Library/control/attitude_error_estimator.o
 .debug_aranges
                0x00000180       0x20 Library/control/joystick_parsing.o
 .debug_aranges
                0x000001a0       0x20 Library/control/pid_control.o
 .debug_aranges
                0x000001c0       0x20 Library/control/servos_mix_quadcopter_cross.o
 .debug_aranges
                0x000001e0       0x20 Library/control/servos_mix_quadcopter_diag.o
 .debug_aranges
                0x00000200       0x20 Library/control/stabilisation_copter.o
 .debug_aranges
                0x00000220       0x20 Library/hal/analog_monitor.o
 .debug_aranges
                0x00000240       0x20 Library/hal/fat_fs/diskio.o
 .debug_aranges
                0x00000260       0x20 Library/hal/fat_fs/ff.o
 .debug_aranges
                0x00000280       0x20 Library/hal/fat_fs/option/ccsbcs.o
 .debug_aranges
                0x000002a0       0x20 Library/hal/fat_fs/option/syscall.o
 .debug_aranges
                0x000002c0       0x20 Library/hal/gps_ublox.o
 .debug_aranges
                0x000002e0       0x20 Library/hal/hmc5883l.o
 .debug_aranges
                0x00000300       0x20 Library/hal/i2c_driver_int.o
 .debug_aranges
                0x00000320       0x20 Library/hal/lsm330dlc.o
 .debug_aranges
                0x00000340       0x20 Library/hal/piezo_speaker.o
 .debug_aranges
                0x00000360       0x20 Library/hal/pwm_servos.o
 .debug_aranges
                0x00000380       0x20 Library/hal/sd_spi.o
 .debug_aranges
                0x000003a0       0x20 Library/hal/servos.o
 .debug_aranges
                0x000003c0       0x20 Library/hal/sonar_i2cxl.o
 .debug_aranges
                0x000003e0       0x20 Library/hal/spektrum_satellite.o
 .debug_aranges
                0x00000400       0x20 Library/hal/time_keeper.o
 .debug_aranges
                0x00000420       0x20 Library/hal/usb_int.o
 .debug_aranges
                0x00000440       0x20 Library/hal/xbee.o
 .debug_aranges
                0x00000460       0x20 Library/sensing/ahrs.o
 .debug_aranges
                0x00000480       0x20 Library/sensing/position_estimation.o
 .debug_aranges
                0x000004a0       0x20 Library/sensing/qfilter.o
 .debug_aranges
                0x000004c0       0x20 Library/util/linear_algebra.o
 .debug_aranges
                0x000004e0       0x20 Library/util/matrixlib_float.o
 .debug_aranges
                0x00000500       0x20 Library/util/quick_trig.o
 .debug_aranges
                0x00000520       0x20 Private_Library/neighbor_selection.o
 .debug_aranges
                0x00000540       0x20 Private_Library/orca.o
 .debug_aranges
                0x00000560       0x20 src/central_data.o
 .debug_aranges
                0x00000580       0x20 src/mavlink_telemetry.o
 .debug_aranges
                0x000005a0       0x20 src/tasks.o
 .debug_aranges
                0x000005c0       0x20 Library/communication/mavlink_stream.o
 .debug_aranges
                0x000005e0       0x20 Library/communication/onboard_parameters.o
 .debug_aranges
                0x00000600       0x20 Library/control/navigation.o
 .debug_aranges
                0x00000620       0x20 Library/control/stabilisation.o
 .debug_aranges
                0x00000640       0x20 Library/hal/adc_int.o
 .debug_aranges
                0x00000660       0x20 Library/hal/ads1274.o
 .debug_aranges
                0x00000680       0x20 Library/hal/bmp085.o
 .debug_aranges
                0x000006a0       0x20 Library/hal/dac_dma.o
 .debug_aranges
                0x000006c0       0x20 Library/hal/led.o
 .debug_aranges
                0x000006e0       0x20 Library/hal/spi_buffered.o
 .debug_aranges
                0x00000700       0x20 Library/hal/uart_int.o
 .debug_aranges
                0x00000720       0x20 Library/runtime/scheduler.o
 .debug_aranges
                0x00000740       0x20 Library/sensing/imu.o
 .debug_aranges
                0x00000760       0x20 Library/sensing/simulation.o
 .debug_aranges
                0x00000780       0x20 Library/util/buffer.o
 .debug_aranges
                0x000007a0       0x20 Library/util/coord_conventions.o
 .debug_aranges
                0x000007c0       0x20 Library/util/generator.o
 .debug_aranges
                0x000007e0       0x20 Library/util/print_util.o
 .debug_aranges
                0x00000800       0x20 src/asf/avr32/drivers/adcifa/adcifa.o
 .debug_aranges
                0x00000820       0x20 src/asf/avr32/drivers/ast/ast.o
 .debug_aranges
                0x00000840       0x20 src/asf/avr32/drivers/dacifb/dacifb.o
 .debug_aranges
                0x00000860       0x20 src/asf/avr32/drivers/eic/eic.o
 .debug_aranges
                0x00000880       0x20 src/asf/avr32/drivers/flashc/flashc.o
 .debug_aranges
                0x000008a0       0x20 src/asf/avr32/drivers/gpio/gpio.o
 .debug_aranges
                0x000008c0       0x20 src/asf/avr32/drivers/intc/intc.o
 .debug_aranges
                0x000008e0       0x20 src/asf/avr32/drivers/pdca/pdca.o
 .debug_aranges
                0x00000900       0x20 src/asf/avr32/drivers/pevc/pevc.o
 .debug_aranges
                0x00000920       0x20 src/asf/avr32/drivers/pm/pm_uc3c.o
 .debug_aranges
                0x00000940       0x20 src/asf/avr32/drivers/pm/power_clocks_lib.o
 .debug_aranges
                0x00000960       0x20 src/asf/avr32/drivers/pwm/pwm4.o
 .debug_aranges
                0x00000980       0x20 src/asf/avr32/drivers/scif/scif_uc3c.o
 .debug_aranges
                0x000009a0       0x20 src/asf/avr32/drivers/spi/spi.o
 .debug_aranges
                0x000009c0       0x20 src/asf/avr32/drivers/tc/tc.o
 .debug_aranges
                0x000009e0       0x20 src/asf/avr32/drivers/twim/twim.o
 .debug_aranges
                0x00000a00       0x20 src/asf/avr32/drivers/usart/usart.o
 .debug_aranges
                0x00000a20       0x20 src/asf/avr32/drivers/usbc/usbc_device.o
 .debug_aranges
                0x00000a40       0x20 src/asf/avr32/services/delay/delay.o
 .debug_aranges
                0x00000a60       0x20 src/asf/common/boards/user_board/init.o
 .debug_aranges
                0x00000a80       0x20 src/asf/common/services/clock/uc3c/osc.o
 .debug_aranges
                0x00000aa0       0x20 src/asf/common/services/clock/uc3c/pll.o
 .debug_aranges
                0x00000ac0       0x20 src/asf/common/services/clock/uc3c/sysclk.o
 .debug_aranges
                0x00000ae0       0x20 src/asf/common/services/spi/uc3_spi/spi_master.o
 .debug_aranges
                0x00000b00       0x20 src/asf/common/services/usb/class/cdc/device/udi_cdc.o
 .debug_aranges
                0x00000b20       0x20 src/asf/common/services/usb/udc/udc.o
 .debug_aranges
                0x00000b40       0x20 src/asf/common/utils/stdio/read.o
 .debug_aranges
                0x00000b60       0x20 src/asf/common/utils/stdio/stdio_usb/stdio_usb.o
 .debug_aranges
                0x00000b80       0x20 src/asf/common/utils/stdio/write.o
 .debug_aranges
                0x00000ba0       0x20 src/boardsupport.o
 .debug_aranges
                0x00000bc0       0x20 src/main.o
 .debug_aranges
                0x00000be0       0x20 c:/program files (x86)/atmel/atmel toolchain/avr32 gcc/native/3.4.2.1002/avr32-gnu-toolchain/bin/../lib/gcc/avr32/4.4.7/../../../../avr32/lib/ucr3fp\libm.a(lib_a-s_cos.o)
 .debug_aranges
                0x00000c00       0x20 c:/program files (x86)/atmel/atmel toolchain/avr32 gcc/native/3.4.2.1002/avr32-gnu-toolchain/bin/../lib/gcc/avr32/4.4.7/../../../../avr32/lib/ucr3fp\libm.a(lib_a-s_floor.o)
 .debug_aranges
                0x00000c20       0x20 c:/program files (x86)/atmel/atmel toolchain/avr32 gcc/native/3.4.2.1002/avr32-gnu-toolchain/bin/../lib/gcc/avr32/4.4.7/../../../../avr32/lib/ucr3fp\libm.a(lib_a-s_sin.o)
 .debug_aranges
                0x00000c40       0x20 c:/program files (x86)/atmel/atmel toolchain/avr32 gcc/native/3.4.2.1002/avr32-gnu-toolchain/bin/../lib/gcc/avr32/4.4.7/../../../../avr32/lib/ucr3fp\libm.a(lib_a-w_asin.o)
 .debug_aranges
                0x00000c60       0x20 c:/program files (x86)/atmel/atmel toolchain/avr32 gcc/native/3.4.2.1002/avr32-gnu-toolchain/bin/../lib/gcc/avr32/4.4.7/../../../../avr32/lib/ucr3fp\libm.a(lib_a-w_atan2.o)
 .debug_aranges
                0x00000c80       0x20 c:/program files (x86)/atmel/atmel toolchain/avr32 gcc/native/3.4.2.1002/avr32-gnu-toolchain/bin/../lib/gcc/avr32/4.4.7/../../../../avr32/lib/ucr3fp\libm.a(lib_a-w_fmod.o)
 .debug_aranges
                0x00000ca0       0x20 c:/program files (x86)/atmel/atmel toolchain/avr32 gcc/native/3.4.2.1002/avr32-gnu-toolchain/bin/../lib/gcc/avr32/4.4.7/../../../../avr32/lib/ucr3fp\libm.a(lib_a-w_pow.o)
 .debug_aranges
                0x00000cc0       0x20 c:/program files (x86)/atmel/atmel toolchain/avr32 gcc/native/3.4.2.1002/avr32-gnu-toolchain/bin/../lib/gcc/avr32/4.4.7/../../../../avr32/lib/ucr3fp\libm.a(lib_a-w_sqrt.o)
 .debug_aranges
                0x00000ce0       0x20 c:/program files (x86)/atmel/atmel toolchain/avr32 gcc/native/3.4.2.1002/avr32-gnu-toolchain/bin/../lib/gcc/avr32/4.4.7/../../../../avr32/lib/ucr3fp\libm.a(lib_a-wf_sqrt.o)
 .debug_aranges
                0x00000d00       0x20 c:/program files (x86)/atmel/atmel toolchain/avr32 gcc/native/3.4.2.1002/avr32-gnu-toolchain/bin/../lib/gcc/avr32/4.4.7/../../../../avr32/lib/ucr3fp\libm.a(lib_a-e_asin.o)
 .debug_aranges
                0x00000d20       0x20 c:/program files (x86)/atmel/atmel toolchain/avr32 gcc/native/3.4.2.1002/avr32-gnu-toolchain/bin/../lib/gcc/avr32/4.4.7/../../../../avr32/lib/ucr3fp\libm.a(lib_a-e_atan2.o)
 .debug_aranges
                0x00000d40       0x20 c:/program files (x86)/atmel/atmel toolchain/avr32 gcc/native/3.4.2.1002/avr32-gnu-toolchain/bin/../lib/gcc/avr32/4.4.7/../../../../avr32/lib/ucr3fp\libm.a(lib_a-e_fmod.o)
 .debug_aranges
                0x00000d60       0x20 c:/program files (x86)/atmel/atmel toolchain/avr32 gcc/native/3.4.2.1002/avr32-gnu-toolchain/bin/../lib/gcc/avr32/4.4.7/../../../../avr32/lib/ucr3fp\libm.a(lib_a-e_pow.o)
 .debug_aranges
                0x00000d80       0x20 c:/program files (x86)/atmel/atmel toolchain/avr32 gcc/native/3.4.2.1002/avr32-gnu-toolchain/bin/../lib/gcc/avr32/4.4.7/../../../../avr32/lib/ucr3fp\libm.a(lib_a-e_rem_pio2.o)
 .debug_aranges
                0x00000da0       0x20 c:/program files (x86)/atmel/atmel toolchain/avr32 gcc/native/3.4.2.1002/avr32-gnu-toolchain/bin/../lib/gcc/avr32/4.4.7/../../../../avr32/lib/ucr3fp\libm.a(lib_a-e_sqrt.o)
 .debug_aranges
                0x00000dc0       0x20 c:/program files (x86)/atmel/atmel toolchain/avr32 gcc/native/3.4.2.1002/avr32-gnu-toolchain/bin/../lib/gcc/avr32/4.4.7/../../../../avr32/lib/ucr3fp\libm.a(lib_a-ef_sqrt.o)
 .debug_aranges
                0x00000de0       0x20 c:/program files (x86)/atmel/atmel toolchain/avr32 gcc/native/3.4.2.1002/avr32-gnu-toolchain/bin/../lib/gcc/avr32/4.4.7/../../../../avr32/lib/ucr3fp\libm.a(lib_a-k_cos.o)
 .debug_aranges
                0x00000e00       0x20 c:/program files (x86)/atmel/atmel toolchain/avr32 gcc/native/3.4.2.1002/avr32-gnu-toolchain/bin/../lib/gcc/avr32/4.4.7/../../../../avr32/lib/ucr3fp\libm.a(lib_a-k_rem_pio2.o)
 .debug_aranges
                0x00000e20       0x20 c:/program files (x86)/atmel/atmel toolchain/avr32 gcc/native/3.4.2.1002/avr32-gnu-toolchain/bin/../lib/gcc/avr32/4.4.7/../../../../avr32/lib/ucr3fp\libm.a(lib_a-k_sin.o)
 .debug_aranges
                0x00000e40       0x20 c:/program files (x86)/atmel/atmel toolchain/avr32 gcc/native/3.4.2.1002/avr32-gnu-toolchain/bin/../lib/gcc/avr32/4.4.7/../../../../avr32/lib/ucr3fp\libm.a(lib_a-s_atan.o)
 .debug_aranges
                0x00000e60       0x20 c:/program files (x86)/atmel/atmel toolchain/avr32 gcc/native/3.4.2.1002/avr32-gnu-toolchain/bin/../lib/gcc/avr32/4.4.7/../../../../avr32/lib/ucr3fp\libm.a(lib_a-s_fabs.o)
 .debug_aranges
                0x00000e80       0x20 c:/program files (x86)/atmel/atmel toolchain/avr32 gcc/native/3.4.2.1002/avr32-gnu-toolchain/bin/../lib/gcc/avr32/4.4.7/../../../../avr32/lib/ucr3fp\libm.a(lib_a-s_finite.o)
 .debug_aranges
                0x00000ea0       0x20 c:/program files (x86)/atmel/atmel toolchain/avr32 gcc/native/3.4.2.1002/avr32-gnu-toolchain/bin/../lib/gcc/avr32/4.4.7/../../../../avr32/lib/ucr3fp\libm.a(lib_a-s_isnand.o)
 .debug_aranges
                0x00000ec0       0x20 c:/program files (x86)/atmel/atmel toolchain/avr32 gcc/native/3.4.2.1002/avr32-gnu-toolchain/bin/../lib/gcc/avr32/4.4.7/../../../../avr32/lib/ucr3fp\libm.a(lib_a-s_matherr.o)
 .debug_aranges
                0x00000ee0       0x20 c:/program files (x86)/atmel/atmel toolchain/avr32 gcc/native/3.4.2.1002/avr32-gnu-toolchain/bin/../lib/gcc/avr32/4.4.7/../../../../avr32/lib/ucr3fp\libm.a(lib_a-s_nan.o)
 .debug_aranges
                0x00000f00       0x20 c:/program files (x86)/atmel/atmel toolchain/avr32 gcc/native/3.4.2.1002/avr32-gnu-toolchain/bin/../lib/gcc/avr32/4.4.7/../../../../avr32/lib/ucr3fp\libm.a(lib_a-s_rint.o)
 .debug_aranges
                0x00000f20       0x20 c:/program files (x86)/atmel/atmel toolchain/avr32 gcc/native/3.4.2.1002/avr32-gnu-toolchain/bin/../lib/gcc/avr32/4.4.7/../../../../avr32/lib/ucr3fp\libm.a(lib_a-s_scalbn.o)
 .debug_aranges
                0x00000f40       0x20 c:/program files (x86)/atmel/atmel toolchain/avr32 gcc/native/3.4.2.1002/avr32-gnu-toolchain/bin/../lib/gcc/avr32/4.4.7/../../../../avr32/lib/ucr3fp\libm.a(lib_a-sf_isnan.o)
 .debug_aranges
                0x00000f60       0x20 c:/program files (x86)/atmel/atmel toolchain/avr32 gcc/native/3.4.2.1002/avr32-gnu-toolchain/bin/../lib/gcc/avr32/4.4.7/../../../../avr32/lib/ucr3fp\libm.a(lib_a-s_copysign.o)
 .debug_aranges
                0x00000f80       0x20 c:/program files (x86)/atmel/atmel toolchain/avr32 gcc/native/3.4.2.1002/avr32-gnu-toolchain/bin/../lib/gcc/avr32/4.4.7/ucr3fp\libgcc.a(_floatdidf.o)
 .debug_aranges
                0x00000fa0       0x20 c:/program files (x86)/atmel/atmel toolchain/avr32 gcc/native/3.4.2.1002/avr32-gnu-toolchain/bin/../lib/gcc/avr32/4.4.7/ucr3fp\libgcc.a(_divdi3.o)
 .debug_aranges
                0x00000fc0       0x20 c:/program files (x86)/atmel/atmel toolchain/avr32 gcc/native/3.4.2.1002/avr32-gnu-toolchain/bin/../lib/gcc/avr32/4.4.7/ucr3fp\libgcc.a(_moddi3.o)
 .debug_aranges
                0x00000fe0       0x20 c:/program files (x86)/atmel/atmel toolchain/avr32 gcc/native/3.4.2.1002/avr32-gnu-toolchain/bin/../lib/gcc/avr32/4.4.7/ucr3fp\libgcc.a(_udivdi3.o)
 .debug_aranges
                0x00001000       0x20 c:/program files (x86)/atmel/atmel toolchain/avr32 gcc/native/3.4.2.1002/avr32-gnu-toolchain/bin/../lib/gcc/avr32/4.4.7/ucr3fp\libgcc.a(_umoddi3.o)
 .debug_aranges
                0x00001020       0x20 c:/program files (x86)/atmel/atmel toolchain/avr32 gcc/native/3.4.2.1002/avr32-gnu-toolchain/bin/../lib/gcc/avr32/4.4.7/../../../../avr32/lib/ucr3fp\libc.a(lib_a-errno.o)
 .debug_aranges
                0x00001040       0x28 c:/program files (x86)/atmel/atmel toolchain/avr32 gcc/native/3.4.2.1002/avr32-gnu-toolchain/bin/../lib/gcc/avr32/4.4.7/../../../../avr32/lib/ucr3fp\libc.a(lib_a-malloc.o)
 .debug_aranges
                0x00001068       0x20 c:/program files (x86)/atmel/atmel toolchain/avr32 gcc/native/3.4.2.1002/avr32-gnu-toolchain/bin/../lib/gcc/avr32/4.4.7/../../../../avr32/lib/ucr3fp\libc.a(lib_a-mallocr.o)
 .debug_aranges
                0x00001088       0x20 c:/program files (x86)/atmel/atmel toolchain/avr32 gcc/native/3.4.2.1002/avr32-gnu-toolchain/bin/../lib/gcc/avr32/4.4.7/../../../../avr32/lib/ucr3fp\libc.a(lib_a-memset.o)
 .debug_aranges
                0x000010a8       0x28 c:/program files (x86)/atmel/atmel toolchain/avr32 gcc/native/3.4.2.1002/avr32-gnu-toolchain/bin/../lib/gcc/avr32/4.4.7/../../../../avr32/lib/ucr3fp\libc.a(lib_a-mlock.o)
 .debug_aranges
                0x000010d0       0x20 c:/program files (x86)/atmel/atmel toolchain/avr32 gcc/native/3.4.2.1002/avr32-gnu-toolchain/bin/../lib/gcc/avr32/4.4.7/../../../../avr32/lib/ucr3fp\libc.a(lib_a-sbrkr.o)
 .debug_aranges
                0x000010f0       0x28 c:/program files (x86)/atmel/atmel toolchain/avr32 gcc/native/3.4.2.1002/avr32-gnu-toolchain/bin/../lib/gcc/avr32/4.4.7/../../../../avr32/lib/ucr3fp\libc.a(lib_a-snprintf.o)
 .debug_aranges
                0x00001118       0x20 c:/program files (x86)/atmel/atmel toolchain/avr32 gcc/native/3.4.2.1002/avr32-gnu-toolchain/bin/../lib/gcc/avr32/4.4.7/../../../../avr32/lib/ucr3fp\libc.a(lib_a-strcpy.o)
 .debug_aranges
                0x00001138       0x20 c:/program files (x86)/atmel/atmel toolchain/avr32 gcc/native/3.4.2.1002/avr32-gnu-toolchain/bin/../lib/gcc/avr32/4.4.7/../../../../avr32/lib/ucr3fp\libc.a(lib_a-strlen.o)
 .debug_aranges
                0x00001158       0xf8 c:/program files (x86)/atmel/atmel toolchain/avr32 gcc/native/3.4.2.1002/avr32-gnu-toolchain/bin/../lib/gcc/avr32/4.4.7/../../../../avr32/lib/ucr3fp\libc.a(lib_a-syscalls.o)
 .debug_aranges
                0x00001250       0x38 c:/program files (x86)/atmel/atmel toolchain/avr32 gcc/native/3.4.2.1002/avr32-gnu-toolchain/bin/../lib/gcc/avr32/4.4.7/../../../../avr32/lib/ucr3fp\libc.a(lib_a-vfprintf.o)
 .debug_aranges
                0x00001288       0x20 c:/program files (x86)/atmel/atmel toolchain/avr32 gcc/native/3.4.2.1002/avr32-gnu-toolchain/bin/../lib/gcc/avr32/4.4.7/../../../../avr32/lib/ucr3fp\libc.a(lib_a-wsetup.o)
 .debug_aranges
                0x000012a8       0x28 c:/program files (x86)/atmel/atmel toolchain/avr32 gcc/native/3.4.2.1002/avr32-gnu-toolchain/bin/../lib/gcc/avr32/4.4.7/../../../../avr32/lib/ucr3fp\libc.a(lib_a-dtoa.o)
 .debug_aranges
                0x000012d0       0x28 c:/program files (x86)/atmel/atmel toolchain/avr32 gcc/native/3.4.2.1002/avr32-gnu-toolchain/bin/../lib/gcc/avr32/4.4.7/../../../../avr32/lib/ucr3fp\libc.a(lib_a-fflush.o)
 .debug_aranges
                0x000012f8       0x80 c:/program files (x86)/atmel/atmel toolchain/avr32 gcc/native/3.4.2.1002/avr32-gnu-toolchain/bin/../lib/gcc/avr32/4.4.7/../../../../avr32/lib/ucr3fp\libc.a(lib_a-findfp.o)
 .debug_aranges
                0x00001378       0x28 c:/program files (x86)/atmel/atmel toolchain/avr32 gcc/native/3.4.2.1002/avr32-gnu-toolchain/bin/../lib/gcc/avr32/4.4.7/../../../../avr32/lib/ucr3fp\libc.a(lib_a-freer.o)
 .debug_aranges
                0x000013a0       0x20 c:/program files (x86)/atmel/atmel toolchain/avr32 gcc/native/3.4.2.1002/avr32-gnu-toolchain/bin/../lib/gcc/avr32/4.4.7/../../../../avr32/lib/ucr3fp\libc.a(lib_a-fvwrite.o)
 .debug_aranges
                0x000013c0       0x28 c:/program files (x86)/atmel/atmel toolchain/avr32 gcc/native/3.4.2.1002/avr32-gnu-toolchain/bin/../lib/gcc/avr32/4.4.7/../../../../avr32/lib/ucr3fp\libc.a(lib_a-fwalk.o)
 .debug_aranges
                0x000013e8       0x40 c:/program files (x86)/atmel/atmel toolchain/avr32 gcc/native/3.4.2.1002/avr32-gnu-toolchain/bin/../lib/gcc/avr32/4.4.7/../../../../avr32/lib/ucr3fp\libc.a(lib_a-locale.o)
 .debug_aranges
                0x00001428       0x20 c:/program files (x86)/atmel/atmel toolchain/avr32 gcc/native/3.4.2.1002/avr32-gnu-toolchain/bin/../lib/gcc/avr32/4.4.7/../../../../avr32/lib/ucr3fp\libc.a(lib_a-makebuf.o)
 .debug_aranges
                0x00001448       0x20 c:/program files (x86)/atmel/atmel toolchain/avr32 gcc/native/3.4.2.1002/avr32-gnu-toolchain/bin/../lib/gcc/avr32/4.4.7/../../../../avr32/lib/ucr3fp\libc.a(lib_a-memchr.o)
 .debug_aranges
                0x00001468       0x20 c:/program files (x86)/atmel/atmel toolchain/avr32 gcc/native/3.4.2.1002/avr32-gnu-toolchain/bin/../lib/gcc/avr32/4.4.7/../../../../avr32/lib/ucr3fp\libc.a(lib_a-memmove.o)
 .debug_aranges
                0x00001488       0xb0 c:/program files (x86)/atmel/atmel toolchain/avr32 gcc/native/3.4.2.1002/avr32-gnu-toolchain/bin/../lib/gcc/avr32/4.4.7/../../../../avr32/lib/ucr3fp\libc.a(lib_a-mprec.o)
 .debug_aranges
                0x00001538       0x20 c:/program files (x86)/atmel/atmel toolchain/avr32 gcc/native/3.4.2.1002/avr32-gnu-toolchain/bin/../lib/gcc/avr32/4.4.7/../../../../avr32/lib/ucr3fp\libc.a(lib_a-reallocr.o)
 .debug_aranges
                0x00001558       0x30 c:/program files (x86)/atmel/atmel toolchain/avr32 gcc/native/3.4.2.1002/avr32-gnu-toolchain/bin/../lib/gcc/avr32/4.4.7/../../../../avr32/lib/ucr3fp\libc.a(lib_a-reent.o)
 .debug_aranges
                0x00001588       0x20 c:/program files (x86)/atmel/atmel toolchain/avr32 gcc/native/3.4.2.1002/avr32-gnu-toolchain/bin/../lib/gcc/avr32/4.4.7/../../../../avr32/lib/ucr3fp\libc.a(lib_a-s_isinfd.o)
 .debug_aranges
                0x000015a8       0x38 c:/program files (x86)/atmel/atmel toolchain/avr32 gcc/native/3.4.2.1002/avr32-gnu-toolchain/bin/../lib/gcc/avr32/4.4.7/../../../../avr32/lib/ucr3fp\libc.a(lib_a-stdio.o)
 .debug_aranges
                0x000015e0       0x20 c:/program files (x86)/atmel/atmel toolchain/avr32 gcc/native/3.4.2.1002/avr32-gnu-toolchain/bin/../lib/gcc/avr32/4.4.7/../../../../avr32/lib/ucr3fp\libc.a(lib_a-writer.o)
 .debug_aranges
                0x00001600       0x20 c:/program files (x86)/atmel/atmel toolchain/avr32 gcc/native/3.4.2.1002/avr32-gnu-toolchain/bin/../lib/gcc/avr32/4.4.7/../../../../avr32/lib/ucr3fp\libc.a(lib_a-callocr.o)
 .debug_aranges
                0x00001620       0x20 c:/program files (x86)/atmel/atmel toolchain/avr32 gcc/native/3.4.2.1002/avr32-gnu-toolchain/bin/../lib/gcc/avr32/4.4.7/../../../../avr32/lib/ucr3fp\libc.a(lib_a-closer.o)
 .debug_aranges
                0x00001640       0x28 c:/program files (x86)/atmel/atmel toolchain/avr32 gcc/native/3.4.2.1002/avr32-gnu-toolchain/bin/../lib/gcc/avr32/4.4.7/../../../../avr32/lib/ucr3fp\libc.a(lib_a-fclose.o)
 .debug_aranges
                0x00001668       0x20 c:/program files (x86)/atmel/atmel toolchain/avr32 gcc/native/3.4.2.1002/avr32-gnu-toolchain/bin/../lib/gcc/avr32/4.4.7/../../../../avr32/lib/ucr3fp\libc.a(lib_a-fstatr.o)
 .debug_aranges
                0x00001688       0x20 c:/program files (x86)/atmel/atmel toolchain/avr32 gcc/native/3.4.2.1002/avr32-gnu-toolchain/bin/../lib/gcc/avr32/4.4.7/../../../../avr32/lib/ucr3fp\libc.a(lib_a-lseekr.o)
 .debug_aranges
                0x000016a8       0x20 c:/program files (x86)/atmel/atmel toolchain/avr32 gcc/native/3.4.2.1002/avr32-gnu-toolchain/bin/../lib/gcc/avr32/4.4.7/../../../../avr32/lib/ucr3fp\libc.a(lib_a-readr.o)

.debug_pubnames
                0x00000000     0x8825
 *(.debug_pubnames)
 .debug_pubnames
                0x00000000       0x9b Library/communication/console.o
 .debug_pubnames
                0x0000009b      0x1da Library/communication/data_logging.o
 .debug_pubnames
                0x00000275      0x145 Library/communication/hud.o
 .debug_pubnames
                0x000003ba       0x7f Library/communication/mavlink_communication.o
 .debug_pubnames
                0x00000439      0x109 Library/communication/mavlink_message_handler.o
 .debug_pubnames
                0x00000542      0x212 Library/communication/mavlink_waypoint_handler.o
 .debug_pubnames
                0x00000754      0x119 Library/communication/remote.o
 .debug_pubnames
                0x0000086d       0x50 Library/communication/state.o
 .debug_pubnames
                0x000008bd      0x153 Library/communication/state_machine.o
 .debug_pubnames
                0x00000a10       0xc2 Library/control/adaptive_parameter.o
 .debug_pubnames
                0x00000ad2       0x54 Library/control/attitude_controller_p2.o
 .debug_pubnames
                0x00000b26       0xe9 Library/control/attitude_error_estimator.o
 .debug_pubnames
                0x00000c0f      0x13f Library/control/joystick_parsing.o
 .debug_pubnames
                0x00000d4e       0x8c Library/control/pid_control.o
 .debug_pubnames
                0x00000dda       0x5d Library/control/servos_mix_quadcopter_cross.o
 .debug_pubnames
                0x00000e37       0x5b Library/control/servos_mix_quadcopter_diag.o
 .debug_pubnames
                0x00000e92      0x1f6 Library/control/stabilisation_copter.o
 .debug_pubnames
                0x00001088       0xa4 Library/hal/analog_monitor.o
 .debug_pubnames
                0x0000112c       0x84 Library/hal/fat_fs/diskio.o
 .debug_pubnames
                0x000011b0      0x149 Library/hal/fat_fs/ff.o
 .debug_pubnames
                0x000012f9       0x31 Library/hal/fat_fs/option/ccsbcs.o
 .debug_pubnames
                0x0000132a       0x31 Library/hal/fat_fs/option/syscall.o
 .debug_pubnames
                0x0000135b      0x7ed Library/hal/gps_ublox.o
 .debug_pubnames
                0x00001b48       0x3d Library/hal/hmc5883l.o
 .debug_pubnames
                0x00001b85       0xa1 Library/hal/i2c_driver_int.o
 .debug_pubnames
                0x00001c26       0x58 Library/hal/lsm330dlc.o
 .debug_pubnames
                0x00001c7e      0x102 Library/hal/piezo_speaker.o
 .debug_pubnames
                0x00001d80       0xb0 Library/hal/pwm_servos.o
 .debug_pubnames
                0x00001e30      0x252 Library/hal/sd_spi.o
 .debug_pubnames
                0x00002082       0x6d Library/hal/servos.o
 .debug_pubnames
                0x000020ef      0x131 Library/hal/sonar_i2cxl.o
 .debug_pubnames
                0x00002220      0x111 Library/hal/spektrum_satellite.o
 .debug_pubnames
                0x00002331       0xef Library/hal/time_keeper.o
 .debug_pubnames
                0x00002420       0xb0 Library/hal/usb_int.o
 .debug_pubnames
                0x000024d0       0x89 Library/hal/xbee.o
 .debug_pubnames
                0x00002559       0x59 Library/sensing/ahrs.o
 .debug_pubnames
                0x000025b2      0x1de Library/sensing/position_estimation.o
 .debug_pubnames
                0x00002790       0x36 Library/sensing/qfilter.o
 .debug_pubnames
                0x000027c6       0x2d Library/util/linear_algebra.o
 .debug_pubnames
                0x000027f3       0xed Library/util/matrixlib_float.o
 .debug_pubnames
                0x000028e0      0x163 Library/util/quick_trig.o
 .debug_pubnames
                0x00002a43      0x1ab Private_Library/neighbor_selection.o
 .debug_pubnames
                0x00002bee      0x1c5 Private_Library/orca.o
 .debug_pubnames
                0x00002db3      0x160 src/central_data.o
 .debug_pubnames
                0x00002f13      0x1ae src/mavlink_telemetry.o
 .debug_pubnames
                0x000030c1      0x20f src/tasks.o
 .debug_pubnames
                0x000032d0       0x76 Library/communication/mavlink_stream.o
 .debug_pubnames
                0x00003346      0x13e Library/communication/onboard_parameters.o
 .debug_pubnames
                0x00003484      0x22e Library/control/navigation.o
 .debug_pubnames
                0x000036b2       0xc2 Library/control/stabilisation.o
 .debug_pubnames
                0x00003774      0x1a1 Library/hal/adc_int.o
 .debug_pubnames
                0x00003915      0x158 Library/hal/ads1274.o
 .debug_pubnames
                0x00003a6d       0xd6 Library/hal/bmp085.o
 .debug_pubnames
                0x00003b43       0xee Library/hal/dac_dma.o
 .debug_pubnames
                0x00003c31       0xf6 Library/hal/led.o
 .debug_pubnames
                0x00003d27      0x285 Library/hal/spi_buffered.o
 .debug_pubnames
                0x00003fac      0x133 Library/hal/uart_int.o
 .debug_pubnames
                0x000040df      0x138 Library/runtime/scheduler.o
 .debug_pubnames
                0x00004217       0x6b Library/sensing/imu.o
 .debug_pubnames
                0x00004282      0x29f Library/sensing/simulation.o
 .debug_pubnames
                0x00004521       0xe8 Library/util/buffer.o
 .debug_pubnames
                0x00004609       0xdc Library/util/coord_conventions.o
 .debug_pubnames
                0x000046e5       0x9b Library/util/generator.o
 .debug_pubnames
                0x00004780      0x21c Library/util/print_util.o
 .debug_pubnames
                0x0000499c       0x20 Library/util/sinus.o
 .debug_pubnames
                0x000049bc      0x177 src/asf/avr32/drivers/adcifa/adcifa.o
 .debug_pubnames
                0x00004b33      0x1e0 src/asf/avr32/drivers/ast/ast.o
 .debug_pubnames
                0x00004d13       0xbf src/asf/avr32/drivers/dacifb/dacifb.o
 .debug_pubnames
                0x00004dd2      0x186 src/asf/avr32/drivers/eic/eic.o
 .debug_pubnames
                0x00004f58      0x79d src/asf/avr32/drivers/flashc/flashc.o
 .debug_pubnames
                0x000056f5      0x3aa src/asf/avr32/drivers/gpio/gpio.o
 .debug_pubnames
                0x00005a9f       0x62 src/asf/avr32/drivers/intc/intc.o
 .debug_pubnames
                0x00005b01      0x275 src/asf/avr32/drivers/pdca/pdca.o
 .debug_pubnames
                0x00005d76      0x2b6 src/asf/avr32/drivers/pevc/pevc.o
 .debug_pubnames
                0x0000602c       0xc3 src/asf/avr32/drivers/pm/pm_uc3c.o
 .debug_pubnames
                0x000060ef       0x82 src/asf/avr32/drivers/pm/power_clocks_lib.o
 .debug_pubnames
                0x00006171      0x34b src/asf/avr32/drivers/pwm/pwm4.o
 .debug_pubnames
                0x000064bc      0x3f6 src/asf/avr32/drivers/scif/scif_uc3c.o
 .debug_pubnames
                0x000068b2      0x178 src/asf/avr32/drivers/spi/spi.o
 .debug_pubnames
                0x00006a2a      0x164 src/asf/avr32/drivers/tc/tc.o
 .debug_pubnames
                0x00006b8e       0xd6 src/asf/avr32/drivers/twim/twim.o
 .debug_pubnames
                0x00006c64      0x227 src/asf/avr32/drivers/usart/usart.o
 .debug_pubnames
                0x00006e8b      0x1f1 src/asf/avr32/drivers/usbc/usbc_device.o
 .debug_pubnames
                0x0000707c       0x2e src/asf/avr32/services/delay/delay.o
 .debug_pubnames
                0x000070aa       0x21 src/asf/common/boards/user_board/init.o
 .debug_pubnames
                0x000070cb       0xe4 src/asf/common/services/clock/uc3c/osc.o
 .debug_pubnames
                0x000071af       0x46 src/asf/common/services/clock/uc3c/pll.o
 .debug_pubnames
                0x000071f5       0xbc src/asf/common/services/clock/uc3c/sysclk.o
 .debug_pubnames
                0x000072b1       0x25 src/asf/common/services/sleepmgr/uc3/sleepmgr.o
 .debug_pubnames
                0x000072d6       0x57 src/asf/common/services/spi/uc3_spi/spi_master.o
 .debug_pubnames
                0x0000732d      0x283 src/asf/common/services/usb/class/cdc/device/udi_cdc.o
 .debug_pubnames
                0x000075b0       0x63 src/asf/common/services/usb/class/cdc/device/udi_cdc_desc.o
 .debug_pubnames
                0x00007613       0x64 src/asf/common/services/usb/udc/udc.o
 .debug_pubnames
                0x00007677       0x28 src/asf/common/utils/stdio/read.o
 .debug_pubnames
                0x0000769f       0x95 src/asf/common/utils/stdio/stdio_usb/stdio_usb.o
 .debug_pubnames
                0x00007734       0x38 src/asf/common/utils/stdio/write.o
 .debug_pubnames
                0x0000776c      0x139 src/boardsupport.o
 .debug_pubnames
                0x000078a5      0x150 src/main.o
 .debug_pubnames
                0x000079f5       0x1a c:/program files (x86)/atmel/atmel toolchain/avr32 gcc/native/3.4.2.1002/avr32-gnu-toolchain/bin/../lib/gcc/avr32/4.4.7/../../../../avr32/lib/ucr3fp\libm.a(lib_a-s_cos.o)
 .debug_pubnames
                0x00007a0f       0x1c c:/program files (x86)/atmel/atmel toolchain/avr32 gcc/native/3.4.2.1002/avr32-gnu-toolchain/bin/../lib/gcc/avr32/4.4.7/../../../../avr32/lib/ucr3fp\libm.a(lib_a-s_floor.o)
 .debug_pubnames
                0x00007a2b       0x1a c:/program files (x86)/atmel/atmel toolchain/avr32 gcc/native/3.4.2.1002/avr32-gnu-toolchain/bin/../lib/gcc/avr32/4.4.7/../../../../avr32/lib/ucr3fp\libm.a(lib_a-s_sin.o)
 .debug_pubnames
                0x00007a45       0x1b c:/program files (x86)/atmel/atmel toolchain/avr32 gcc/native/3.4.2.1002/avr32-gnu-toolchain/bin/../lib/gcc/avr32/4.4.7/../../../../avr32/lib/ucr3fp\libm.a(lib_a-w_asin.o)
 .debug_pubnames
                0x00007a60       0x1c c:/program files (x86)/atmel/atmel toolchain/avr32 gcc/native/3.4.2.1002/avr32-gnu-toolchain/bin/../lib/gcc/avr32/4.4.7/../../../../avr32/lib/ucr3fp\libm.a(lib_a-w_atan2.o)
 .debug_pubnames
                0x00007a7c       0x1b c:/program files (x86)/atmel/atmel toolchain/avr32 gcc/native/3.4.2.1002/avr32-gnu-toolchain/bin/../lib/gcc/avr32/4.4.7/../../../../avr32/lib/ucr3fp\libm.a(lib_a-w_fmod.o)
 .debug_pubnames
                0x00007a97       0x1a c:/program files (x86)/atmel/atmel toolchain/avr32 gcc/native/3.4.2.1002/avr32-gnu-toolchain/bin/../lib/gcc/avr32/4.4.7/../../../../avr32/lib/ucr3fp\libm.a(lib_a-w_pow.o)
 .debug_pubnames
                0x00007ab1       0x1b c:/program files (x86)/atmel/atmel toolchain/avr32 gcc/native/3.4.2.1002/avr32-gnu-toolchain/bin/../lib/gcc/avr32/4.4.7/../../../../avr32/lib/ucr3fp\libm.a(lib_a-w_sqrt.o)
 .debug_pubnames
                0x00007acc       0x1c c:/program files (x86)/atmel/atmel toolchain/avr32 gcc/native/3.4.2.1002/avr32-gnu-toolchain/bin/../lib/gcc/avr32/4.4.7/../../../../avr32/lib/ucr3fp\libm.a(lib_a-wf_sqrt.o)
 .debug_pubnames
                0x00007ae8       0x25 c:/program files (x86)/atmel/atmel toolchain/avr32 gcc/native/3.4.2.1002/avr32-gnu-toolchain/bin/../lib/gcc/avr32/4.4.7/../../../../avr32/lib/ucr3fp\libm.a(lib_a-e_asin.o)
 .debug_pubnames
                0x00007b0d       0x26 c:/program files (x86)/atmel/atmel toolchain/avr32 gcc/native/3.4.2.1002/avr32-gnu-toolchain/bin/../lib/gcc/avr32/4.4.7/../../../../avr32/lib/ucr3fp\libm.a(lib_a-e_atan2.o)
 .debug_pubnames
                0x00007b33       0x25 c:/program files (x86)/atmel/atmel toolchain/avr32 gcc/native/3.4.2.1002/avr32-gnu-toolchain/bin/../lib/gcc/avr32/4.4.7/../../../../avr32/lib/ucr3fp\libm.a(lib_a-e_fmod.o)
 .debug_pubnames
                0x00007b58       0x24 c:/program files (x86)/atmel/atmel toolchain/avr32 gcc/native/3.4.2.1002/avr32-gnu-toolchain/bin/../lib/gcc/avr32/4.4.7/../../../../avr32/lib/ucr3fp\libm.a(lib_a-e_pow.o)
 .debug_pubnames
                0x00007b7c       0x29 c:/program files (x86)/atmel/atmel toolchain/avr32 gcc/native/3.4.2.1002/avr32-gnu-toolchain/bin/../lib/gcc/avr32/4.4.7/../../../../avr32/lib/ucr3fp\libm.a(lib_a-e_rem_pio2.o)
 .debug_pubnames
                0x00007ba5       0x25 c:/program files (x86)/atmel/atmel toolchain/avr32 gcc/native/3.4.2.1002/avr32-gnu-toolchain/bin/../lib/gcc/avr32/4.4.7/../../../../avr32/lib/ucr3fp\libm.a(lib_a-e_sqrt.o)
 .debug_pubnames
                0x00007bca       0x26 c:/program files (x86)/atmel/atmel toolchain/avr32 gcc/native/3.4.2.1002/avr32-gnu-toolchain/bin/../lib/gcc/avr32/4.4.7/../../../../avr32/lib/ucr3fp\libm.a(lib_a-ef_sqrt.o)
 .debug_pubnames
                0x00007bf0       0x23 c:/program files (x86)/atmel/atmel toolchain/avr32 gcc/native/3.4.2.1002/avr32-gnu-toolchain/bin/../lib/gcc/avr32/4.4.7/../../../../avr32/lib/ucr3fp\libm.a(lib_a-k_cos.o)
 .debug_pubnames
                0x00007c13       0x28 c:/program files (x86)/atmel/atmel toolchain/avr32 gcc/native/3.4.2.1002/avr32-gnu-toolchain/bin/../lib/gcc/avr32/4.4.7/../../../../avr32/lib/ucr3fp\libm.a(lib_a-k_rem_pio2.o)
 .debug_pubnames
                0x00007c3b       0x23 c:/program files (x86)/atmel/atmel toolchain/avr32 gcc/native/3.4.2.1002/avr32-gnu-toolchain/bin/../lib/gcc/avr32/4.4.7/../../../../avr32/lib/ucr3fp\libm.a(lib_a-k_sin.o)
 .debug_pubnames
                0x00007c5e       0x1b c:/program files (x86)/atmel/atmel toolchain/avr32 gcc/native/3.4.2.1002/avr32-gnu-toolchain/bin/../lib/gcc/avr32/4.4.7/../../../../avr32/lib/ucr3fp\libm.a(lib_a-s_atan.o)
 .debug_pubnames
                0x00007c79       0x1b c:/program files (x86)/atmel/atmel toolchain/avr32 gcc/native/3.4.2.1002/avr32-gnu-toolchain/bin/../lib/gcc/avr32/4.4.7/../../../../avr32/lib/ucr3fp\libm.a(lib_a-s_fabs.o)
 .debug_pubnames
                0x00007c94       0x1d c:/program files (x86)/atmel/atmel toolchain/avr32 gcc/native/3.4.2.1002/avr32-gnu-toolchain/bin/../lib/gcc/avr32/4.4.7/../../../../avr32/lib/ucr3fp\libm.a(lib_a-s_finite.o)
 .debug_pubnames
                0x00007cb1       0x1f c:/program files (x86)/atmel/atmel toolchain/avr32 gcc/native/3.4.2.1002/avr32-gnu-toolchain/bin/../lib/gcc/avr32/4.4.7/../../../../avr32/lib/ucr3fp\libm.a(lib_a-s_isnand.o)
 .debug_pubnames
                0x00007cd0       0x26 c:/program files (x86)/atmel/atmel toolchain/avr32 gcc/native/3.4.2.1002/avr32-gnu-toolchain/bin/../lib/gcc/avr32/4.4.7/../../../../avr32/lib/ucr3fp\libm.a(lib_a-s_lib_ver.o)
 .debug_pubnames
                0x00007cf6       0x1e c:/program files (x86)/atmel/atmel toolchain/avr32 gcc/native/3.4.2.1002/avr32-gnu-toolchain/bin/../lib/gcc/avr32/4.4.7/../../../../avr32/lib/ucr3fp\libm.a(lib_a-s_matherr.o)
 .debug_pubnames
                0x00007d14       0x1a c:/program files (x86)/atmel/atmel toolchain/avr32 gcc/native/3.4.2.1002/avr32-gnu-toolchain/bin/../lib/gcc/avr32/4.4.7/../../../../avr32/lib/ucr3fp\libm.a(lib_a-s_nan.o)
 .debug_pubnames
                0x00007d2e       0x1b c:/program files (x86)/atmel/atmel toolchain/avr32 gcc/native/3.4.2.1002/avr32-gnu-toolchain/bin/../lib/gcc/avr32/4.4.7/../../../../avr32/lib/ucr3fp\libm.a(lib_a-s_rint.o)
 .debug_pubnames
                0x00007d49       0x1d c:/program files (x86)/atmel/atmel toolchain/avr32 gcc/native/3.4.2.1002/avr32-gnu-toolchain/bin/../lib/gcc/avr32/4.4.7/../../../../avr32/lib/ucr3fp\libm.a(lib_a-s_scalbn.o)
 .debug_pubnames
                0x00007d66       0x1d c:/program files (x86)/atmel/atmel toolchain/avr32 gcc/native/3.4.2.1002/avr32-gnu-toolchain/bin/../lib/gcc/avr32/4.4.7/../../../../avr32/lib/ucr3fp\libm.a(lib_a-sf_isnan.o)
 .debug_pubnames
                0x00007d83       0x1f c:/program files (x86)/atmel/atmel toolchain/avr32 gcc/native/3.4.2.1002/avr32-gnu-toolchain/bin/../lib/gcc/avr32/4.4.7/../../../../avr32/lib/ucr3fp\libm.a(lib_a-s_copysign.o)
 .debug_pubnames
                0x00007da2       0x22 c:/program files (x86)/atmel/atmel toolchain/avr32 gcc/native/3.4.2.1002/avr32-gnu-toolchain/bin/../lib/gcc/avr32/4.4.7/ucr3fp\libgcc.a(_floatdidf.o)
 .debug_pubnames
                0x00007dc4       0x1f c:/program files (x86)/atmel/atmel toolchain/avr32 gcc/native/3.4.2.1002/avr32-gnu-toolchain/bin/../lib/gcc/avr32/4.4.7/ucr3fp\libgcc.a(_divdi3.o)
 .debug_pubnames
                0x00007de3       0x1f c:/program files (x86)/atmel/atmel toolchain/avr32 gcc/native/3.4.2.1002/avr32-gnu-toolchain/bin/../lib/gcc/avr32/4.4.7/ucr3fp\libgcc.a(_moddi3.o)
 .debug_pubnames
                0x00007e02       0x20 c:/program files (x86)/atmel/atmel toolchain/avr32 gcc/native/3.4.2.1002/avr32-gnu-toolchain/bin/../lib/gcc/avr32/4.4.7/ucr3fp\libgcc.a(_udivdi3.o)
 .debug_pubnames
                0x00007e22       0x20 c:/program files (x86)/atmel/atmel toolchain/avr32 gcc/native/3.4.2.1002/avr32-gnu-toolchain/bin/../lib/gcc/avr32/4.4.7/ucr3fp\libgcc.a(_umoddi3.o)
 .debug_pubnames
                0x00007e42       0x1e c:/program files (x86)/atmel/atmel toolchain/avr32 gcc/native/3.4.2.1002/avr32-gnu-toolchain/bin/../lib/gcc/avr32/4.4.7/../../../../avr32/lib/ucr3fp\libc.a(lib_a-errno.o)
 .debug_pubnames
                0x00007e60       0x39 c:/program files (x86)/atmel/atmel toolchain/avr32 gcc/native/3.4.2.1002/avr32-gnu-toolchain/bin/../lib/gcc/avr32/4.4.7/../../../../avr32/lib/ucr3fp\libc.a(lib_a-impure.o)
 .debug_pubnames
                0x00007e99       0x26 c:/program files (x86)/atmel/atmel toolchain/avr32 gcc/native/3.4.2.1002/avr32-gnu-toolchain/bin/../lib/gcc/avr32/4.4.7/../../../../avr32/lib/ucr3fp\libc.a(lib_a-malloc.o)
 .debug_pubnames
                0x00007ebf       0xce c:/program files (x86)/atmel/atmel toolchain/avr32 gcc/native/3.4.2.1002/avr32-gnu-toolchain/bin/../lib/gcc/avr32/4.4.7/../../../../avr32/lib/ucr3fp\libc.a(lib_a-mallocr.o)
 .debug_pubnames
                0x00007f8d       0x1d c:/program files (x86)/atmel/atmel toolchain/avr32 gcc/native/3.4.2.1002/avr32-gnu-toolchain/bin/../lib/gcc/avr32/4.4.7/../../../../avr32/lib/ucr3fp\libc.a(lib_a-memset.o)
 .debug_pubnames
                0x00007faa       0x38 c:/program files (x86)/atmel/atmel toolchain/avr32 gcc/native/3.4.2.1002/avr32-gnu-toolchain/bin/../lib/gcc/avr32/4.4.7/../../../../avr32/lib/ucr3fp\libc.a(lib_a-mlock.o)
 .debug_pubnames
                0x00007fe2       0x1e c:/program files (x86)/atmel/atmel toolchain/avr32 gcc/native/3.4.2.1002/avr32-gnu-toolchain/bin/../lib/gcc/avr32/4.4.7/../../../../avr32/lib/ucr3fp\libc.a(lib_a-sbrkr.o)
 .debug_pubnames
                0x00008000       0x2f c:/program files (x86)/atmel/atmel toolchain/avr32 gcc/native/3.4.2.1002/avr32-gnu-toolchain/bin/../lib/gcc/avr32/4.4.7/../../../../avr32/lib/ucr3fp\libc.a(lib_a-snprintf.o)
 .debug_pubnames
                0x0000802f       0x1d c:/program files (x86)/atmel/atmel toolchain/avr32 gcc/native/3.4.2.1002/avr32-gnu-toolchain/bin/../lib/gcc/avr32/4.4.7/../../../../avr32/lib/ucr3fp\libc.a(lib_a-strcpy.o)
 .debug_pubnames
                0x0000804c       0x1d c:/program files (x86)/atmel/atmel toolchain/avr32 gcc/native/3.4.2.1002/avr32-gnu-toolchain/bin/../lib/gcc/avr32/4.4.7/../../../../avr32/lib/ucr3fp\libc.a(lib_a-strlen.o)
 .debug_pubnames
                0x00008069      0x171 c:/program files (x86)/atmel/atmel toolchain/avr32 gcc/native/3.4.2.1002/avr32-gnu-toolchain/bin/../lib/gcc/avr32/4.4.7/../../../../avr32/lib/ucr3fp\libc.a(lib_a-syscalls.o)
 .debug_pubnames
                0x000081da       0x2f c:/program files (x86)/atmel/atmel toolchain/avr32 gcc/native/3.4.2.1002/avr32-gnu-toolchain/bin/../lib/gcc/avr32/4.4.7/../../../../avr32/lib/ucr3fp\libc.a(lib_a-vfprintf.o)
 .debug_pubnames
                0x00008209       0x22 c:/program files (x86)/atmel/atmel toolchain/avr32 gcc/native/3.4.2.1002/avr32-gnu-toolchain/bin/../lib/gcc/avr32/4.4.7/../../../../avr32/lib/ucr3fp\libc.a(lib_a-wsetup.o)
 .debug_pubnames
                0x0000822b       0x1e c:/program files (x86)/atmel/atmel toolchain/avr32 gcc/native/3.4.2.1002/avr32-gnu-toolchain/bin/../lib/gcc/avr32/4.4.7/../../../../avr32/lib/ucr3fp\libc.a(lib_a-dtoa.o)
 .debug_pubnames
                0x00008249       0x2b c:/program files (x86)/atmel/atmel toolchain/avr32 gcc/native/3.4.2.1002/avr32-gnu-toolchain/bin/../lib/gcc/avr32/4.4.7/../../../../avr32/lib/ucr3fp\libc.a(lib_a-fflush.o)
 .debug_pubnames
                0x00008274      0x119 c:/program files (x86)/atmel/atmel toolchain/avr32 gcc/native/3.4.2.1002/avr32-gnu-toolchain/bin/../lib/gcc/avr32/4.4.7/../../../../avr32/lib/ucr3fp\libc.a(lib_a-findfp.o)
 .debug_pubnames
                0x0000838d       0x31 c:/program files (x86)/atmel/atmel toolchain/avr32 gcc/native/3.4.2.1002/avr32-gnu-toolchain/bin/../lib/gcc/avr32/4.4.7/../../../../avr32/lib/ucr3fp\libc.a(lib_a-freer.o)
 .debug_pubnames
                0x000083be       0x23 c:/program files (x86)/atmel/atmel toolchain/avr32 gcc/native/3.4.2.1002/avr32-gnu-toolchain/bin/../lib/gcc/avr32/4.4.7/../../../../avr32/lib/ucr3fp\libc.a(lib_a-fvwrite.o)
 .debug_pubnames
                0x000083e1       0x2e c:/program files (x86)/atmel/atmel toolchain/avr32 gcc/native/3.4.2.1002/avr32-gnu-toolchain/bin/../lib/gcc/avr32/4.4.7/../../../../avr32/lib/ucr3fp\libc.a(lib_a-fwalk.o)
 .debug_pubnames
                0x0000840f       0xc3 c:/program files (x86)/atmel/atmel toolchain/avr32 gcc/native/3.4.2.1002/avr32-gnu-toolchain/bin/../lib/gcc/avr32/4.4.7/../../../../avr32/lib/ucr3fp\libc.a(lib_a-locale.o)
 .debug_pubnames
                0x000084d2       0x23 c:/program files (x86)/atmel/atmel toolchain/avr32 gcc/native/3.4.2.1002/avr32-gnu-toolchain/bin/../lib/gcc/avr32/4.4.7/../../../../avr32/lib/ucr3fp\libc.a(lib_a-makebuf.o)
 .debug_pubnames
                0x000084f5       0x1d c:/program files (x86)/atmel/atmel toolchain/avr32 gcc/native/3.4.2.1002/avr32-gnu-toolchain/bin/../lib/gcc/avr32/4.4.7/../../../../avr32/lib/ucr3fp\libc.a(lib_a-memchr.o)
 .debug_pubnames
                0x00008512       0x1e c:/program files (x86)/atmel/atmel toolchain/avr32 gcc/native/3.4.2.1002/avr32-gnu-toolchain/bin/../lib/gcc/avr32/4.4.7/../../../../avr32/lib/ucr3fp\libc.a(lib_a-memmove.o)
 .debug_pubnames
                0x00008530      0x13a c:/program files (x86)/atmel/atmel toolchain/avr32 gcc/native/3.4.2.1002/avr32-gnu-toolchain/bin/../lib/gcc/avr32/4.4.7/../../../../avr32/lib/ucr3fp\libc.a(lib_a-mprec.o)
 .debug_pubnames
                0x0000866a       0x21 c:/program files (x86)/atmel/atmel toolchain/avr32 gcc/native/3.4.2.1002/avr32-gnu-toolchain/bin/../lib/gcc/avr32/4.4.7/../../../../avr32/lib/ucr3fp\libc.a(lib_a-reallocr.o)
 .debug_pubnames
                0x0000868b       0x52 c:/program files (x86)/atmel/atmel toolchain/avr32 gcc/native/3.4.2.1002/avr32-gnu-toolchain/bin/../lib/gcc/avr32/4.4.7/../../../../avr32/lib/ucr3fp\libc.a(lib_a-reent.o)
 .debug_pubnames
                0x000086dd       0x1f c:/program files (x86)/atmel/atmel toolchain/avr32 gcc/native/3.4.2.1002/avr32-gnu-toolchain/bin/../lib/gcc/avr32/4.4.7/../../../../avr32/lib/ucr3fp\libc.a(lib_a-s_isinfd.o)
 .debug_pubnames
                0x000086fc       0x44 c:/program files (x86)/atmel/atmel toolchain/avr32 gcc/native/3.4.2.1002/avr32-gnu-toolchain/bin/../lib/gcc/avr32/4.4.7/../../../../avr32/lib/ucr3fp\libc.a(lib_a-stdio.o)
 .debug_pubnames
                0x00008740       0x1f c:/program files (x86)/atmel/atmel toolchain/avr32 gcc/native/3.4.2.1002/avr32-gnu-toolchain/bin/../lib/gcc/avr32/4.4.7/../../../../avr32/lib/ucr3fp\libc.a(lib_a-writer.o)
 .debug_pubnames
                0x0000875f       0x20 c:/program files (x86)/atmel/atmel toolchain/avr32 gcc/native/3.4.2.1002/avr32-gnu-toolchain/bin/../lib/gcc/avr32/4.4.7/../../../../avr32/lib/ucr3fp\libc.a(lib_a-callocr.o)
 .debug_pubnames
                0x0000877f       0x1f c:/program files (x86)/atmel/atmel toolchain/avr32 gcc/native/3.4.2.1002/avr32-gnu-toolchain/bin/../lib/gcc/avr32/4.4.7/../../../../avr32/lib/ucr3fp\libc.a(lib_a-closer.o)
 .debug_pubnames
                0x0000879e       0x2b c:/program files (x86)/atmel/atmel toolchain/avr32 gcc/native/3.4.2.1002/avr32-gnu-toolchain/bin/../lib/gcc/avr32/4.4.7/../../../../avr32/lib/ucr3fp\libc.a(lib_a-fclose.o)
 .debug_pubnames
                0x000087c9       0x1f c:/program files (x86)/atmel/atmel toolchain/avr32 gcc/native/3.4.2.1002/avr32-gnu-toolchain/bin/../lib/gcc/avr32/4.4.7/../../../../avr32/lib/ucr3fp\libc.a(lib_a-fstatr.o)
 .debug_pubnames
                0x000087e8       0x1f c:/program files (x86)/atmel/atmel toolchain/avr32 gcc/native/3.4.2.1002/avr32-gnu-toolchain/bin/../lib/gcc/avr32/4.4.7/../../../../avr32/lib/ucr3fp\libc.a(lib_a-lseekr.o)
 .debug_pubnames
                0x00008807       0x1e c:/program files (x86)/atmel/atmel toolchain/avr32 gcc/native/3.4.2.1002/avr32-gnu-toolchain/bin/../lib/gcc/avr32/4.4.7/../../../../avr32/lib/ucr3fp\libc.a(lib_a-readr.o)

.debug_info     0x00000000    0xaf4f0
 *(.debug_info .gnu.linkonce.wi.*)
 .debug_info    0x00000000     0x2a93 Library/communication/console.o
 .debug_info    0x00002a93     0x1170 Library/communication/data_logging.o
 .debug_info    0x00003c03     0x19a6 Library/communication/hud.o
 .debug_info    0x000055a9     0x10ec Library/communication/mavlink_communication.o
 .debug_info    0x00006695     0x1162 Library/communication/mavlink_message_handler.o
 .debug_info    0x000077f7     0x5003 Library/communication/mavlink_waypoint_handler.o
 .debug_info    0x0000c7fa     0x1b47 Library/communication/remote.o
 .debug_info    0x0000e341     0x16b3 Library/communication/state.o
 .debug_info    0x0000f9f4     0x259d Library/communication/state_machine.o
 .debug_info    0x00011f91      0x308 Library/control/adaptive_parameter.o
 .debug_info    0x00012299      0x6e4 Library/control/attitude_controller_p2.o
 .debug_info    0x0001297d      0x7e9 Library/control/attitude_error_estimator.o
 .debug_info    0x00013166     0x1da9 Library/control/joystick_parsing.o
 .debug_info    0x00014f0f      0x53d Library/control/pid_control.o
 .debug_info    0x0001544c      0x78f Library/control/servos_mix_quadcopter_cross.o
 .debug_info    0x00015bdb      0x78f Library/control/servos_mix_quadcopter_diag.o
 .debug_info    0x0001636a     0x2881 Library/control/stabilisation_copter.o
 .debug_info    0x00018beb      0xaaa Library/hal/analog_monitor.o
 .debug_info    0x00019695      0x3cf Library/hal/fat_fs/diskio.o
 .debug_info    0x00019a64     0x3309 Library/hal/fat_fs/ff.o
 .debug_info    0x0001cd6d      0x166 Library/hal/fat_fs/option/ccsbcs.o
 .debug_info    0x0001ced3       0xd5 Library/hal/fat_fs/option/syscall.o
 .debug_info    0x0001cfa8        0x0 Library/hal/fat_fs/option/unicode.o
 .debug_info    0x0001cfa8     0x54c5 Library/hal/gps_ublox.o
 .debug_info    0x0002246d      0xd37 Library/hal/hmc5883l.o
 .debug_info    0x000231a4      0xf22 Library/hal/i2c_driver_int.o
 .debug_info    0x000240c6     0x11f0 Library/hal/lsm330dlc.o
 .debug_info    0x000252b6      0x24d Library/hal/piezo_speaker.o
 .debug_info    0x00025503     0x28ca Library/hal/pwm_servos.o
 .debug_info    0x00027dcd     0x2340 Library/hal/sd_spi.o
 .debug_info    0x0002a10d      0xbaa Library/hal/servos.o
 .debug_info    0x0002acb7     0x153a Library/hal/sonar_i2cxl.o
 .debug_info    0x0002c1f1     0x2c5c Library/hal/spektrum_satellite.o
 .debug_info    0x0002ee4d      0xc9b Library/hal/time_keeper.o
 .debug_info    0x0002fae8      0x320 Library/hal/usb_int.o
 .debug_info    0x0002fe08     0x296c Library/hal/xbee.o
 .debug_info    0x00032774      0xd41 Library/sensing/ahrs.o
 .debug_info    0x000334b5     0x2605 Library/sensing/position_estimation.o
 .debug_info    0x00035aba      0xe38 Library/sensing/qfilter.o
 .debug_info    0x000368f2      0x839 Library/util/linear_algebra.o
 .debug_info    0x0003712b      0x6fc Library/util/matrixlib_float.o
 .debug_info    0x00037827      0x5ed Library/util/quick_trig.o
 .debug_info    0x00037e14     0x1ee3 Private_Library/neighbor_selection.o
 .debug_info    0x00039cf7     0x379a Private_Library/orca.o
 .debug_info    0x0003d491     0x3d96 src/central_data.o
 .debug_info    0x00041227     0x3878 src/mavlink_telemetry.o
 .debug_info    0x00044a9f     0x3a98 src/tasks.o
 .debug_info    0x00048537      0xafc Library/communication/mavlink_stream.o
 .debug_info    0x00049033     0x1d6e Library/communication/onboard_parameters.o
 .debug_info    0x0004ada1     0x2f27 Library/control/navigation.o
 .debug_info    0x0004dcc8     0x10ae Library/control/stabilisation.o
 .debug_info    0x0004ed76     0x1e49 Library/hal/adc_int.o
 .debug_info    0x00050bbf     0x40de Library/hal/ads1274.o
 .debug_info    0x00054c9d     0x19dc Library/hal/bmp085.o
 .debug_info    0x00056679     0x1acf Library/hal/dac_dma.o
 .debug_info    0x00058148      0xab6 Library/hal/led.o
 .debug_info    0x00058bfe     0x1dd9 Library/hal/spi_buffered.o
 .debug_info    0x0005a9d7     0x2ca3 Library/hal/uart_int.o
 .debug_info    0x0005d67a     0x1989 Library/runtime/scheduler.o
 .debug_info    0x0005f003     0x10b1 Library/sensing/imu.o
 .debug_info    0x000600b4     0x3570 Library/sensing/simulation.o
 .debug_info    0x00063624      0x41d Library/util/buffer.o
 .debug_info    0x00063a41      0x309 Library/util/coord_conventions.o
 .debug_info    0x00063d4a      0x20c Library/util/generator.o
 .debug_info    0x00063f56      0x77e Library/util/print_util.o
 .debug_info    0x000646d4       0xc3 Library/util/sinus.o
 .debug_info    0x00064797     0x1dcb src/asf/avr32/drivers/adcifa/adcifa.o
 .debug_info    0x00066562     0x1200 src/asf/avr32/drivers/ast/ast.o
 .debug_info    0x00067762      0xed8 src/asf/avr32/drivers/dacifb/dacifb.o
 .debug_info    0x0006863a     0x1976 src/asf/avr32/drivers/eic/eic.o
 .debug_info    0x00069fb0     0x1e22 src/asf/avr32/drivers/flashc/flashc.o
 .debug_info    0x0006bdd2      0xf81 src/asf/avr32/drivers/gpio/gpio.o
 .debug_info    0x0006cd53      0x820 src/asf/avr32/drivers/intc/intc.o
 .debug_info    0x0006d573      0xe09 src/asf/avr32/drivers/pdca/pdca.o
 .debug_info    0x0006e37c      0x9f8 src/asf/avr32/drivers/pevc/pevc.o
 .debug_info    0x0006ed74     0x1026 src/asf/avr32/drivers/pm/pm_uc3c.o
 .debug_info    0x0006fd9a      0x57c src/asf/avr32/drivers/pm/power_clocks_lib.o
 .debug_info    0x00070316     0x2a0a src/asf/avr32/drivers/pwm/pwm4.o
 .debug_info    0x00072d20     0x1d23 src/asf/avr32/drivers/scif/scif_uc3c.o
 .debug_info    0x00074a43     0x130c src/asf/avr32/drivers/spi/spi.o
 .debug_info    0x00075d4f     0x118d src/asf/avr32/drivers/tc/tc.o
 .debug_info    0x00076edc     0x1221 src/asf/avr32/drivers/twim/twim.o
 .debug_info    0x000780fd     0x325c src/asf/avr32/drivers/usart/usart.o
 .debug_info    0x0007b359     0xb704 src/asf/avr32/drivers/usbc/usbc_device.o
 .debug_info    0x00086a5d      0x26f src/asf/avr32/services/delay/delay.o
 .debug_info    0x00086ccc       0xa0 src/asf/common/boards/user_board/init.o
 .debug_info    0x00086d6c     0x1473 src/asf/common/services/clock/uc3c/osc.o
 .debug_info    0x000881df     0x12e6 src/asf/common/services/clock/uc3c/pll.o
 .debug_info    0x000894c5     0x25cc src/asf/common/services/clock/uc3c/sysclk.o
 .debug_info    0x0008ba91       0xf5 src/asf/common/services/sleepmgr/uc3/sleepmgr.o
 .debug_info    0x0008bb86     0x131e src/asf/common/services/spi/uc3_spi/spi_master.o
 .debug_info    0x0008cea4      0xf1b src/asf/common/services/usb/class/cdc/device/udi_cdc.o
 .debug_info    0x0008ddbf      0x75f src/asf/common/services/usb/class/cdc/device/udi_cdc_desc.o
 .debug_info    0x0008e51e      0xe41 src/asf/common/services/usb/udc/udc.o
 .debug_info    0x0008f35f      0x146 src/asf/common/utils/stdio/read.o
 .debug_info    0x0008f4a5      0x25f src/asf/common/utils/stdio/stdio_usb/stdio_usb.o
 .debug_info    0x0008f704      0x136 src/asf/common/utils/stdio/write.o
 .debug_info    0x0008f83a     0x3979 src/boardsupport.o
 .debug_info    0x000931b3     0x3548 src/main.o
 .debug_info    0x000966fb      0x176 c:/program files (x86)/atmel/atmel toolchain/avr32 gcc/native/3.4.2.1002/avr32-gnu-toolchain/bin/../lib/gcc/avr32/4.4.7/../../../../avr32/lib/ucr3fp\libm.a(lib_a-s_cos.o)
 .debug_info    0x00096871      0x1b4 c:/program files (x86)/atmel/atmel toolchain/avr32 gcc/native/3.4.2.1002/avr32-gnu-toolchain/bin/../lib/gcc/avr32/4.4.7/../../../../avr32/lib/ucr3fp\libm.a(lib_a-s_floor.o)
 .debug_info    0x00096a25      0x176 c:/program files (x86)/atmel/atmel toolchain/avr32 gcc/native/3.4.2.1002/avr32-gnu-toolchain/bin/../lib/gcc/avr32/4.4.7/../../../../avr32/lib/ucr3fp\libm.a(lib_a-s_sin.o)
 .debug_info    0x00096b9b      0x189 c:/program files (x86)/atmel/atmel toolchain/avr32 gcc/native/3.4.2.1002/avr32-gnu-toolchain/bin/../lib/gcc/avr32/4.4.7/../../../../avr32/lib/ucr3fp\libm.a(lib_a-w_asin.o)
 .debug_info    0x00096d24       0xbf c:/program files (x86)/atmel/atmel toolchain/avr32 gcc/native/3.4.2.1002/avr32-gnu-toolchain/bin/../lib/gcc/avr32/4.4.7/../../../../avr32/lib/ucr3fp\libm.a(lib_a-w_atan2.o)
 .debug_info    0x00096de3      0x1af c:/program files (x86)/atmel/atmel toolchain/avr32 gcc/native/3.4.2.1002/avr32-gnu-toolchain/bin/../lib/gcc/avr32/4.4.7/../../../../avr32/lib/ucr3fp\libm.a(lib_a-w_fmod.o)
 .debug_info    0x00096f92      0x1c8 c:/program files (x86)/atmel/atmel toolchain/avr32 gcc/native/3.4.2.1002/avr32-gnu-toolchain/bin/../lib/gcc/avr32/4.4.7/../../../../avr32/lib/ucr3fp\libm.a(lib_a-w_pow.o)
 .debug_info    0x0009715a      0x189 c:/program files (x86)/atmel/atmel toolchain/avr32 gcc/native/3.4.2.1002/avr32-gnu-toolchain/bin/../lib/gcc/avr32/4.4.7/../../../../avr32/lib/ucr3fp\libm.a(lib_a-w_sqrt.o)
 .debug_info    0x000972e3      0x172 c:/program files (x86)/atmel/atmel toolchain/avr32 gcc/native/3.4.2.1002/avr32-gnu-toolchain/bin/../lib/gcc/avr32/4.4.7/../../../../avr32/lib/ucr3fp\libm.a(lib_a-wf_sqrt.o)
 .debug_info    0x00097455      0x308 c:/program files (x86)/atmel/atmel toolchain/avr32 gcc/native/3.4.2.1002/avr32-gnu-toolchain/bin/../lib/gcc/avr32/4.4.7/../../../../avr32/lib/ucr3fp\libm.a(lib_a-e_asin.o)
 .debug_info    0x0009775d      0x289 c:/program files (x86)/atmel/atmel toolchain/avr32 gcc/native/3.4.2.1002/avr32-gnu-toolchain/bin/../lib/gcc/avr32/4.4.7/../../../../avr32/lib/ucr3fp\libm.a(lib_a-e_atan2.o)
 .debug_info    0x000979e6      0x268 c:/program files (x86)/atmel/atmel toolchain/avr32 gcc/native/3.4.2.1002/avr32-gnu-toolchain/bin/../lib/gcc/avr32/4.4.7/../../../../avr32/lib/ucr3fp\libm.a(lib_a-e_fmod.o)
 .debug_info    0x00097c4e      0x6b9 c:/program files (x86)/atmel/atmel toolchain/avr32 gcc/native/3.4.2.1002/avr32-gnu-toolchain/bin/../lib/gcc/avr32/4.4.7/../../../../avr32/lib/ucr3fp\libm.a(lib_a-e_pow.o)
 .debug_info    0x00098307      0x356 c:/program files (x86)/atmel/atmel toolchain/avr32 gcc/native/3.4.2.1002/avr32-gnu-toolchain/bin/../lib/gcc/avr32/4.4.7/../../../../avr32/lib/ucr3fp\libm.a(lib_a-e_rem_pio2.o)
 .debug_info    0x0009865d      0x229 c:/program files (x86)/atmel/atmel toolchain/avr32 gcc/native/3.4.2.1002/avr32-gnu-toolchain/bin/../lib/gcc/avr32/4.4.7/../../../../avr32/lib/ucr3fp\libm.a(lib_a-e_sqrt.o)
 .debug_info    0x00098886      0x169 c:/program files (x86)/atmel/atmel toolchain/avr32 gcc/native/3.4.2.1002/avr32-gnu-toolchain/bin/../lib/gcc/avr32/4.4.7/../../../../avr32/lib/ucr3fp\libm.a(lib_a-ef_sqrt.o)
 .debug_info    0x000989ef      0x23e c:/program files (x86)/atmel/atmel toolchain/avr32 gcc/native/3.4.2.1002/avr32-gnu-toolchain/bin/../lib/gcc/avr32/4.4.7/../../../../avr32/lib/ucr3fp\libm.a(lib_a-k_cos.o)
 .debug_info    0x00098c2d      0x2d9 c:/program files (x86)/atmel/atmel toolchain/avr32 gcc/native/3.4.2.1002/avr32-gnu-toolchain/bin/../lib/gcc/avr32/4.4.7/../../../../avr32/lib/ucr3fp\libm.a(lib_a-k_rem_pio2.o)
 .debug_info    0x00098f06      0x18c c:/program files (x86)/atmel/atmel toolchain/avr32 gcc/native/3.4.2.1002/avr32-gnu-toolchain/bin/../lib/gcc/avr32/4.4.7/../../../../avr32/lib/ucr3fp\libm.a(lib_a-k_sin.o)
 .debug_info    0x00099092      0x28b c:/program files (x86)/atmel/atmel toolchain/avr32 gcc/native/3.4.2.1002/avr32-gnu-toolchain/bin/../lib/gcc/avr32/4.4.7/../../../../avr32/lib/ucr3fp\libm.a(lib_a-s_atan.o)
 .debug_info    0x0009931d      0x138 c:/program files (x86)/atmel/atmel toolchain/avr32 gcc/native/3.4.2.1002/avr32-gnu-toolchain/bin/../lib/gcc/avr32/4.4.7/../../../../avr32/lib/ucr3fp\libm.a(lib_a-s_fabs.o)
 .debug_info    0x00099455      0x13b c:/program files (x86)/atmel/atmel toolchain/avr32 gcc/native/3.4.2.1002/avr32-gnu-toolchain/bin/../lib/gcc/avr32/4.4.7/../../../../avr32/lib/ucr3fp\libm.a(lib_a-s_finite.o)
 .debug_info    0x00099590      0x14c c:/program files (x86)/atmel/atmel toolchain/avr32 gcc/native/3.4.2.1002/avr32-gnu-toolchain/bin/../lib/gcc/avr32/4.4.7/../../../../avr32/lib/ucr3fp\libm.a(lib_a-s_isnand.o)
 .debug_info    0x000996dc       0xc0 c:/program files (x86)/atmel/atmel toolchain/avr32 gcc/native/3.4.2.1002/avr32-gnu-toolchain/bin/../lib/gcc/avr32/4.4.7/../../../../avr32/lib/ucr3fp\libm.a(lib_a-s_lib_ver.o)
 .debug_info    0x0009979c      0x132 c:/program files (x86)/atmel/atmel toolchain/avr32 gcc/native/3.4.2.1002/avr32-gnu-toolchain/bin/../lib/gcc/avr32/4.4.7/../../../../avr32/lib/ucr3fp\libm.a(lib_a-s_matherr.o)
 .debug_info    0x000998ce       0xc4 c:/program files (x86)/atmel/atmel toolchain/avr32 gcc/native/3.4.2.1002/avr32-gnu-toolchain/bin/../lib/gcc/avr32/4.4.7/../../../../avr32/lib/ucr3fp\libm.a(lib_a-s_nan.o)
 .debug_info    0x00099992      0x201 c:/program files (x86)/atmel/atmel toolchain/avr32 gcc/native/3.4.2.1002/avr32-gnu-toolchain/bin/../lib/gcc/avr32/4.4.7/../../../../avr32/lib/ucr3fp\libm.a(lib_a-s_rint.o)
 .debug_info    0x00099b93      0x21b c:/program files (x86)/atmel/atmel toolchain/avr32 gcc/native/3.4.2.1002/avr32-gnu-toolchain/bin/../lib/gcc/avr32/4.4.7/../../../../avr32/lib/ucr3fp\libm.a(lib_a-s_scalbn.o)
 .debug_info    0x00099dae      0x114 c:/program files (x86)/atmel/atmel toolchain/avr32 gcc/native/3.4.2.1002/avr32-gnu-toolchain/bin/../lib/gcc/avr32/4.4.7/../../../../avr32/lib/ucr3fp\libm.a(lib_a-sf_isnan.o)
 .debug_info    0x00099ec2      0x150 c:/program files (x86)/atmel/atmel toolchain/avr32 gcc/native/3.4.2.1002/avr32-gnu-toolchain/bin/../lib/gcc/avr32/4.4.7/../../../../avr32/lib/ucr3fp\libm.a(lib_a-s_copysign.o)
 .debug_info    0x0009a012       0xd8 c:/program files (x86)/atmel/atmel toolchain/avr32 gcc/native/3.4.2.1002/avr32-gnu-toolchain/bin/../lib/gcc/avr32/4.4.7/ucr3fp\libgcc.a(_floatdidf.o)
 .debug_info    0x0009a0ea      0x5b4 c:/program files (x86)/atmel/atmel toolchain/avr32 gcc/native/3.4.2.1002/avr32-gnu-toolchain/bin/../lib/gcc/avr32/4.4.7/ucr3fp\libgcc.a(_divdi3.o)
 .debug_info    0x0009a69e      0x551 c:/program files (x86)/atmel/atmel toolchain/avr32 gcc/native/3.4.2.1002/avr32-gnu-toolchain/bin/../lib/gcc/avr32/4.4.7/ucr3fp\libgcc.a(_moddi3.o)
 .debug_info    0x0009abef      0x57b c:/program files (x86)/atmel/atmel toolchain/avr32 gcc/native/3.4.2.1002/avr32-gnu-toolchain/bin/../lib/gcc/avr32/4.4.7/ucr3fp\libgcc.a(_udivdi3.o)
 .debug_info    0x0009b16a      0x52b c:/program files (x86)/atmel/atmel toolchain/avr32 gcc/native/3.4.2.1002/avr32-gnu-toolchain/bin/../lib/gcc/avr32/4.4.7/ucr3fp\libgcc.a(_umoddi3.o)
 .debug_info    0x0009b695      0x8a6 c:/program files (x86)/atmel/atmel toolchain/avr32 gcc/native/3.4.2.1002/avr32-gnu-toolchain/bin/../lib/gcc/avr32/4.4.7/../../../../avr32/lib/ucr3fp\libc.a(lib_a-errno.o)
 .debug_info    0x0009bf3b      0x960 c:/program files (x86)/atmel/atmel toolchain/avr32 gcc/native/3.4.2.1002/avr32-gnu-toolchain/bin/../lib/gcc/avr32/4.4.7/../../../../avr32/lib/ucr3fp\libc.a(lib_a-impure.o)
 .debug_info    0x0009c89b      0x8ea c:/program files (x86)/atmel/atmel toolchain/avr32 gcc/native/3.4.2.1002/avr32-gnu-toolchain/bin/../lib/gcc/avr32/4.4.7/../../../../avr32/lib/ucr3fp\libc.a(lib_a-malloc.o)
 .debug_info    0x0009d185      0xc4e c:/program files (x86)/atmel/atmel toolchain/avr32 gcc/native/3.4.2.1002/avr32-gnu-toolchain/bin/../lib/gcc/avr32/4.4.7/../../../../avr32/lib/ucr3fp\libc.a(lib_a-mallocr.o)
 .debug_info    0x0009ddd3       0xcd c:/program files (x86)/atmel/atmel toolchain/avr32 gcc/native/3.4.2.1002/avr32-gnu-toolchain/bin/../lib/gcc/avr32/4.4.7/../../../../avr32/lib/ucr3fp\libc.a(lib_a-memset.o)
 .debug_info    0x0009dea0      0x8cf c:/program files (x86)/atmel/atmel toolchain/avr32 gcc/native/3.4.2.1002/avr32-gnu-toolchain/bin/../lib/gcc/avr32/4.4.7/../../../../avr32/lib/ucr3fp\libc.a(lib_a-mlock.o)
 .debug_info    0x0009e76f      0x8de c:/program files (x86)/atmel/atmel toolchain/avr32 gcc/native/3.4.2.1002/avr32-gnu-toolchain/bin/../lib/gcc/avr32/4.4.7/../../../../avr32/lib/ucr3fp\libc.a(lib_a-sbrkr.o)
 .debug_info    0x0009f04d      0x9bd c:/program files (x86)/atmel/atmel toolchain/avr32 gcc/native/3.4.2.1002/avr32-gnu-toolchain/bin/../lib/gcc/avr32/4.4.7/../../../../avr32/lib/ucr3fp\libc.a(lib_a-snprintf.o)
 .debug_info    0x0009fa0a       0xc2 c:/program files (x86)/atmel/atmel toolchain/avr32 gcc/native/3.4.2.1002/avr32-gnu-toolchain/bin/../lib/gcc/avr32/4.4.7/../../../../avr32/lib/ucr3fp\libc.a(lib_a-strcpy.o)
 .debug_info    0x0009facc       0xbe c:/program files (x86)/atmel/atmel toolchain/avr32 gcc/native/3.4.2.1002/avr32-gnu-toolchain/bin/../lib/gcc/avr32/4.4.7/../../../../avr32/lib/ucr3fp\libc.a(lib_a-strlen.o)
 .debug_info    0x0009fb8a      0x93a c:/program files (x86)/atmel/atmel toolchain/avr32 gcc/native/3.4.2.1002/avr32-gnu-toolchain/bin/../lib/gcc/avr32/4.4.7/../../../../avr32/lib/ucr3fp\libc.a(lib_a-syscalls.o)
 .debug_info    0x000a04c4     0x15e8 c:/program files (x86)/atmel/atmel toolchain/avr32 gcc/native/3.4.2.1002/avr32-gnu-toolchain/bin/../lib/gcc/avr32/4.4.7/../../../../avr32/lib/ucr3fp\libc.a(lib_a-vfprintf.o)
 .debug_info    0x000a1aac      0x982 c:/program files (x86)/atmel/atmel toolchain/avr32 gcc/native/3.4.2.1002/avr32-gnu-toolchain/bin/../lib/gcc/avr32/4.4.7/../../../../avr32/lib/ucr3fp\libc.a(lib_a-wsetup.o)
 .debug_info    0x000a242e      0xcf7 c:/program files (x86)/atmel/atmel toolchain/avr32 gcc/native/3.4.2.1002/avr32-gnu-toolchain/bin/../lib/gcc/avr32/4.4.7/../../../../avr32/lib/ucr3fp\libc.a(lib_a-dtoa.o)
 .debug_info    0x000a3125      0xa22 c:/program files (x86)/atmel/atmel toolchain/avr32 gcc/native/3.4.2.1002/avr32-gnu-toolchain/bin/../lib/gcc/avr32/4.4.7/../../../../avr32/lib/ucr3fp\libc.a(lib_a-fflush.o)
 .debug_info    0x000a3b47      0xc2a c:/program files (x86)/atmel/atmel toolchain/avr32 gcc/native/3.4.2.1002/avr32-gnu-toolchain/bin/../lib/gcc/avr32/4.4.7/../../../../avr32/lib/ucr3fp\libc.a(lib_a-findfp.o)
 .debug_info    0x000a4771      0xb3d c:/program files (x86)/atmel/atmel toolchain/avr32 gcc/native/3.4.2.1002/avr32-gnu-toolchain/bin/../lib/gcc/avr32/4.4.7/../../../../avr32/lib/ucr3fp\libc.a(lib_a-freer.o)
 .debug_info    0x000a52ae      0x9fc c:/program files (x86)/atmel/atmel toolchain/avr32 gcc/native/3.4.2.1002/avr32-gnu-toolchain/bin/../lib/gcc/avr32/4.4.7/../../../../avr32/lib/ucr3fp\libc.a(lib_a-fvwrite.o)
 .debug_info    0x000a5caa      0xa61 c:/program files (x86)/atmel/atmel toolchain/avr32 gcc/native/3.4.2.1002/avr32-gnu-toolchain/bin/../lib/gcc/avr32/4.4.7/../../../../avr32/lib/ucr3fp\libc.a(lib_a-fwalk.o)
 .debug_info    0x000a670b      0xb24 c:/program files (x86)/atmel/atmel toolchain/avr32 gcc/native/3.4.2.1002/avr32-gnu-toolchain/bin/../lib/gcc/avr32/4.4.7/../../../../avr32/lib/ucr3fp\libc.a(lib_a-locale.o)
 .debug_info    0x000a722f      0xa96 c:/program files (x86)/atmel/atmel toolchain/avr32 gcc/native/3.4.2.1002/avr32-gnu-toolchain/bin/../lib/gcc/avr32/4.4.7/../../../../avr32/lib/ucr3fp\libc.a(lib_a-makebuf.o)
 .debug_info    0x000a7cc5       0xe7 c:/program files (x86)/atmel/atmel toolchain/avr32 gcc/native/3.4.2.1002/avr32-gnu-toolchain/bin/../lib/gcc/avr32/4.4.7/../../../../avr32/lib/ucr3fp\libc.a(lib_a-memchr.o)
 .debug_info    0x000a7dac      0x102 c:/program files (x86)/atmel/atmel toolchain/avr32 gcc/native/3.4.2.1002/avr32-gnu-toolchain/bin/../lib/gcc/avr32/4.4.7/../../../../avr32/lib/ucr3fp\libc.a(lib_a-memmove.o)
 .debug_info    0x000a7eae     0x149a c:/program files (x86)/atmel/atmel toolchain/avr32 gcc/native/3.4.2.1002/avr32-gnu-toolchain/bin/../lib/gcc/avr32/4.4.7/../../../../avr32/lib/ucr3fp\libc.a(lib_a-mprec.o)
 .debug_info    0x000a9348      0xb17 c:/program files (x86)/atmel/atmel toolchain/avr32 gcc/native/3.4.2.1002/avr32-gnu-toolchain/bin/../lib/gcc/avr32/4.4.7/../../../../avr32/lib/ucr3fp\libc.a(lib_a-reallocr.o)
 .debug_info    0x000a9e5f      0x973 c:/program files (x86)/atmel/atmel toolchain/avr32 gcc/native/3.4.2.1002/avr32-gnu-toolchain/bin/../lib/gcc/avr32/4.4.7/../../../../avr32/lib/ucr3fp\libc.a(lib_a-reent.o)
 .debug_info    0x000aa7d2      0x14d c:/program files (x86)/atmel/atmel toolchain/avr32 gcc/native/3.4.2.1002/avr32-gnu-toolchain/bin/../lib/gcc/avr32/4.4.7/../../../../avr32/lib/ucr3fp\libc.a(lib_a-s_isinfd.o)
 .debug_info    0x000aa91f      0xa28 c:/program files (x86)/atmel/atmel toolchain/avr32 gcc/native/3.4.2.1002/avr32-gnu-toolchain/bin/../lib/gcc/avr32/4.4.7/../../../../avr32/lib/ucr3fp\libc.a(lib_a-stdio.o)
 .debug_info    0x000ab347      0x90d c:/program files (x86)/atmel/atmel toolchain/avr32 gcc/native/3.4.2.1002/avr32-gnu-toolchain/bin/../lib/gcc/avr32/4.4.7/../../../../avr32/lib/ucr3fp\libc.a(lib_a-writer.o)
 .debug_info    0x000abc54      0x997 c:/program files (x86)/atmel/atmel toolchain/avr32 gcc/native/3.4.2.1002/avr32-gnu-toolchain/bin/../lib/gcc/avr32/4.4.7/../../../../avr32/lib/ucr3fp\libc.a(lib_a-callocr.o)
 .debug_info    0x000ac5eb      0x8d2 c:/program files (x86)/atmel/atmel toolchain/avr32 gcc/native/3.4.2.1002/avr32-gnu-toolchain/bin/../lib/gcc/avr32/4.4.7/../../../../avr32/lib/ucr3fp\libc.a(lib_a-closer.o)
 .debug_info    0x000acebd      0x9bc c:/program files (x86)/atmel/atmel toolchain/avr32 gcc/native/3.4.2.1002/avr32-gnu-toolchain/bin/../lib/gcc/avr32/4.4.7/../../../../avr32/lib/ucr3fp\libc.a(lib_a-fclose.o)
 .debug_info    0x000ad879      0xa76 c:/program files (x86)/atmel/atmel toolchain/avr32 gcc/native/3.4.2.1002/avr32-gnu-toolchain/bin/../lib/gcc/avr32/4.4.7/../../../../avr32/lib/ucr3fp\libc.a(lib_a-fstatr.o)
 .debug_info    0x000ae2ef      0x8fb c:/program files (x86)/atmel/atmel toolchain/avr32 gcc/native/3.4.2.1002/avr32-gnu-toolchain/bin/../lib/gcc/avr32/4.4.7/../../../../avr32/lib/ucr3fp\libc.a(lib_a-lseekr.o)
 .debug_info    0x000aebea      0x906 c:/program files (x86)/atmel/atmel toolchain/avr32 gcc/native/3.4.2.1002/avr32-gnu-toolchain/bin/../lib/gcc/avr32/4.4.7/../../../../avr32/lib/ucr3fp\libc.a(lib_a-readr.o)

.debug_abbrev   0x00000000    0x1326d
 *(.debug_abbrev)
 .debug_abbrev  0x00000000      0x203 Library/communication/console.o
 .debug_abbrev  0x00000203      0x2bf Library/communication/data_logging.o
 .debug_abbrev  0x000004c2      0x2d5 Library/communication/hud.o
 .debug_abbrev  0x00000797      0x26f Library/communication/mavlink_communication.o
 .debug_abbrev  0x00000a06      0x2d3 Library/communication/mavlink_message_handler.o
 .debug_abbrev  0x00000cd9      0x46e Library/communication/mavlink_waypoint_handler.o
 .debug_abbrev  0x00001147      0x346 Library/communication/remote.o
 .debug_abbrev  0x0000148d      0x2d9 Library/communication/state.o
 .debug_abbrev  0x00001766      0x1e3 Library/communication/state_machine.o
 .debug_abbrev  0x00001949      0x1b1 Library/control/adaptive_parameter.o
 .debug_abbrev  0x00001afa      0x12a Library/control/attitude_controller_p2.o
 .debug_abbrev  0x00001c24      0x1d7 Library/control/attitude_error_estimator.o
 .debug_abbrev  0x00001dfb      0x2a4 Library/control/joystick_parsing.o
 .debug_abbrev  0x0000209f      0x1af Library/control/pid_control.o
 .debug_abbrev  0x0000224e      0x184 Library/control/servos_mix_quadcopter_cross.o
 .debug_abbrev  0x000023d2      0x184 Library/control/servos_mix_quadcopter_diag.o
 .debug_abbrev  0x00002556      0x310 Library/control/stabilisation_copter.o
 .debug_abbrev  0x00002866      0x259 Library/hal/analog_monitor.o
 .debug_abbrev  0x00002abf      0x140 Library/hal/fat_fs/diskio.o
 .debug_abbrev  0x00002bff      0x2b1 Library/hal/fat_fs/ff.o
 .debug_abbrev  0x00002eb0       0xae Library/hal/fat_fs/option/ccsbcs.o
 .debug_abbrev  0x00002f5e       0x84 Library/hal/fat_fs/option/syscall.o
 .debug_abbrev  0x00002fe2        0x1 Library/hal/fat_fs/option/unicode.o
 .debug_abbrev  0x00002fe3      0x473 Library/hal/gps_ublox.o
 .debug_abbrev  0x00003456      0x164 Library/hal/hmc5883l.o
 .debug_abbrev  0x000035ba      0x220 Library/hal/i2c_driver_int.o
 .debug_abbrev  0x000037da      0x1ff Library/hal/lsm330dlc.o
 .debug_abbrev  0x000039d9      0x116 Library/hal/piezo_speaker.o
 .debug_abbrev  0x00003aef      0x23c Library/hal/pwm_servos.o
 .debug_abbrev  0x00003d2b      0x3c7 Library/hal/sd_spi.o
 .debug_abbrev  0x000040f2      0x24c Library/hal/servos.o
 .debug_abbrev  0x0000433e      0x2c9 Library/hal/sonar_i2cxl.o
 .debug_abbrev  0x00004607      0x360 Library/hal/spektrum_satellite.o
 .debug_abbrev  0x00004967      0x153 Library/hal/time_keeper.o
 .debug_abbrev  0x00004aba      0x123 Library/hal/usb_int.o
 .debug_abbrev  0x00004bdd      0x1d9 Library/hal/xbee.o
 .debug_abbrev  0x00004db6      0x254 Library/sensing/ahrs.o
 .debug_abbrev  0x0000500a      0x3a3 Library/sensing/position_estimation.o
 .debug_abbrev  0x000053ad      0x257 Library/sensing/qfilter.o
 .debug_abbrev  0x00005604      0x129 Library/util/linear_algebra.o
 .debug_abbrev  0x0000572d      0x10b Library/util/matrixlib_float.o
 .debug_abbrev  0x00005838      0x16c Library/util/quick_trig.o
 .debug_abbrev  0x000059a4      0x30a Private_Library/neighbor_selection.o
 .debug_abbrev  0x00005cae      0x3ce Private_Library/orca.o
 .debug_abbrev  0x0000607c      0x20a src/central_data.o
 .debug_abbrev  0x00006286      0x235 src/mavlink_telemetry.o
 .debug_abbrev  0x000064bb      0x301 src/tasks.o
 .debug_abbrev  0x000067bc      0x26b Library/communication/mavlink_stream.o
 .debug_abbrev  0x00006a27      0x39c Library/communication/onboard_parameters.o
 .debug_abbrev  0x00006dc3      0x41d Library/control/navigation.o
 .debug_abbrev  0x000071e0      0x245 Library/control/stabilisation.o
 .debug_abbrev  0x00007425      0x2f7 Library/hal/adc_int.o
 .debug_abbrev  0x0000771c      0x2f6 Library/hal/ads1274.o
 .debug_abbrev  0x00007a12      0x36b Library/hal/bmp085.o
 .debug_abbrev  0x00007d7d      0x209 Library/hal/dac_dma.o
 .debug_abbrev  0x00007f86      0x240 Library/hal/led.o
 .debug_abbrev  0x000081c6      0x2f1 Library/hal/spi_buffered.o
 .debug_abbrev  0x000084b7      0x244 Library/hal/uart_int.o
 .debug_abbrev  0x000086fb      0x342 Library/runtime/scheduler.o
 .debug_abbrev  0x00008a3d      0x259 Library/sensing/imu.o
 .debug_abbrev  0x00008c96      0x413 Library/sensing/simulation.o
 .debug_abbrev  0x000090a9      0x12e Library/util/buffer.o
 .debug_abbrev  0x000091d7      0x105 Library/util/coord_conventions.o
 .debug_abbrev  0x000092dc       0xf5 Library/util/generator.o
 .debug_abbrev  0x000093d1      0x1b6 Library/util/print_util.o
 .debug_abbrev  0x00009587       0x70 Library/util/sinus.o
 .debug_abbrev  0x000095f7      0x1f8 src/asf/avr32/drivers/adcifa/adcifa.o
 .debug_abbrev  0x000097ef      0x225 src/asf/avr32/drivers/ast/ast.o
 .debug_abbrev  0x00009a14      0x25f src/asf/avr32/drivers/dacifb/dacifb.o
 .debug_abbrev  0x00009c73      0x1fd src/asf/avr32/drivers/eic/eic.o
 .debug_abbrev  0x00009e70      0x2da src/asf/avr32/drivers/flashc/flashc.o
 .debug_abbrev  0x0000a14a      0x2cd src/asf/avr32/drivers/gpio/gpio.o
 .debug_abbrev  0x0000a417      0x1ca src/asf/avr32/drivers/intc/intc.o
 .debug_abbrev  0x0000a5e1      0x255 src/asf/avr32/drivers/pdca/pdca.o
 .debug_abbrev  0x0000a836      0x1c2 src/asf/avr32/drivers/pevc/pevc.o
 .debug_abbrev  0x0000a9f8      0x1cc src/asf/avr32/drivers/pm/pm_uc3c.o
 .debug_abbrev  0x0000abc4      0x18b src/asf/avr32/drivers/pm/power_clocks_lib.o
 .debug_abbrev  0x0000ad4f      0x26a src/asf/avr32/drivers/pwm/pwm4.o
 .debug_abbrev  0x0000afb9      0x319 src/asf/avr32/drivers/scif/scif_uc3c.o
 .debug_abbrev  0x0000b2d2      0x247 src/asf/avr32/drivers/spi/spi.o
 .debug_abbrev  0x0000b519      0x24e src/asf/avr32/drivers/tc/tc.o
 .debug_abbrev  0x0000b767      0x281 src/asf/avr32/drivers/twim/twim.o
 .debug_abbrev  0x0000b9e8      0x290 src/asf/avr32/drivers/usart/usart.o
 .debug_abbrev  0x0000bc78      0x3f6 src/asf/avr32/drivers/usbc/usbc_device.o
 .debug_abbrev  0x0000c06e      0x16e src/asf/avr32/services/delay/delay.o
 .debug_abbrev  0x0000c1dc       0x48 src/asf/common/boards/user_board/init.o
 .debug_abbrev  0x0000c224      0x1b5 src/asf/common/services/clock/uc3c/osc.o
 .debug_abbrev  0x0000c3d9      0x1dc src/asf/common/services/clock/uc3c/pll.o
 .debug_abbrev  0x0000c5b5      0x2d7 src/asf/common/services/clock/uc3c/sysclk.o
 .debug_abbrev  0x0000c88c       0x7b src/asf/common/services/sleepmgr/uc3/sleepmgr.o
 .debug_abbrev  0x0000c907      0x24a src/asf/common/services/spi/uc3_spi/spi_master.o
 .debug_abbrev  0x0000cb51      0x2fb src/asf/common/services/usb/class/cdc/device/udi_cdc.o
 .debug_abbrev  0x0000ce4c       0xf9 src/asf/common/services/usb/class/cdc/device/udi_cdc_desc.o
 .debug_abbrev  0x0000cf45      0x2fd src/asf/common/services/usb/udc/udc.o
 .debug_abbrev  0x0000d242       0xd6 src/asf/common/utils/stdio/read.o
 .debug_abbrev  0x0000d318      0x11d src/asf/common/utils/stdio/stdio_usb/stdio_usb.o
 .debug_abbrev  0x0000d435       0xb1 src/asf/common/utils/stdio/write.o
 .debug_abbrev  0x0000d4e6      0x26a src/boardsupport.o
 .debug_abbrev  0x0000d750      0x1bd src/main.o
 .debug_abbrev  0x0000d90d       0xfe c:/program files (x86)/atmel/atmel toolchain/avr32 gcc/native/3.4.2.1002/avr32-gnu-toolchain/bin/../lib/gcc/avr32/4.4.7/../../../../avr32/lib/ucr3fp\libm.a(lib_a-s_cos.o)
 .debug_abbrev  0x0000da0b      0x10f c:/program files (x86)/atmel/atmel toolchain/avr32 gcc/native/3.4.2.1002/avr32-gnu-toolchain/bin/../lib/gcc/avr32/4.4.7/../../../../avr32/lib/ucr3fp\libm.a(lib_a-s_floor.o)
 .debug_abbrev  0x0000db1a       0xfe c:/program files (x86)/atmel/atmel toolchain/avr32 gcc/native/3.4.2.1002/avr32-gnu-toolchain/bin/../lib/gcc/avr32/4.4.7/../../../../avr32/lib/ucr3fp\libm.a(lib_a-s_sin.o)
 .debug_abbrev  0x0000dc18       0xee c:/program files (x86)/atmel/atmel toolchain/avr32 gcc/native/3.4.2.1002/avr32-gnu-toolchain/bin/../lib/gcc/avr32/4.4.7/../../../../avr32/lib/ucr3fp\libm.a(lib_a-w_asin.o)
 .debug_abbrev  0x0000dd06       0x59 c:/program files (x86)/atmel/atmel toolchain/avr32 gcc/native/3.4.2.1002/avr32-gnu-toolchain/bin/../lib/gcc/avr32/4.4.7/../../../../avr32/lib/ucr3fp\libm.a(lib_a-w_atan2.o)
 .debug_abbrev  0x0000dd5f       0xf9 c:/program files (x86)/atmel/atmel toolchain/avr32 gcc/native/3.4.2.1002/avr32-gnu-toolchain/bin/../lib/gcc/avr32/4.4.7/../../../../avr32/lib/ucr3fp\libm.a(lib_a-w_fmod.o)
 .debug_abbrev  0x0000de58       0xf9 c:/program files (x86)/atmel/atmel toolchain/avr32 gcc/native/3.4.2.1002/avr32-gnu-toolchain/bin/../lib/gcc/avr32/4.4.7/../../../../avr32/lib/ucr3fp\libm.a(lib_a-w_pow.o)
 .debug_abbrev  0x0000df51       0xee c:/program files (x86)/atmel/atmel toolchain/avr32 gcc/native/3.4.2.1002/avr32-gnu-toolchain/bin/../lib/gcc/avr32/4.4.7/../../../../avr32/lib/ucr3fp\libm.a(lib_a-w_sqrt.o)
 .debug_abbrev  0x0000e03f       0xc9 c:/program files (x86)/atmel/atmel toolchain/avr32 gcc/native/3.4.2.1002/avr32-gnu-toolchain/bin/../lib/gcc/avr32/4.4.7/../../../../avr32/lib/ucr3fp\libm.a(lib_a-wf_sqrt.o)
 .debug_abbrev  0x0000e108      0x11c c:/program files (x86)/atmel/atmel toolchain/avr32 gcc/native/3.4.2.1002/avr32-gnu-toolchain/bin/../lib/gcc/avr32/4.4.7/../../../../avr32/lib/ucr3fp\libm.a(lib_a-e_asin.o)
 .debug_abbrev  0x0000e224      0x12b c:/program files (x86)/atmel/atmel toolchain/avr32 gcc/native/3.4.2.1002/avr32-gnu-toolchain/bin/../lib/gcc/avr32/4.4.7/../../../../avr32/lib/ucr3fp\libm.a(lib_a-e_atan2.o)
 .debug_abbrev  0x0000e34f      0x121 c:/program files (x86)/atmel/atmel toolchain/avr32 gcc/native/3.4.2.1002/avr32-gnu-toolchain/bin/../lib/gcc/avr32/4.4.7/../../../../avr32/lib/ucr3fp\libm.a(lib_a-e_fmod.o)
 .debug_abbrev  0x0000e470      0x166 c:/program files (x86)/atmel/atmel toolchain/avr32 gcc/native/3.4.2.1002/avr32-gnu-toolchain/bin/../lib/gcc/avr32/4.4.7/../../../../avr32/lib/ucr3fp\libm.a(lib_a-e_pow.o)
 .debug_abbrev  0x0000e5d6      0x14f c:/program files (x86)/atmel/atmel toolchain/avr32 gcc/native/3.4.2.1002/avr32-gnu-toolchain/bin/../lib/gcc/avr32/4.4.7/../../../../avr32/lib/ucr3fp\libm.a(lib_a-e_rem_pio2.o)
 .debug_abbrev  0x0000e725      0x138 c:/program files (x86)/atmel/atmel toolchain/avr32 gcc/native/3.4.2.1002/avr32-gnu-toolchain/bin/../lib/gcc/avr32/4.4.7/../../../../avr32/lib/ucr3fp\libm.a(lib_a-e_sqrt.o)
 .debug_abbrev  0x0000e85d       0xc5 c:/program files (x86)/atmel/atmel toolchain/avr32 gcc/native/3.4.2.1002/avr32-gnu-toolchain/bin/../lib/gcc/avr32/4.4.7/../../../../avr32/lib/ucr3fp\libm.a(lib_a-ef_sqrt.o)
 .debug_abbrev  0x0000e922      0x11e c:/program files (x86)/atmel/atmel toolchain/avr32 gcc/native/3.4.2.1002/avr32-gnu-toolchain/bin/../lib/gcc/avr32/4.4.7/../../../../avr32/lib/ucr3fp\libm.a(lib_a-k_cos.o)
 .debug_abbrev  0x0000ea40      0x11a c:/program files (x86)/atmel/atmel toolchain/avr32 gcc/native/3.4.2.1002/avr32-gnu-toolchain/bin/../lib/gcc/avr32/4.4.7/../../../../avr32/lib/ucr3fp\libm.a(lib_a-k_rem_pio2.o)
 .debug_abbrev  0x0000eb5a       0x9a c:/program files (x86)/atmel/atmel toolchain/avr32 gcc/native/3.4.2.1002/avr32-gnu-toolchain/bin/../lib/gcc/avr32/4.4.7/../../../../avr32/lib/ucr3fp\libm.a(lib_a-k_sin.o)
 .debug_abbrev  0x0000ebf4      0x130 c:/program files (x86)/atmel/atmel toolchain/avr32 gcc/native/3.4.2.1002/avr32-gnu-toolchain/bin/../lib/gcc/avr32/4.4.7/../../../../avr32/lib/ucr3fp\libm.a(lib_a-s_atan.o)
 .debug_abbrev  0x0000ed24       0xce c:/program files (x86)/atmel/atmel toolchain/avr32 gcc/native/3.4.2.1002/avr32-gnu-toolchain/bin/../lib/gcc/avr32/4.4.7/../../../../avr32/lib/ucr3fp\libm.a(lib_a-s_fabs.o)
 .debug_abbrev  0x0000edf2       0xcc c:/program files (x86)/atmel/atmel toolchain/avr32 gcc/native/3.4.2.1002/avr32-gnu-toolchain/bin/../lib/gcc/avr32/4.4.7/../../../../avr32/lib/ucr3fp\libm.a(lib_a-s_finite.o)
 .debug_abbrev  0x0000eebe       0xce c:/program files (x86)/atmel/atmel toolchain/avr32 gcc/native/3.4.2.1002/avr32-gnu-toolchain/bin/../lib/gcc/avr32/4.4.7/../../../../avr32/lib/ucr3fp\libm.a(lib_a-s_isnand.o)
 .debug_abbrev  0x0000ef8c       0x5a c:/program files (x86)/atmel/atmel toolchain/avr32 gcc/native/3.4.2.1002/avr32-gnu-toolchain/bin/../lib/gcc/avr32/4.4.7/../../../../avr32/lib/ucr3fp\libm.a(lib_a-s_lib_ver.o)
 .debug_abbrev  0x0000efe6       0x9e c:/program files (x86)/atmel/atmel toolchain/avr32 gcc/native/3.4.2.1002/avr32-gnu-toolchain/bin/../lib/gcc/avr32/4.4.7/../../../../avr32/lib/ucr3fp\libm.a(lib_a-s_matherr.o)
 .debug_abbrev  0x0000f084       0x76 c:/program files (x86)/atmel/atmel toolchain/avr32 gcc/native/3.4.2.1002/avr32-gnu-toolchain/bin/../lib/gcc/avr32/4.4.7/../../../../avr32/lib/ucr3fp\libm.a(lib_a-s_nan.o)
 .debug_abbrev  0x0000f0fa      0x119 c:/program files (x86)/atmel/atmel toolchain/avr32 gcc/native/3.4.2.1002/avr32-gnu-toolchain/bin/../lib/gcc/avr32/4.4.7/../../../../avr32/lib/ucr3fp\libm.a(lib_a-s_rint.o)
 .debug_abbrev  0x0000f213      0x118 c:/program files (x86)/atmel/atmel toolchain/avr32 gcc/native/3.4.2.1002/avr32-gnu-toolchain/bin/../lib/gcc/avr32/4.4.7/../../../../avr32/lib/ucr3fp\libm.a(lib_a-s_scalbn.o)
 .debug_abbrev  0x0000f32b       0xb0 c:/program files (x86)/atmel/atmel toolchain/avr32 gcc/native/3.4.2.1002/avr32-gnu-toolchain/bin/../lib/gcc/avr32/4.4.7/../../../../avr32/lib/ucr3fp\libm.a(lib_a-sf_isnan.o)
 .debug_abbrev  0x0000f3db       0xce c:/program files (x86)/atmel/atmel toolchain/avr32 gcc/native/3.4.2.1002/avr32-gnu-toolchain/bin/../lib/gcc/avr32/4.4.7/../../../../avr32/lib/ucr3fp\libm.a(lib_a-s_copysign.o)
 .debug_abbrev  0x0000f4a9       0x6a c:/program files (x86)/atmel/atmel toolchain/avr32 gcc/native/3.4.2.1002/avr32-gnu-toolchain/bin/../lib/gcc/avr32/4.4.7/ucr3fp\libgcc.a(_floatdidf.o)
 .debug_abbrev  0x0000f513      0x178 c:/program files (x86)/atmel/atmel toolchain/avr32 gcc/native/3.4.2.1002/avr32-gnu-toolchain/bin/../lib/gcc/avr32/4.4.7/ucr3fp\libgcc.a(_divdi3.o)
 .debug_abbrev  0x0000f68b      0x178 c:/program files (x86)/atmel/atmel toolchain/avr32 gcc/native/3.4.2.1002/avr32-gnu-toolchain/bin/../lib/gcc/avr32/4.4.7/ucr3fp\libgcc.a(_moddi3.o)
 .debug_abbrev  0x0000f803      0x15a c:/program files (x86)/atmel/atmel toolchain/avr32 gcc/native/3.4.2.1002/avr32-gnu-toolchain/bin/../lib/gcc/avr32/4.4.7/ucr3fp\libgcc.a(_udivdi3.o)
 .debug_abbrev  0x0000f95d      0x169 c:/program files (x86)/atmel/atmel toolchain/avr32 gcc/native/3.4.2.1002/avr32-gnu-toolchain/bin/../lib/gcc/avr32/4.4.7/ucr3fp\libgcc.a(_umoddi3.o)
 .debug_abbrev  0x0000fac6      0x150 c:/program files (x86)/atmel/atmel toolchain/avr32 gcc/native/3.4.2.1002/avr32-gnu-toolchain/bin/../lib/gcc/avr32/4.4.7/../../../../avr32/lib/ucr3fp\libc.a(lib_a-errno.o)
 .debug_abbrev  0x0000fc16      0x160 c:/program files (x86)/atmel/atmel toolchain/avr32 gcc/native/3.4.2.1002/avr32-gnu-toolchain/bin/../lib/gcc/avr32/4.4.7/../../../../avr32/lib/ucr3fp\libc.a(lib_a-impure.o)
 .debug_abbrev  0x0000fd76      0x178 c:/program files (x86)/atmel/atmel toolchain/avr32 gcc/native/3.4.2.1002/avr32-gnu-toolchain/bin/../lib/gcc/avr32/4.4.7/../../../../avr32/lib/ucr3fp\libc.a(lib_a-malloc.o)
 .debug_abbrev  0x0000feee      0x205 c:/program files (x86)/atmel/atmel toolchain/avr32 gcc/native/3.4.2.1002/avr32-gnu-toolchain/bin/../lib/gcc/avr32/4.4.7/../../../../avr32/lib/ucr3fp\libc.a(lib_a-mallocr.o)
 .debug_abbrev  0x000100f3       0x85 c:/program files (x86)/atmel/atmel toolchain/avr32 gcc/native/3.4.2.1002/avr32-gnu-toolchain/bin/../lib/gcc/avr32/4.4.7/../../../../avr32/lib/ucr3fp\libc.a(lib_a-memset.o)
 .debug_abbrev  0x00010178      0x15b c:/program files (x86)/atmel/atmel toolchain/avr32 gcc/native/3.4.2.1002/avr32-gnu-toolchain/bin/../lib/gcc/avr32/4.4.7/../../../../avr32/lib/ucr3fp\libc.a(lib_a-mlock.o)
 .debug_abbrev  0x000102d3      0x17f c:/program files (x86)/atmel/atmel toolchain/avr32 gcc/native/3.4.2.1002/avr32-gnu-toolchain/bin/../lib/gcc/avr32/4.4.7/../../../../avr32/lib/ucr3fp\libc.a(lib_a-sbrkr.o)
 .debug_abbrev  0x00010452      0x1a9 c:/program files (x86)/atmel/atmel toolchain/avr32 gcc/native/3.4.2.1002/avr32-gnu-toolchain/bin/../lib/gcc/avr32/4.4.7/../../../../avr32/lib/ucr3fp\libc.a(lib_a-snprintf.o)
 .debug_abbrev  0x000105fb       0x76 c:/program files (x86)/atmel/atmel toolchain/avr32 gcc/native/3.4.2.1002/avr32-gnu-toolchain/bin/../lib/gcc/avr32/4.4.7/../../../../avr32/lib/ucr3fp\libc.a(lib_a-strcpy.o)
 .debug_abbrev  0x00010671       0x83 c:/program files (x86)/atmel/atmel toolchain/avr32 gcc/native/3.4.2.1002/avr32-gnu-toolchain/bin/../lib/gcc/avr32/4.4.7/../../../../avr32/lib/ucr3fp\libc.a(lib_a-strlen.o)
 .debug_abbrev  0x000106f4      0x19a c:/program files (x86)/atmel/atmel toolchain/avr32 gcc/native/3.4.2.1002/avr32-gnu-toolchain/bin/../lib/gcc/avr32/4.4.7/../../../../avr32/lib/ucr3fp\libc.a(lib_a-syscalls.o)
 .debug_abbrev  0x0001088e      0x3dd c:/program files (x86)/atmel/atmel toolchain/avr32 gcc/native/3.4.2.1002/avr32-gnu-toolchain/bin/../lib/gcc/avr32/4.4.7/../../../../avr32/lib/ucr3fp\libc.a(lib_a-vfprintf.o)
 .debug_abbrev  0x00010c6b      0x16a c:/program files (x86)/atmel/atmel toolchain/avr32 gcc/native/3.4.2.1002/avr32-gnu-toolchain/bin/../lib/gcc/avr32/4.4.7/../../../../avr32/lib/ucr3fp\libc.a(lib_a-wsetup.o)
 .debug_abbrev  0x00010dd5      0x251 c:/program files (x86)/atmel/atmel toolchain/avr32 gcc/native/3.4.2.1002/avr32-gnu-toolchain/bin/../lib/gcc/avr32/4.4.7/../../../../avr32/lib/ucr3fp\libc.a(lib_a-dtoa.o)
 .debug_abbrev  0x00011026      0x1c6 c:/program files (x86)/atmel/atmel toolchain/avr32 gcc/native/3.4.2.1002/avr32-gnu-toolchain/bin/../lib/gcc/avr32/4.4.7/../../../../avr32/lib/ucr3fp\libc.a(lib_a-fflush.o)
 .debug_abbrev  0x000111ec      0x28c c:/program files (x86)/atmel/atmel toolchain/avr32 gcc/native/3.4.2.1002/avr32-gnu-toolchain/bin/../lib/gcc/avr32/4.4.7/../../../../avr32/lib/ucr3fp\libc.a(lib_a-findfp.o)
 .debug_abbrev  0x00011478      0x1d9 c:/program files (x86)/atmel/atmel toolchain/avr32 gcc/native/3.4.2.1002/avr32-gnu-toolchain/bin/../lib/gcc/avr32/4.4.7/../../../../avr32/lib/ucr3fp\libc.a(lib_a-freer.o)
 .debug_abbrev  0x00011651      0x1b4 c:/program files (x86)/atmel/atmel toolchain/avr32 gcc/native/3.4.2.1002/avr32-gnu-toolchain/bin/../lib/gcc/avr32/4.4.7/../../../../avr32/lib/ucr3fp\libc.a(lib_a-fvwrite.o)
 .debug_abbrev  0x00011805      0x1df c:/program files (x86)/atmel/atmel toolchain/avr32 gcc/native/3.4.2.1002/avr32-gnu-toolchain/bin/../lib/gcc/avr32/4.4.7/../../../../avr32/lib/ucr3fp\libc.a(lib_a-fwalk.o)
 .debug_abbrev  0x000119e4      0x210 c:/program files (x86)/atmel/atmel toolchain/avr32 gcc/native/3.4.2.1002/avr32-gnu-toolchain/bin/../lib/gcc/avr32/4.4.7/../../../../avr32/lib/ucr3fp\libc.a(lib_a-locale.o)
 .debug_abbrev  0x00011bf4      0x17b c:/program files (x86)/atmel/atmel toolchain/avr32 gcc/native/3.4.2.1002/avr32-gnu-toolchain/bin/../lib/gcc/avr32/4.4.7/../../../../avr32/lib/ucr3fp\libc.a(lib_a-makebuf.o)
 .debug_abbrev  0x00011d6f       0xb1 c:/program files (x86)/atmel/atmel toolchain/avr32 gcc/native/3.4.2.1002/avr32-gnu-toolchain/bin/../lib/gcc/avr32/4.4.7/../../../../avr32/lib/ucr3fp\libc.a(lib_a-memchr.o)
 .debug_abbrev  0x00011e20       0xa2 c:/program files (x86)/atmel/atmel toolchain/avr32 gcc/native/3.4.2.1002/avr32-gnu-toolchain/bin/../lib/gcc/avr32/4.4.7/../../../../avr32/lib/ucr3fp\libc.a(lib_a-memmove.o)
 .debug_abbrev  0x00011ec2      0x30e c:/program files (x86)/atmel/atmel toolchain/avr32 gcc/native/3.4.2.1002/avr32-gnu-toolchain/bin/../lib/gcc/avr32/4.4.7/../../../../avr32/lib/ucr3fp\libc.a(lib_a-mprec.o)
 .debug_abbrev  0x000121d0      0x1c1 c:/program files (x86)/atmel/atmel toolchain/avr32 gcc/native/3.4.2.1002/avr32-gnu-toolchain/bin/../lib/gcc/avr32/4.4.7/../../../../avr32/lib/ucr3fp\libc.a(lib_a-reallocr.o)
 .debug_abbrev  0x00012391      0x1e6 c:/program files (x86)/atmel/atmel toolchain/avr32 gcc/native/3.4.2.1002/avr32-gnu-toolchain/bin/../lib/gcc/avr32/4.4.7/../../../../avr32/lib/ucr3fp\libc.a(lib_a-reent.o)
 .debug_abbrev  0x00012577       0xdd c:/program files (x86)/atmel/atmel toolchain/avr32 gcc/native/3.4.2.1002/avr32-gnu-toolchain/bin/../lib/gcc/avr32/4.4.7/../../../../avr32/lib/ucr3fp\libc.a(lib_a-s_isinfd.o)
 .debug_abbrev  0x00012654      0x192 c:/program files (x86)/atmel/atmel toolchain/avr32 gcc/native/3.4.2.1002/avr32-gnu-toolchain/bin/../lib/gcc/avr32/4.4.7/../../../../avr32/lib/ucr3fp\libc.a(lib_a-stdio.o)
 .debug_abbrev  0x000127e6      0x175 c:/program files (x86)/atmel/atmel toolchain/avr32 gcc/native/3.4.2.1002/avr32-gnu-toolchain/bin/../lib/gcc/avr32/4.4.7/../../../../avr32/lib/ucr3fp\libc.a(lib_a-writer.o)
 .debug_abbrev  0x0001295b      0x193 c:/program files (x86)/atmel/atmel toolchain/avr32 gcc/native/3.4.2.1002/avr32-gnu-toolchain/bin/../lib/gcc/avr32/4.4.7/../../../../avr32/lib/ucr3fp\libc.a(lib_a-callocr.o)
 .debug_abbrev  0x00012aee      0x170 c:/program files (x86)/atmel/atmel toolchain/avr32 gcc/native/3.4.2.1002/avr32-gnu-toolchain/bin/../lib/gcc/avr32/4.4.7/../../../../avr32/lib/ucr3fp\libc.a(lib_a-closer.o)
 .debug_abbrev  0x00012c5e      0x1a1 c:/program files (x86)/atmel/atmel toolchain/avr32 gcc/native/3.4.2.1002/avr32-gnu-toolchain/bin/../lib/gcc/avr32/4.4.7/../../../../avr32/lib/ucr3fp\libc.a(lib_a-fclose.o)
 .debug_abbrev  0x00012dff      0x17f c:/program files (x86)/atmel/atmel toolchain/avr32 gcc/native/3.4.2.1002/avr32-gnu-toolchain/bin/../lib/gcc/avr32/4.4.7/../../../../avr32/lib/ucr3fp\libc.a(lib_a-fstatr.o)
 .debug_abbrev  0x00012f7e      0x17f c:/program files (x86)/atmel/atmel toolchain/avr32 gcc/native/3.4.2.1002/avr32-gnu-toolchain/bin/../lib/gcc/avr32/4.4.7/../../../../avr32/lib/ucr3fp\libc.a(lib_a-lseekr.o)
 .debug_abbrev  0x000130fd      0x170 c:/program files (x86)/atmel/atmel toolchain/avr32 gcc/native/3.4.2.1002/avr32-gnu-toolchain/bin/../lib/gcc/avr32/4.4.7/../../../../avr32/lib/ucr3fp\libc.a(lib_a-readr.o)

.debug_line     0x00000000    0x3c767
 *(.debug_line)
 .debug_line    0x00000000      0x2cb Library/communication/console.o
 .debug_line    0x000002cb      0xfcc Library/communication/data_logging.o
 .debug_line    0x00001297      0x57a Library/communication/hud.o
 .debug_line    0x00001811      0x443 Library/communication/mavlink_communication.o
 .debug_line    0x00001c54      0x72c Library/communication/mavlink_message_handler.o
 .debug_line    0x00002380     0x3318 Library/communication/mavlink_waypoint_handler.o
 .debug_line    0x00005698      0xcd7 Library/communication/remote.o
 .debug_line    0x0000636f      0xa3a Library/communication/state.o
 .debug_line    0x00006da9      0x537 Library/communication/state_machine.o
 .debug_line    0x000072e0      0x231 Library/control/adaptive_parameter.o
 .debug_line    0x00007511      0x2c1 Library/control/attitude_controller_p2.o
 .debug_line    0x000077d2      0x43c Library/control/attitude_error_estimator.o
 .debug_line    0x00007c0e      0x9ab Library/control/joystick_parsing.o
 .debug_line    0x000085b9      0x2ff Library/control/pid_control.o
 .debug_line    0x000088b8      0x2f9 Library/control/servos_mix_quadcopter_cross.o
 .debug_line    0x00008bb1      0x327 Library/control/servos_mix_quadcopter_diag.o
 .debug_line    0x00008ed8      0xb4e Library/control/stabilisation_copter.o
 .debug_line    0x00009a26      0x5d6 Library/hal/analog_monitor.o
 .debug_line    0x00009ffc      0x28b Library/hal/fat_fs/diskio.o
 .debug_line    0x0000a287     0x3e82 Library/hal/fat_fs/ff.o
 .debug_line    0x0000e109       0xea Library/hal/fat_fs/option/ccsbcs.o
 .debug_line    0x0000e1f3       0xaf Library/hal/fat_fs/option/syscall.o
 .debug_line    0x0000e2a2        0x0 Library/hal/fat_fs/option/unicode.o
 .debug_line    0x0000e2a2     0x1b84 Library/hal/gps_ublox.o
 .debug_line    0x0000fe26      0x22a Library/hal/hmc5883l.o
 .debug_line    0x00010050      0x4ce Library/hal/i2c_driver_int.o
 .debug_line    0x0001051e      0x3d7 Library/hal/lsm330dlc.o
 .debug_line    0x000108f5      0x3f2 Library/hal/piezo_speaker.o
 .debug_line    0x00010ce7      0x3db Library/hal/pwm_servos.o
 .debug_line    0x000110c2     0x1941 Library/hal/sd_spi.o
 .debug_line    0x00012a03      0x628 Library/hal/servos.o
 .debug_line    0x0001302b      0x5ab Library/hal/sonar_i2cxl.o
 .debug_line    0x000135d6      0x6e4 Library/hal/spektrum_satellite.o
 .debug_line    0x00013cba      0x24b Library/hal/time_keeper.o
 .debug_line    0x00013f05      0x1d1 Library/hal/usb_int.o
 .debug_line    0x000140d6      0x259 Library/hal/xbee.o
 .debug_line    0x0001432f      0x6f5 Library/sensing/ahrs.o
 .debug_line    0x00014a24     0x1089 Library/sensing/position_estimation.o
 .debug_line    0x00015aad      0x93f Library/sensing/qfilter.o
 .debug_line    0x000163ec      0x5ed Library/util/linear_algebra.o
 .debug_line    0x000169d9      0x3c7 Library/util/matrixlib_float.o
 .debug_line    0x00016da0      0x3ab Library/util/quick_trig.o
 .debug_line    0x0001714b      0x692 Private_Library/neighbor_selection.o
 .debug_line    0x000177dd     0x1333 Private_Library/orca.o
 .debug_line    0x00018b10      0x7f0 src/central_data.o
 .debug_line    0x00019300      0x86a src/mavlink_telemetry.o
 .debug_line    0x00019b6a      0x8e6 src/tasks.o
 .debug_line    0x0001a450      0x563 Library/communication/mavlink_stream.o
 .debug_line    0x0001a9b3      0xde4 Library/communication/onboard_parameters.o
 .debug_line    0x0001b797     0x11e7 Library/control/navigation.o
 .debug_line    0x0001c97e      0x825 Library/control/stabilisation.o
 .debug_line    0x0001d1a3      0x568 Library/hal/adc_int.o
 .debug_line    0x0001d70b      0x427 Library/hal/ads1274.o
 .debug_line    0x0001db32      0x8f7 Library/hal/bmp085.o
 .debug_line    0x0001e429      0x466 Library/hal/dac_dma.o
 .debug_line    0x0001e88f      0x45d Library/hal/led.o
 .debug_line    0x0001ecec      0x775 Library/hal/spi_buffered.o
 .debug_line    0x0001f461      0x464 Library/hal/uart_int.o
 .debug_line    0x0001f8c5      0xfb2 Library/runtime/scheduler.o
 .debug_line    0x00020877      0xa07 Library/sensing/imu.o
 .debug_line    0x0002127e     0x1ec5 Library/sensing/simulation.o
 .debug_line    0x00023143      0x2e0 Library/util/buffer.o
 .debug_line    0x00023423      0x2fb Library/util/coord_conventions.o
 .debug_line    0x0002371e      0x1c9 Library/util/generator.o
 .debug_line    0x000238e7      0x50b Library/util/print_util.o
 .debug_line    0x00023df2       0xfb Library/util/sinus.o
 .debug_line    0x00023eed      0x55a src/asf/avr32/drivers/adcifa/adcifa.o
 .debug_line    0x00024447      0x4ed src/asf/avr32/drivers/ast/ast.o
 .debug_line    0x00024934      0x4ea src/asf/avr32/drivers/dacifb/dacifb.o
 .debug_line    0x00024e1e      0x481 src/asf/avr32/drivers/eic/eic.o
 .debug_line    0x0002529f     0x13dd src/asf/avr32/drivers/flashc/flashc.o
 .debug_line    0x0002667c      0x932 src/asf/avr32/drivers/gpio/gpio.o
 .debug_line    0x00026fae      0x1bf src/asf/avr32/drivers/intc/intc.o
 .debug_line    0x0002716d      0x578 src/asf/avr32/drivers/pdca/pdca.o
 .debug_line    0x000276e5      0x31b src/asf/avr32/drivers/pevc/pevc.o
 .debug_line    0x00027a00      0x36f src/asf/avr32/drivers/pm/pm_uc3c.o
 .debug_line    0x00027d6f      0x2f5 src/asf/avr32/drivers/pm/power_clocks_lib.o
 .debug_line    0x00028064      0x908 src/asf/avr32/drivers/pwm/pwm4.o
 .debug_line    0x0002896c      0xa25 src/asf/avr32/drivers/scif/scif_uc3c.o
 .debug_line    0x00029391      0x542 src/asf/avr32/drivers/spi/spi.o
 .debug_line    0x000298d3      0x4f8 src/asf/avr32/drivers/tc/tc.o
 .debug_line    0x00029dcb      0xa2c src/asf/avr32/drivers/twim/twim.o
 .debug_line    0x0002a7f7      0x966 src/asf/avr32/drivers/usart/usart.o
 .debug_line    0x0002b15d     0x135e src/asf/avr32/drivers/usbc/usbc_device.o
 .debug_line    0x0002c4bb      0x186 src/asf/avr32/services/delay/delay.o
 .debug_line    0x0002c641       0x73 src/asf/common/boards/user_board/init.o
 .debug_line    0x0002c6b4      0x43f src/asf/common/services/clock/uc3c/osc.o
 .debug_line    0x0002caf3      0x2b4 src/asf/common/services/clock/uc3c/pll.o
 .debug_line    0x0002cda7      0x539 src/asf/common/services/clock/uc3c/sysclk.o
 .debug_line    0x0002d2e0       0xff src/asf/common/services/sleepmgr/uc3/sleepmgr.o
 .debug_line    0x0002d3df      0x4aa src/asf/common/services/spi/uc3_spi/spi_master.o
 .debug_line    0x0002d889      0xbad src/asf/common/services/usb/class/cdc/device/udi_cdc.o
 .debug_line    0x0002e436      0x1d9 src/asf/common/services/usb/class/cdc/device/udi_cdc_desc.o
 .debug_line    0x0002e60f      0x801 src/asf/common/services/usb/udc/udc.o
 .debug_line    0x0002ee10       0xa4 src/asf/common/utils/stdio/read.o
 .debug_line    0x0002eeb4      0x183 src/asf/common/utils/stdio/stdio_usb/stdio_usb.o
 .debug_line    0x0002f037       0x8d src/asf/common/utils/stdio/write.o
 .debug_line    0x0002f0c4      0x77c src/boardsupport.o
 .debug_line    0x0002f840      0x5bd src/main.o
 .debug_line    0x0002fdfd      0x244 c:/program files (x86)/atmel/atmel toolchain/avr32 gcc/native/3.4.2.1002/avr32-gnu-toolchain/bin/../lib/gcc/avr32/4.4.7/../../../../avr32/lib/ucr3fp\libm.a(lib_a-s_cos.o)
 .debug_line    0x00030041      0x295 c:/program files (x86)/atmel/atmel toolchain/avr32 gcc/native/3.4.2.1002/avr32-gnu-toolchain/bin/../lib/gcc/avr32/4.4.7/../../../../avr32/lib/ucr3fp\libm.a(lib_a-s_floor.o)
 .debug_line    0x000302d6      0x245 c:/program files (x86)/atmel/atmel toolchain/avr32 gcc/native/3.4.2.1002/avr32-gnu-toolchain/bin/../lib/gcc/avr32/4.4.7/../../../../avr32/lib/ucr3fp\libm.a(lib_a-s_sin.o)
 .debug_line    0x0003051b      0x17d c:/program files (x86)/atmel/atmel toolchain/avr32 gcc/native/3.4.2.1002/avr32-gnu-toolchain/bin/../lib/gcc/avr32/4.4.7/../../../../avr32/lib/ucr3fp\libm.a(lib_a-w_asin.o)
 .debug_line    0x00030698      0x112 c:/program files (x86)/atmel/atmel toolchain/avr32 gcc/native/3.4.2.1002/avr32-gnu-toolchain/bin/../lib/gcc/avr32/4.4.7/../../../../avr32/lib/ucr3fp\libm.a(lib_a-w_atan2.o)
 .debug_line    0x000307aa      0x195 c:/program files (x86)/atmel/atmel toolchain/avr32 gcc/native/3.4.2.1002/avr32-gnu-toolchain/bin/../lib/gcc/avr32/4.4.7/../../../../avr32/lib/ucr3fp\libm.a(lib_a-w_fmod.o)
 .debug_line    0x0003093f      0x31a c:/program files (x86)/atmel/atmel toolchain/avr32 gcc/native/3.4.2.1002/avr32-gnu-toolchain/bin/../lib/gcc/avr32/4.4.7/../../../../avr32/lib/ucr3fp\libm.a(lib_a-w_pow.o)
 .debug_line    0x00030c59      0x194 c:/program files (x86)/atmel/atmel toolchain/avr32 gcc/native/3.4.2.1002/avr32-gnu-toolchain/bin/../lib/gcc/avr32/4.4.7/../../../../avr32/lib/ucr3fp\libm.a(lib_a-w_sqrt.o)
 .debug_line    0x00030ded      0x18f c:/program files (x86)/atmel/atmel toolchain/avr32 gcc/native/3.4.2.1002/avr32-gnu-toolchain/bin/../lib/gcc/avr32/4.4.7/../../../../avr32/lib/ucr3fp\libm.a(lib_a-wf_sqrt.o)
 .debug_line    0x00030f7c      0x270 c:/program files (x86)/atmel/atmel toolchain/avr32 gcc/native/3.4.2.1002/avr32-gnu-toolchain/bin/../lib/gcc/avr32/4.4.7/../../../../avr32/lib/ucr3fp\libm.a(lib_a-e_asin.o)
 .debug_line    0x000311ec      0x27c c:/program files (x86)/atmel/atmel toolchain/avr32 gcc/native/3.4.2.1002/avr32-gnu-toolchain/bin/../lib/gcc/avr32/4.4.7/../../../../avr32/lib/ucr3fp\libm.a(lib_a-e_atan2.o)
 .debug_line    0x00031468      0x347 c:/program files (x86)/atmel/atmel toolchain/avr32 gcc/native/3.4.2.1002/avr32-gnu-toolchain/bin/../lib/gcc/avr32/4.4.7/../../../../avr32/lib/ucr3fp\libm.a(lib_a-e_fmod.o)
 .debug_line    0x000317af      0x5e7 c:/program files (x86)/atmel/atmel toolchain/avr32 gcc/native/3.4.2.1002/avr32-gnu-toolchain/bin/../lib/gcc/avr32/4.4.7/../../../../avr32/lib/ucr3fp\libm.a(lib_a-e_pow.o)
 .debug_line    0x00031d96      0x3ac c:/program files (x86)/atmel/atmel toolchain/avr32 gcc/native/3.4.2.1002/avr32-gnu-toolchain/bin/../lib/gcc/avr32/4.4.7/../../../../avr32/lib/ucr3fp\libm.a(lib_a-e_rem_pio2.o)
 .debug_line    0x00032142      0x34e c:/program files (x86)/atmel/atmel toolchain/avr32 gcc/native/3.4.2.1002/avr32-gnu-toolchain/bin/../lib/gcc/avr32/4.4.7/../../../../avr32/lib/ucr3fp\libm.a(lib_a-e_sqrt.o)
 .debug_line    0x00032490      0x1d1 c:/program files (x86)/atmel/atmel toolchain/avr32 gcc/native/3.4.2.1002/avr32-gnu-toolchain/bin/../lib/gcc/avr32/4.4.7/../../../../avr32/lib/ucr3fp\libm.a(lib_a-ef_sqrt.o)
 .debug_line    0x00032661      0x1e5 c:/program files (x86)/atmel/atmel toolchain/avr32 gcc/native/3.4.2.1002/avr32-gnu-toolchain/bin/../lib/gcc/avr32/4.4.7/../../../../avr32/lib/ucr3fp\libm.a(lib_a-k_cos.o)
 .debug_line    0x00032846      0x4db c:/program files (x86)/atmel/atmel toolchain/avr32 gcc/native/3.4.2.1002/avr32-gnu-toolchain/bin/../lib/gcc/avr32/4.4.7/../../../../avr32/lib/ucr3fp\libm.a(lib_a-k_rem_pio2.o)
 .debug_line    0x00032d21      0x170 c:/program files (x86)/atmel/atmel toolchain/avr32 gcc/native/3.4.2.1002/avr32-gnu-toolchain/bin/../lib/gcc/avr32/4.4.7/../../../../avr32/lib/ucr3fp\libm.a(lib_a-k_sin.o)
 .debug_line    0x00032e91      0x2c4 c:/program files (x86)/atmel/atmel toolchain/avr32 gcc/native/3.4.2.1002/avr32-gnu-toolchain/bin/../lib/gcc/avr32/4.4.7/../../../../avr32/lib/ucr3fp\libm.a(lib_a-s_atan.o)
 .debug_line    0x00033155      0x204 c:/program files (x86)/atmel/atmel toolchain/avr32 gcc/native/3.4.2.1002/avr32-gnu-toolchain/bin/../lib/gcc/avr32/4.4.7/../../../../avr32/lib/ucr3fp\libm.a(lib_a-s_fabs.o)
 .debug_line    0x00033359      0x19e c:/program files (x86)/atmel/atmel toolchain/avr32 gcc/native/3.4.2.1002/avr32-gnu-toolchain/bin/../lib/gcc/avr32/4.4.7/../../../../avr32/lib/ucr3fp\libm.a(lib_a-s_finite.o)
 .debug_line    0x000334f7      0x1a5 c:/program files (x86)/atmel/atmel toolchain/avr32 gcc/native/3.4.2.1002/avr32-gnu-toolchain/bin/../lib/gcc/avr32/4.4.7/../../../../avr32/lib/ucr3fp\libm.a(lib_a-s_isnand.o)
 .debug_line    0x0003369c       0x89 c:/program files (x86)/atmel/atmel toolchain/avr32 gcc/native/3.4.2.1002/avr32-gnu-toolchain/bin/../lib/gcc/avr32/4.4.7/../../../../avr32/lib/ucr3fp\libm.a(lib_a-s_lib_ver.o)
 .debug_line    0x00033725      0x110 c:/program files (x86)/atmel/atmel toolchain/avr32 gcc/native/3.4.2.1002/avr32-gnu-toolchain/bin/../lib/gcc/avr32/4.4.7/../../../../avr32/lib/ucr3fp\libm.a(lib_a-s_matherr.o)
 .debug_line    0x00033835      0x10b c:/program files (x86)/atmel/atmel toolchain/avr32 gcc/native/3.4.2.1002/avr32-gnu-toolchain/bin/../lib/gcc/avr32/4.4.7/../../../../avr32/lib/ucr3fp\libm.a(lib_a-s_nan.o)
 .debug_line    0x00033940      0x262 c:/program files (x86)/atmel/atmel toolchain/avr32 gcc/native/3.4.2.1002/avr32-gnu-toolchain/bin/../lib/gcc/avr32/4.4.7/../../../../avr32/lib/ucr3fp\libm.a(lib_a-s_rint.o)
 .debug_line    0x00033ba2      0x21d c:/program files (x86)/atmel/atmel toolchain/avr32 gcc/native/3.4.2.1002/avr32-gnu-toolchain/bin/../lib/gcc/avr32/4.4.7/../../../../avr32/lib/ucr3fp\libm.a(lib_a-s_scalbn.o)
 .debug_line    0x00033dbf      0x19e c:/program files (x86)/atmel/atmel toolchain/avr32 gcc/native/3.4.2.1002/avr32-gnu-toolchain/bin/../lib/gcc/avr32/4.4.7/../../../../avr32/lib/ucr3fp\libm.a(lib_a-sf_isnan.o)
 .debug_line    0x00033f5d      0x1a1 c:/program files (x86)/atmel/atmel toolchain/avr32 gcc/native/3.4.2.1002/avr32-gnu-toolchain/bin/../lib/gcc/avr32/4.4.7/../../../../avr32/lib/ucr3fp\libm.a(lib_a-s_copysign.o)
 .debug_line    0x000340fe       0xba c:/program files (x86)/atmel/atmel toolchain/avr32 gcc/native/3.4.2.1002/avr32-gnu-toolchain/bin/../lib/gcc/avr32/4.4.7/ucr3fp\libgcc.a(_floatdidf.o)
 .debug_line    0x000341b8      0x230 c:/program files (x86)/atmel/atmel toolchain/avr32 gcc/native/3.4.2.1002/avr32-gnu-toolchain/bin/../lib/gcc/avr32/4.4.7/ucr3fp\libgcc.a(_divdi3.o)
 .debug_line    0x000343e8      0x248 c:/program files (x86)/atmel/atmel toolchain/avr32 gcc/native/3.4.2.1002/avr32-gnu-toolchain/bin/../lib/gcc/avr32/4.4.7/ucr3fp\libgcc.a(_moddi3.o)
 .debug_line    0x00034630      0x1d1 c:/program files (x86)/atmel/atmel toolchain/avr32 gcc/native/3.4.2.1002/avr32-gnu-toolchain/bin/../lib/gcc/avr32/4.4.7/ucr3fp\libgcc.a(_udivdi3.o)
 .debug_line    0x00034801      0x1ed c:/program files (x86)/atmel/atmel toolchain/avr32 gcc/native/3.4.2.1002/avr32-gnu-toolchain/bin/../lib/gcc/avr32/4.4.7/ucr3fp\libgcc.a(_umoddi3.o)
 .debug_line    0x000349ee      0x1c9 c:/program files (x86)/atmel/atmel toolchain/avr32 gcc/native/3.4.2.1002/avr32-gnu-toolchain/bin/../lib/gcc/avr32/4.4.7/../../../../avr32/lib/ucr3fp\libc.a(lib_a-errno.o)
 .debug_line    0x00034bb7      0x1a3 c:/program files (x86)/atmel/atmel toolchain/avr32 gcc/native/3.4.2.1002/avr32-gnu-toolchain/bin/../lib/gcc/avr32/4.4.7/../../../../avr32/lib/ucr3fp\libc.a(lib_a-impure.o)
 .debug_line    0x00034d5a      0x24c c:/program files (x86)/atmel/atmel toolchain/avr32 gcc/native/3.4.2.1002/avr32-gnu-toolchain/bin/../lib/gcc/avr32/4.4.7/../../../../avr32/lib/ucr3fp\libc.a(lib_a-malloc.o)
 .debug_line    0x00034fa6      0x56c c:/program files (x86)/atmel/atmel toolchain/avr32 gcc/native/3.4.2.1002/avr32-gnu-toolchain/bin/../lib/gcc/avr32/4.4.7/../../../../avr32/lib/ucr3fp\libc.a(lib_a-mallocr.o)
 .debug_line    0x00035512      0x1b9 c:/program files (x86)/atmel/atmel toolchain/avr32 gcc/native/3.4.2.1002/avr32-gnu-toolchain/bin/../lib/gcc/avr32/4.4.7/../../../../avr32/lib/ucr3fp\libc.a(lib_a-memset.o)
 .debug_line    0x000356cb      0x1cf c:/program files (x86)/atmel/atmel toolchain/avr32 gcc/native/3.4.2.1002/avr32-gnu-toolchain/bin/../lib/gcc/avr32/4.4.7/../../../../avr32/lib/ucr3fp\libc.a(lib_a-mlock.o)
 .debug_line    0x0003589a      0x24f c:/program files (x86)/atmel/atmel toolchain/avr32 gcc/native/3.4.2.1002/avr32-gnu-toolchain/bin/../lib/gcc/avr32/4.4.7/../../../../avr32/lib/ucr3fp\libc.a(lib_a-sbrkr.o)
 .debug_line    0x00035ae9      0x2f9 c:/program files (x86)/atmel/atmel toolchain/avr32 gcc/native/3.4.2.1002/avr32-gnu-toolchain/bin/../lib/gcc/avr32/4.4.7/../../../../avr32/lib/ucr3fp\libc.a(lib_a-snprintf.o)
 .debug_line    0x00035de2      0x11a c:/program files (x86)/atmel/atmel toolchain/avr32 gcc/native/3.4.2.1002/avr32-gnu-toolchain/bin/../lib/gcc/avr32/4.4.7/../../../../avr32/lib/ucr3fp\libc.a(lib_a-strcpy.o)
 .debug_line    0x00035efc      0x1bf c:/program files (x86)/atmel/atmel toolchain/avr32 gcc/native/3.4.2.1002/avr32-gnu-toolchain/bin/../lib/gcc/avr32/4.4.7/../../../../avr32/lib/ucr3fp\libc.a(lib_a-strlen.o)
 .debug_line    0x000360bb      0x586 c:/program files (x86)/atmel/atmel toolchain/avr32 gcc/native/3.4.2.1002/avr32-gnu-toolchain/bin/../lib/gcc/avr32/4.4.7/../../../../avr32/lib/ucr3fp\libc.a(lib_a-syscalls.o)
 .debug_line    0x00036641      0xcd8 c:/program files (x86)/atmel/atmel toolchain/avr32 gcc/native/3.4.2.1002/avr32-gnu-toolchain/bin/../lib/gcc/avr32/4.4.7/../../../../avr32/lib/ucr3fp\libc.a(lib_a-vfprintf.o)
 .debug_line    0x00037319      0x298 c:/program files (x86)/atmel/atmel toolchain/avr32 gcc/native/3.4.2.1002/avr32-gnu-toolchain/bin/../lib/gcc/avr32/4.4.7/../../../../avr32/lib/ucr3fp\libc.a(lib_a-wsetup.o)
 .debug_line    0x000375b1      0xc0e c:/program files (x86)/atmel/atmel toolchain/avr32 gcc/native/3.4.2.1002/avr32-gnu-toolchain/bin/../lib/gcc/avr32/4.4.7/../../../../avr32/lib/ucr3fp\libc.a(lib_a-dtoa.o)
 .debug_line    0x000381bf      0x34c c:/program files (x86)/atmel/atmel toolchain/avr32 gcc/native/3.4.2.1002/avr32-gnu-toolchain/bin/../lib/gcc/avr32/4.4.7/../../../../avr32/lib/ucr3fp\libc.a(lib_a-fflush.o)
 .debug_line    0x0003850b      0x5a4 c:/program files (x86)/atmel/atmel toolchain/avr32 gcc/native/3.4.2.1002/avr32-gnu-toolchain/bin/../lib/gcc/avr32/4.4.7/../../../../avr32/lib/ucr3fp\libc.a(lib_a-findfp.o)
 .debug_line    0x00038aaf      0x347 c:/program files (x86)/atmel/atmel toolchain/avr32 gcc/native/3.4.2.1002/avr32-gnu-toolchain/bin/../lib/gcc/avr32/4.4.7/../../../../avr32/lib/ucr3fp\libc.a(lib_a-freer.o)
 .debug_line    0x00038df6      0x480 c:/program files (x86)/atmel/atmel toolchain/avr32 gcc/native/3.4.2.1002/avr32-gnu-toolchain/bin/../lib/gcc/avr32/4.4.7/../../../../avr32/lib/ucr3fp\libc.a(lib_a-fvwrite.o)
 .debug_line    0x00039276      0x2f1 c:/program files (x86)/atmel/atmel toolchain/avr32 gcc/native/3.4.2.1002/avr32-gnu-toolchain/bin/../lib/gcc/avr32/4.4.7/../../../../avr32/lib/ucr3fp\libc.a(lib_a-fwalk.o)
 .debug_line    0x00039567      0x2b6 c:/program files (x86)/atmel/atmel toolchain/avr32 gcc/native/3.4.2.1002/avr32-gnu-toolchain/bin/../lib/gcc/avr32/4.4.7/../../../../avr32/lib/ucr3fp\libc.a(lib_a-locale.o)
 .debug_line    0x0003981d      0x302 c:/program files (x86)/atmel/atmel toolchain/avr32 gcc/native/3.4.2.1002/avr32-gnu-toolchain/bin/../lib/gcc/avr32/4.4.7/../../../../avr32/lib/ucr3fp\libc.a(lib_a-makebuf.o)
 .debug_line    0x00039b1f      0x1ba c:/program files (x86)/atmel/atmel toolchain/avr32 gcc/native/3.4.2.1002/avr32-gnu-toolchain/bin/../lib/gcc/avr32/4.4.7/../../../../avr32/lib/ucr3fp\libc.a(lib_a-memchr.o)
 .debug_line    0x00039cd9      0x1cd c:/program files (x86)/atmel/atmel toolchain/avr32 gcc/native/3.4.2.1002/avr32-gnu-toolchain/bin/../lib/gcc/avr32/4.4.7/../../../../avr32/lib/ucr3fp\libc.a(lib_a-memmove.o)
 .debug_line    0x00039ea6      0xd60 c:/program files (x86)/atmel/atmel toolchain/avr32 gcc/native/3.4.2.1002/avr32-gnu-toolchain/bin/../lib/gcc/avr32/4.4.7/../../../../avr32/lib/ucr3fp\libc.a(lib_a-mprec.o)
 .debug_line    0x0003ac06      0x384 c:/program files (x86)/atmel/atmel toolchain/avr32 gcc/native/3.4.2.1002/avr32-gnu-toolchain/bin/../lib/gcc/avr32/4.4.7/../../../../avr32/lib/ucr3fp\libc.a(lib_a-reallocr.o)
 .debug_line    0x0003af8a      0x2e7 c:/program files (x86)/atmel/atmel toolchain/avr32 gcc/native/3.4.2.1002/avr32-gnu-toolchain/bin/../lib/gcc/avr32/4.4.7/../../../../avr32/lib/ucr3fp\libc.a(lib_a-reent.o)
 .debug_line    0x0003b271      0x1b0 c:/program files (x86)/atmel/atmel toolchain/avr32 gcc/native/3.4.2.1002/avr32-gnu-toolchain/bin/../lib/gcc/avr32/4.4.7/../../../../avr32/lib/ucr3fp\libc.a(lib_a-s_isinfd.o)
 .debug_line    0x0003b421      0x2fa c:/program files (x86)/atmel/atmel toolchain/avr32 gcc/native/3.4.2.1002/avr32-gnu-toolchain/bin/../lib/gcc/avr32/4.4.7/../../../../avr32/lib/ucr3fp\libc.a(lib_a-stdio.o)
 .debug_line    0x0003b71b      0x25c c:/program files (x86)/atmel/atmel toolchain/avr32 gcc/native/3.4.2.1002/avr32-gnu-toolchain/bin/../lib/gcc/avr32/4.4.7/../../../../avr32/lib/ucr3fp\libc.a(lib_a-writer.o)
 .debug_line    0x0003b977      0x1ce c:/program files (x86)/atmel/atmel toolchain/avr32 gcc/native/3.4.2.1002/avr32-gnu-toolchain/bin/../lib/gcc/avr32/4.4.7/../../../../avr32/lib/ucr3fp\libc.a(lib_a-callocr.o)
 .debug_line    0x0003bb45      0x250 c:/program files (x86)/atmel/atmel toolchain/avr32 gcc/native/3.4.2.1002/avr32-gnu-toolchain/bin/../lib/gcc/avr32/4.4.7/../../../../avr32/lib/ucr3fp\libc.a(lib_a-closer.o)
 .debug_line    0x0003bd95      0x2b6 c:/program files (x86)/atmel/atmel toolchain/avr32 gcc/native/3.4.2.1002/avr32-gnu-toolchain/bin/../lib/gcc/avr32/4.4.7/../../../../avr32/lib/ucr3fp\libc.a(lib_a-fclose.o)
 .debug_line    0x0003c04b      0x265 c:/program files (x86)/atmel/atmel toolchain/avr32 gcc/native/3.4.2.1002/avr32-gnu-toolchain/bin/../lib/gcc/avr32/4.4.7/../../../../avr32/lib/ucr3fp\libc.a(lib_a-fstatr.o)
 .debug_line    0x0003c2b0      0x25c c:/program files (x86)/atmel/atmel toolchain/avr32 gcc/native/3.4.2.1002/avr32-gnu-toolchain/bin/../lib/gcc/avr32/4.4.7/../../../../avr32/lib/ucr3fp\libc.a(lib_a-lseekr.o)
 .debug_line    0x0003c50c      0x25b c:/program files (x86)/atmel/atmel toolchain/avr32 gcc/native/3.4.2.1002/avr32-gnu-toolchain/bin/../lib/gcc/avr32/4.4.7/../../../../avr32/lib/ucr3fp\libc.a(lib_a-readr.o)

.debug_frame    0x00000000     0x9ec0
 *(.debug_frame)
 .debug_frame   0x00000000       0x78 Library/communication/console.o
 .debug_frame   0x00000078      0x2c8 Library/communication/data_logging.o
 .debug_frame   0x00000340       0x68 Library/communication/hud.o
 .debug_frame   0x000003a8       0xbc Library/communication/mavlink_communication.o
 .debug_frame   0x00000464       0xf4 Library/communication/mavlink_message_handler.o
 .debug_frame   0x00000558      0x3e4 Library/communication/mavlink_waypoint_handler.o
 .debug_frame   0x0000093c      0x1d0 Library/communication/remote.o
 .debug_frame   0x00000b0c       0xbc Library/communication/state.o
 .debug_frame   0x00000bc8       0x60 Library/communication/state_machine.o
 .debug_frame   0x00000c28       0xd4 Library/control/adaptive_parameter.o
 .debug_frame   0x00000cfc       0x64 Library/control/attitude_controller_p2.o
 .debug_frame   0x00000d60       0xc8 Library/control/attitude_error_estimator.o
 .debug_frame   0x00000e28      0x14c Library/control/joystick_parsing.o
 .debug_frame   0x00000f74       0xb0 Library/control/pid_control.o
 .debug_frame   0x00001024       0x50 Library/control/servos_mix_quadcopter_cross.o
 .debug_frame   0x00001074       0x54 Library/control/servos_mix_quadcopter_diag.o
 .debug_frame   0x000010c8      0x104 Library/control/stabilisation_copter.o
 .debug_frame   0x000011cc       0xd0 Library/hal/analog_monitor.o
 .debug_frame   0x0000129c       0xe8 Library/hal/fat_fs/diskio.o
 .debug_frame   0x00001384      0x710 Library/hal/fat_fs/ff.o
 .debug_frame   0x00001a94       0x50 Library/hal/fat_fs/option/ccsbcs.o
 .debug_frame   0x00001ae4       0x50 Library/hal/fat_fs/option/syscall.o
 .debug_frame   0x00001b34      0x14c Library/hal/gps_ublox.o
 .debug_frame   0x00001c80       0x58 Library/hal/hmc5883l.o
 .debug_frame   0x00001cd8       0x98 Library/hal/i2c_driver_int.o
 .debug_frame   0x00001d70       0x98 Library/hal/lsm330dlc.o
 .debug_frame   0x00001e08      0x11c Library/hal/piezo_speaker.o
 .debug_frame   0x00001f24       0x74 Library/hal/pwm_servos.o
 .debug_frame   0x00001f98      0x308 Library/hal/sd_spi.o
 .debug_frame   0x000022a0       0xb0 Library/hal/servos.o
 .debug_frame   0x00002350       0xcc Library/hal/sonar_i2cxl.o
 .debug_frame   0x0000241c      0x12c Library/hal/spektrum_satellite.o
 .debug_frame   0x00002548      0x118 Library/hal/time_keeper.o
 .debug_frame   0x00002660       0xd0 Library/hal/usb_int.o
 .debug_frame   0x00002730       0x78 Library/hal/xbee.o
 .debug_frame   0x000027a8       0x90 Library/sensing/ahrs.o
 .debug_frame   0x00002838      0x178 Library/sensing/position_estimation.o
 .debug_frame   0x000029b0       0x64 Library/sensing/qfilter.o
 .debug_frame   0x00002a14       0xa8 Library/util/linear_algebra.o
 .debug_frame   0x00002abc      0x228 Library/util/matrixlib_float.o
 .debug_frame   0x00002ce4       0xf8 Library/util/quick_trig.o
 .debug_frame   0x00002ddc       0x94 Private_Library/neighbor_selection.o
 .debug_frame   0x00002e70       0xc8 Private_Library/orca.o
 .debug_frame   0x00002f38       0x8c src/central_data.o
 .debug_frame   0x00002fc4       0x94 src/mavlink_telemetry.o
 .debug_frame   0x00003058      0x144 src/tasks.o
 .debug_frame   0x0000319c       0xa4 Library/communication/mavlink_stream.o
 .debug_frame   0x00003240      0x1e8 Library/communication/onboard_parameters.o
 .debug_frame   0x00003428      0x204 Library/control/navigation.o
 .debug_frame   0x0000362c       0xe8 Library/control/stabilisation.o
 .debug_frame   0x00003714      0x19c Library/hal/adc_int.o
 .debug_frame   0x000038b0      0x164 Library/hal/ads1274.o
 .debug_frame   0x00003a14       0xe0 Library/hal/bmp085.o
 .debug_frame   0x00003af4      0x158 Library/hal/dac_dma.o
 .debug_frame   0x00003c4c      0x188 Library/hal/led.o
 .debug_frame   0x00003dd4      0x348 Library/hal/spi_buffered.o
 .debug_frame   0x0000411c      0x254 Library/hal/uart_int.o
 .debug_frame   0x00004370      0x1c8 Library/runtime/scheduler.o
 .debug_frame   0x00004538       0xfc Library/sensing/imu.o
 .debug_frame   0x00004634      0x290 Library/sensing/simulation.o
 .debug_frame   0x000048c4      0x140 Library/util/buffer.o
 .debug_frame   0x00004a04       0xf8 Library/util/coord_conventions.o
 .debug_frame   0x00004afc       0x94 Library/util/generator.o
 .debug_frame   0x00004b90      0x2c0 Library/util/print_util.o
 .debug_frame   0x00004e50      0x1a0 src/asf/avr32/drivers/adcifa/adcifa.o
 .debug_frame   0x00004ff0      0x22c src/asf/avr32/drivers/ast/ast.o
 .debug_frame   0x0000521c       0xf4 src/asf/avr32/drivers/dacifb/dacifb.o
 .debug_frame   0x00005310      0x1a4 src/asf/avr32/drivers/eic/eic.o
 .debug_frame   0x000054b4      0x8ec src/asf/avr32/drivers/flashc/flashc.o
 .debug_frame   0x00005da0      0x3cc src/asf/avr32/drivers/gpio/gpio.o
 .debug_frame   0x0000616c       0x98 src/asf/avr32/drivers/intc/intc.o
 .debug_frame   0x00006204      0x2ac src/asf/avr32/drivers/pdca/pdca.o
 .debug_frame   0x000064b0      0x224 src/asf/avr32/drivers/pevc/pevc.o
 .debug_frame   0x000066d4       0xd4 src/asf/avr32/drivers/pm/pm_uc3c.o
 .debug_frame   0x000067a8       0xd8 src/asf/avr32/drivers/pm/power_clocks_lib.o
 .debug_frame   0x00006880      0x328 src/asf/avr32/drivers/pwm/pwm4.o
 .debug_frame   0x00006ba8      0x4a8 src/asf/avr32/drivers/scif/scif_uc3c.o
 .debug_frame   0x00007050      0x21c src/asf/avr32/drivers/spi/spi.o
 .debug_frame   0x0000726c      0x21c src/asf/avr32/drivers/tc/tc.o
 .debug_frame   0x00007488      0x1e4 src/asf/avr32/drivers/twim/twim.o
 .debug_frame   0x0000766c      0x388 src/asf/avr32/drivers/usart/usart.o
 .debug_frame   0x000079f4      0x360 src/asf/avr32/drivers/usbc/usbc_device.o
 .debug_frame   0x00007d54       0x50 src/asf/avr32/services/delay/delay.o
 .debug_frame   0x00007da4       0x30 src/asf/common/boards/user_board/init.o
 .debug_frame   0x00007dd4       0xf0 src/asf/common/services/clock/uc3c/osc.o
 .debug_frame   0x00007ec4       0x64 src/asf/common/services/clock/uc3c/pll.o
 .debug_frame   0x00007f28       0xe0 src/asf/common/services/clock/uc3c/sysclk.o
 .debug_frame   0x00008008       0x74 src/asf/common/services/spi/uc3_spi/spi_master.o
 .debug_frame   0x0000807c      0x36c src/asf/common/services/usb/class/cdc/device/udi_cdc.o
 .debug_frame   0x000083e8      0x130 src/asf/common/services/usb/udc/udc.o
 .debug_frame   0x00008518       0x40 src/asf/common/utils/stdio/read.o
 .debug_frame   0x00008558       0xd0 src/asf/common/utils/stdio/stdio_usb/stdio_usb.o
 .debug_frame   0x00008628       0x40 src/asf/common/utils/stdio/write.o
 .debug_frame   0x00008668       0x38 src/boardsupport.o
 .debug_frame   0x000086a0       0x58 src/main.o
 .debug_frame   0x000086f8       0x38 c:/program files (x86)/atmel/atmel toolchain/avr32 gcc/native/3.4.2.1002/avr32-gnu-toolchain/bin/../lib/gcc/avr32/4.4.7/../../../../avr32/lib/ucr3fp\libm.a(lib_a-s_cos.o)
 .debug_frame   0x00008730       0x40 c:/program files (x86)/atmel/atmel toolchain/avr32 gcc/native/3.4.2.1002/avr32-gnu-toolchain/bin/../lib/gcc/avr32/4.4.7/../../../../avr32/lib/ucr3fp\libm.a(lib_a-s_floor.o)
 .debug_frame   0x00008770       0x38 c:/program files (x86)/atmel/atmel toolchain/avr32 gcc/native/3.4.2.1002/avr32-gnu-toolchain/bin/../lib/gcc/avr32/4.4.7/../../../../avr32/lib/ucr3fp\libm.a(lib_a-s_sin.o)
 .debug_frame   0x000087a8       0x44 c:/program files (x86)/atmel/atmel toolchain/avr32 gcc/native/3.4.2.1002/avr32-gnu-toolchain/bin/../lib/gcc/avr32/4.4.7/../../../../avr32/lib/ucr3fp\libm.a(lib_a-w_asin.o)
 .debug_frame   0x000087ec       0x28 c:/program files (x86)/atmel/atmel toolchain/avr32 gcc/native/3.4.2.1002/avr32-gnu-toolchain/bin/../lib/gcc/avr32/4.4.7/../../../../avr32/lib/ucr3fp\libm.a(lib_a-w_atan2.o)
 .debug_frame   0x00008814       0x44 c:/program files (x86)/atmel/atmel toolchain/avr32 gcc/native/3.4.2.1002/avr32-gnu-toolchain/bin/../lib/gcc/avr32/4.4.7/../../../../avr32/lib/ucr3fp\libm.a(lib_a-w_fmod.o)
 .debug_frame   0x00008858       0x44 c:/program files (x86)/atmel/atmel toolchain/avr32 gcc/native/3.4.2.1002/avr32-gnu-toolchain/bin/../lib/gcc/avr32/4.4.7/../../../../avr32/lib/ucr3fp\libm.a(lib_a-w_pow.o)
 .debug_frame   0x0000889c       0x44 c:/program files (x86)/atmel/atmel toolchain/avr32 gcc/native/3.4.2.1002/avr32-gnu-toolchain/bin/../lib/gcc/avr32/4.4.7/../../../../avr32/lib/ucr3fp\libm.a(lib_a-w_sqrt.o)
 .debug_frame   0x000088e0       0x38 c:/program files (x86)/atmel/atmel toolchain/avr32 gcc/native/3.4.2.1002/avr32-gnu-toolchain/bin/../lib/gcc/avr32/4.4.7/../../../../avr32/lib/ucr3fp\libm.a(lib_a-wf_sqrt.o)
 .debug_frame   0x00008918       0x44 c:/program files (x86)/atmel/atmel toolchain/avr32 gcc/native/3.4.2.1002/avr32-gnu-toolchain/bin/../lib/gcc/avr32/4.4.7/../../../../avr32/lib/ucr3fp\libm.a(lib_a-e_asin.o)
 .debug_frame   0x0000895c       0x44 c:/program files (x86)/atmel/atmel toolchain/avr32 gcc/native/3.4.2.1002/avr32-gnu-toolchain/bin/../lib/gcc/avr32/4.4.7/../../../../avr32/lib/ucr3fp\libm.a(lib_a-e_atan2.o)
 .debug_frame   0x000089a0       0x40 c:/program files (x86)/atmel/atmel toolchain/avr32 gcc/native/3.4.2.1002/avr32-gnu-toolchain/bin/../lib/gcc/avr32/4.4.7/../../../../avr32/lib/ucr3fp\libm.a(lib_a-e_fmod.o)
 .debug_frame   0x000089e0       0x44 c:/program files (x86)/atmel/atmel toolchain/avr32 gcc/native/3.4.2.1002/avr32-gnu-toolchain/bin/../lib/gcc/avr32/4.4.7/../../../../avr32/lib/ucr3fp\libm.a(lib_a-e_pow.o)
 .debug_frame   0x00008a24       0x4c c:/program files (x86)/atmel/atmel toolchain/avr32 gcc/native/3.4.2.1002/avr32-gnu-toolchain/bin/../lib/gcc/avr32/4.4.7/../../../../avr32/lib/ucr3fp\libm.a(lib_a-e_rem_pio2.o)
 .debug_frame   0x00008a70       0x40 c:/program files (x86)/atmel/atmel toolchain/avr32 gcc/native/3.4.2.1002/avr32-gnu-toolchain/bin/../lib/gcc/avr32/4.4.7/../../../../avr32/lib/ucr3fp\libm.a(lib_a-e_sqrt.o)
 .debug_frame   0x00008ab0       0x34 c:/program files (x86)/atmel/atmel toolchain/avr32 gcc/native/3.4.2.1002/avr32-gnu-toolchain/bin/../lib/gcc/avr32/4.4.7/../../../../avr32/lib/ucr3fp\libm.a(lib_a-ef_sqrt.o)
 .debug_frame   0x00008ae4       0x44 c:/program files (x86)/atmel/atmel toolchain/avr32 gcc/native/3.4.2.1002/avr32-gnu-toolchain/bin/../lib/gcc/avr32/4.4.7/../../../../avr32/lib/ucr3fp\libm.a(lib_a-k_cos.o)
 .debug_frame   0x00008b28       0x44 c:/program files (x86)/atmel/atmel toolchain/avr32 gcc/native/3.4.2.1002/avr32-gnu-toolchain/bin/../lib/gcc/avr32/4.4.7/../../../../avr32/lib/ucr3fp\libm.a(lib_a-k_rem_pio2.o)
 .debug_frame   0x00008b6c       0x44 c:/program files (x86)/atmel/atmel toolchain/avr32 gcc/native/3.4.2.1002/avr32-gnu-toolchain/bin/../lib/gcc/avr32/4.4.7/../../../../avr32/lib/ucr3fp\libm.a(lib_a-k_sin.o)
 .debug_frame   0x00008bb0       0x44 c:/program files (x86)/atmel/atmel toolchain/avr32 gcc/native/3.4.2.1002/avr32-gnu-toolchain/bin/../lib/gcc/avr32/4.4.7/../../../../avr32/lib/ucr3fp\libm.a(lib_a-s_atan.o)
 .debug_frame   0x00008bf4       0x20 c:/program files (x86)/atmel/atmel toolchain/avr32 gcc/native/3.4.2.1002/avr32-gnu-toolchain/bin/../lib/gcc/avr32/4.4.7/../../../../avr32/lib/ucr3fp\libm.a(lib_a-s_fabs.o)
 .debug_frame   0x00008c14       0x20 c:/program files (x86)/atmel/atmel toolchain/avr32 gcc/native/3.4.2.1002/avr32-gnu-toolchain/bin/../lib/gcc/avr32/4.4.7/../../../../avr32/lib/ucr3fp\libm.a(lib_a-s_finite.o)
 .debug_frame   0x00008c34       0x20 c:/program files (x86)/atmel/atmel toolchain/avr32 gcc/native/3.4.2.1002/avr32-gnu-toolchain/bin/../lib/gcc/avr32/4.4.7/../../../../avr32/lib/ucr3fp\libm.a(lib_a-s_isnand.o)
 .debug_frame   0x00008c54       0x20 c:/program files (x86)/atmel/atmel toolchain/avr32 gcc/native/3.4.2.1002/avr32-gnu-toolchain/bin/../lib/gcc/avr32/4.4.7/../../../../avr32/lib/ucr3fp\libm.a(lib_a-s_matherr.o)
 .debug_frame   0x00008c74       0x20 c:/program files (x86)/atmel/atmel toolchain/avr32 gcc/native/3.4.2.1002/avr32-gnu-toolchain/bin/../lib/gcc/avr32/4.4.7/../../../../avr32/lib/ucr3fp\libm.a(lib_a-s_nan.o)
 .debug_frame   0x00008c94       0x38 c:/program files (x86)/atmel/atmel toolchain/avr32 gcc/native/3.4.2.1002/avr32-gnu-toolchain/bin/../lib/gcc/avr32/4.4.7/../../../../avr32/lib/ucr3fp\libm.a(lib_a-s_rint.o)
 .debug_frame   0x00008ccc       0x34 c:/program files (x86)/atmel/atmel toolchain/avr32 gcc/native/3.4.2.1002/avr32-gnu-toolchain/bin/../lib/gcc/avr32/4.4.7/../../../../avr32/lib/ucr3fp\libm.a(lib_a-s_scalbn.o)
 .debug_frame   0x00008d00       0x20 c:/program files (x86)/atmel/atmel toolchain/avr32 gcc/native/3.4.2.1002/avr32-gnu-toolchain/bin/../lib/gcc/avr32/4.4.7/../../../../avr32/lib/ucr3fp\libm.a(lib_a-sf_isnan.o)
 .debug_frame   0x00008d20       0x34 c:/program files (x86)/atmel/atmel toolchain/avr32 gcc/native/3.4.2.1002/avr32-gnu-toolchain/bin/../lib/gcc/avr32/4.4.7/../../../../avr32/lib/ucr3fp\libm.a(lib_a-s_copysign.o)
 .debug_frame   0x00008d54       0x34 c:/program files (x86)/atmel/atmel toolchain/avr32 gcc/native/3.4.2.1002/avr32-gnu-toolchain/bin/../lib/gcc/avr32/4.4.7/ucr3fp\libgcc.a(_floatdidf.o)
 .debug_frame   0x00008d88       0x44 c:/program files (x86)/atmel/atmel toolchain/avr32 gcc/native/3.4.2.1002/avr32-gnu-toolchain/bin/../lib/gcc/avr32/4.4.7/ucr3fp\libgcc.a(_divdi3.o)
 .debug_frame   0x00008dcc       0x44 c:/program files (x86)/atmel/atmel toolchain/avr32 gcc/native/3.4.2.1002/avr32-gnu-toolchain/bin/../lib/gcc/avr32/4.4.7/ucr3fp\libgcc.a(_moddi3.o)
 .debug_frame   0x00008e10       0x44 c:/program files (x86)/atmel/atmel toolchain/avr32 gcc/native/3.4.2.1002/avr32-gnu-toolchain/bin/../lib/gcc/avr32/4.4.7/ucr3fp\libgcc.a(_udivdi3.o)
 .debug_frame   0x00008e54       0x44 c:/program files (x86)/atmel/atmel toolchain/avr32 gcc/native/3.4.2.1002/avr32-gnu-toolchain/bin/../lib/gcc/avr32/4.4.7/ucr3fp\libgcc.a(_umoddi3.o)
 .debug_frame   0x00008e98       0x20 c:/program files (x86)/atmel/atmel toolchain/avr32 gcc/native/3.4.2.1002/avr32-gnu-toolchain/bin/../lib/gcc/avr32/4.4.7/../../../../avr32/lib/ucr3fp\libc.a(lib_a-errno.o)
 .debug_frame   0x00008eb8       0x40 c:/program files (x86)/atmel/atmel toolchain/avr32 gcc/native/3.4.2.1002/avr32-gnu-toolchain/bin/../lib/gcc/avr32/4.4.7/../../../../avr32/lib/ucr3fp\libc.a(lib_a-malloc.o)
 .debug_frame   0x00008ef8       0x40 c:/program files (x86)/atmel/atmel toolchain/avr32 gcc/native/3.4.2.1002/avr32-gnu-toolchain/bin/../lib/gcc/avr32/4.4.7/../../../../avr32/lib/ucr3fp\libc.a(lib_a-mallocr.o)
 .debug_frame   0x00008f38       0x20 c:/program files (x86)/atmel/atmel toolchain/avr32 gcc/native/3.4.2.1002/avr32-gnu-toolchain/bin/../lib/gcc/avr32/4.4.7/../../../../avr32/lib/ucr3fp\libc.a(lib_a-memset.o)
 .debug_frame   0x00008f58       0x30 c:/program files (x86)/atmel/atmel toolchain/avr32 gcc/native/3.4.2.1002/avr32-gnu-toolchain/bin/../lib/gcc/avr32/4.4.7/../../../../avr32/lib/ucr3fp\libc.a(lib_a-mlock.o)
 .debug_frame   0x00008f88       0x34 c:/program files (x86)/atmel/atmel toolchain/avr32 gcc/native/3.4.2.1002/avr32-gnu-toolchain/bin/../lib/gcc/avr32/4.4.7/../../../../avr32/lib/ucr3fp\libc.a(lib_a-sbrkr.o)
 .debug_frame   0x00008fbc       0x60 c:/program files (x86)/atmel/atmel toolchain/avr32 gcc/native/3.4.2.1002/avr32-gnu-toolchain/bin/../lib/gcc/avr32/4.4.7/../../../../avr32/lib/ucr3fp\libc.a(lib_a-snprintf.o)
 .debug_frame   0x0000901c       0x20 c:/program files (x86)/atmel/atmel toolchain/avr32 gcc/native/3.4.2.1002/avr32-gnu-toolchain/bin/../lib/gcc/avr32/4.4.7/../../../../avr32/lib/ucr3fp\libc.a(lib_a-strcpy.o)
 .debug_frame   0x0000903c       0x20 c:/program files (x86)/atmel/atmel toolchain/avr32 gcc/native/3.4.2.1002/avr32-gnu-toolchain/bin/../lib/gcc/avr32/4.4.7/../../../../avr32/lib/ucr3fp\libc.a(lib_a-strlen.o)
 .debug_frame   0x0000905c      0x220 c:/program files (x86)/atmel/atmel toolchain/avr32 gcc/native/3.4.2.1002/avr32-gnu-toolchain/bin/../lib/gcc/avr32/4.4.7/../../../../avr32/lib/ucr3fp\libc.a(lib_a-syscalls.o)
 .debug_frame   0x0000927c      0x258 c:/program files (x86)/atmel/atmel toolchain/avr32 gcc/native/3.4.2.1002/avr32-gnu-toolchain/bin/../lib/gcc/avr32/4.4.7/../../../../avr32/lib/ucr3fp\libc.a(lib_a-vfprintf.o)
 .debug_frame   0x000094d4       0x34 c:/program files (x86)/atmel/atmel toolchain/avr32 gcc/native/3.4.2.1002/avr32-gnu-toolchain/bin/../lib/gcc/avr32/4.4.7/../../../../avr32/lib/ucr3fp\libc.a(lib_a-wsetup.o)
 .debug_frame   0x00009508       0x78 c:/program files (x86)/atmel/atmel toolchain/avr32 gcc/native/3.4.2.1002/avr32-gnu-toolchain/bin/../lib/gcc/avr32/4.4.7/../../../../avr32/lib/ucr3fp\libc.a(lib_a-dtoa.o)
 .debug_frame   0x00009580       0x4c c:/program files (x86)/atmel/atmel toolchain/avr32 gcc/native/3.4.2.1002/avr32-gnu-toolchain/bin/../lib/gcc/avr32/4.4.7/../../../../avr32/lib/ucr3fp\libc.a(lib_a-fflush.o)
 .debug_frame   0x000095cc      0x13c c:/program files (x86)/atmel/atmel toolchain/avr32 gcc/native/3.4.2.1002/avr32-gnu-toolchain/bin/../lib/gcc/avr32/4.4.7/../../../../avr32/lib/ucr3fp\libc.a(lib_a-findfp.o)
 .debug_frame   0x00009708       0x58 c:/program files (x86)/atmel/atmel toolchain/avr32 gcc/native/3.4.2.1002/avr32-gnu-toolchain/bin/../lib/gcc/avr32/4.4.7/../../../../avr32/lib/ucr3fp\libc.a(lib_a-freer.o)
 .debug_frame   0x00009760       0x44 c:/program files (x86)/atmel/atmel toolchain/avr32 gcc/native/3.4.2.1002/avr32-gnu-toolchain/bin/../lib/gcc/avr32/4.4.7/../../../../avr32/lib/ucr3fp\libc.a(lib_a-fvwrite.o)
 .debug_frame   0x000097a4       0x70 c:/program files (x86)/atmel/atmel toolchain/avr32 gcc/native/3.4.2.1002/avr32-gnu-toolchain/bin/../lib/gcc/avr32/4.4.7/../../../../avr32/lib/ucr3fp\libc.a(lib_a-fwalk.o)
 .debug_frame   0x00009814       0x7c c:/program files (x86)/atmel/atmel toolchain/avr32 gcc/native/3.4.2.1002/avr32-gnu-toolchain/bin/../lib/gcc/avr32/4.4.7/../../../../avr32/lib/ucr3fp\libc.a(lib_a-locale.o)
 .debug_frame   0x00009890       0x38 c:/program files (x86)/atmel/atmel toolchain/avr32 gcc/native/3.4.2.1002/avr32-gnu-toolchain/bin/../lib/gcc/avr32/4.4.7/../../../../avr32/lib/ucr3fp\libc.a(lib_a-makebuf.o)
 .debug_frame   0x000098c8       0x20 c:/program files (x86)/atmel/atmel toolchain/avr32 gcc/native/3.4.2.1002/avr32-gnu-toolchain/bin/../lib/gcc/avr32/4.4.7/../../../../avr32/lib/ucr3fp\libc.a(lib_a-memchr.o)
 .debug_frame   0x000098e8       0x28 c:/program files (x86)/atmel/atmel toolchain/avr32 gcc/native/3.4.2.1002/avr32-gnu-toolchain/bin/../lib/gcc/avr32/4.4.7/../../../../avr32/lib/ucr3fp\libc.a(lib_a-memmove.o)
 .debug_frame   0x00009910      0x2b4 c:/program files (x86)/atmel/atmel toolchain/avr32 gcc/native/3.4.2.1002/avr32-gnu-toolchain/bin/../lib/gcc/avr32/4.4.7/../../../../avr32/lib/ucr3fp\libc.a(lib_a-mprec.o)
 .debug_frame   0x00009bc4       0x44 c:/program files (x86)/atmel/atmel toolchain/avr32 gcc/native/3.4.2.1002/avr32-gnu-toolchain/bin/../lib/gcc/avr32/4.4.7/../../../../avr32/lib/ucr3fp\libc.a(lib_a-reallocr.o)
 .debug_frame   0x00009c08       0x80 c:/program files (x86)/atmel/atmel toolchain/avr32 gcc/native/3.4.2.1002/avr32-gnu-toolchain/bin/../lib/gcc/avr32/4.4.7/../../../../avr32/lib/ucr3fp\libc.a(lib_a-reent.o)
 .debug_frame   0x00009c88       0x20 c:/program files (x86)/atmel/atmel toolchain/avr32 gcc/native/3.4.2.1002/avr32-gnu-toolchain/bin/../lib/gcc/avr32/4.4.7/../../../../avr32/lib/ucr3fp\libc.a(lib_a-s_isinfd.o)
 .debug_frame   0x00009ca8       0x94 c:/program files (x86)/atmel/atmel toolchain/avr32 gcc/native/3.4.2.1002/avr32-gnu-toolchain/bin/../lib/gcc/avr32/4.4.7/../../../../avr32/lib/ucr3fp\libc.a(lib_a-stdio.o)
 .debug_frame   0x00009d3c       0x34 c:/program files (x86)/atmel/atmel toolchain/avr32 gcc/native/3.4.2.1002/avr32-gnu-toolchain/bin/../lib/gcc/avr32/4.4.7/../../../../avr32/lib/ucr3fp\libc.a(lib_a-writer.o)
 .debug_frame   0x00009d70       0x34 c:/program files (x86)/atmel/atmel toolchain/avr32 gcc/native/3.4.2.1002/avr32-gnu-toolchain/bin/../lib/gcc/avr32/4.4.7/../../../../avr32/lib/ucr3fp\libc.a(lib_a-callocr.o)
 .debug_frame   0x00009da4       0x34 c:/program files (x86)/atmel/atmel toolchain/avr32 gcc/native/3.4.2.1002/avr32-gnu-toolchain/bin/../lib/gcc/avr32/4.4.7/../../../../avr32/lib/ucr3fp\libc.a(lib_a-closer.o)
 .debug_frame   0x00009dd8       0x4c c:/program files (x86)/atmel/atmel toolchain/avr32 gcc/native/3.4.2.1002/avr32-gnu-toolchain/bin/../lib/gcc/avr32/4.4.7/../../../../avr32/lib/ucr3fp\libc.a(lib_a-fclose.o)
 .debug_frame   0x00009e24       0x34 c:/program files (x86)/atmel/atmel toolchain/avr32 gcc/native/3.4.2.1002/avr32-gnu-toolchain/bin/../lib/gcc/avr32/4.4.7/../../../../avr32/lib/ucr3fp\libc.a(lib_a-fstatr.o)
 .debug_frame   0x00009e58       0x34 c:/program files (x86)/atmel/atmel toolchain/avr32 gcc/native/3.4.2.1002/avr32-gnu-toolchain/bin/../lib/gcc/avr32/4.4.7/../../../../avr32/lib/ucr3fp\libc.a(lib_a-lseekr.o)
 .debug_frame   0x00009e8c       0x34 c:/program files (x86)/atmel/atmel toolchain/avr32 gcc/native/3.4.2.1002/avr32-gnu-toolchain/bin/../lib/gcc/avr32/4.4.7/../../../../avr32/lib/ucr3fp\libc.a(lib_a-readr.o)

.debug_str      0x00000000    0x18c6d
 *(.debug_str)
 .debug_str     0x00000000      0x8ad Library/communication/console.o
                                0x9e6 (size before relaxing)
 .debug_str     0x000008ad      0x846 Library/communication/data_logging.o
                                0x9ad (size before relaxing)
 .debug_str     0x000010f3      0xdda Library/communication/hud.o
                               0x10d2 (size before relaxing)
 .debug_str     0x00001ecd      0xa16 Library/communication/mavlink_communication.o
                               0x10cb (size before relaxing)
 .debug_str     0x000028e3      0x654 Library/communication/mavlink_message_handler.o
                                0xf6b (size before relaxing)
 .debug_str     0x00002f37     0x1155 Library/communication/mavlink_waypoint_handler.o
                               0x2e26 (size before relaxing)
 .debug_str     0x0000408c      0x4e1 Library/communication/remote.o
                               0x13f4 (size before relaxing)
 .debug_str     0x0000456d      0x304 Library/communication/state.o
                               0x1061 (size before relaxing)
 .debug_str     0x00004871      0x47d Library/communication/state_machine.o
                               0x20d2 (size before relaxing)
 .debug_str     0x00004cee      0x128 Library/control/adaptive_parameter.o
                                0x248 (size before relaxing)
 .debug_str     0x00004e16      0x197 Library/control/attitude_controller_p2.o
                                0x5e6 (size before relaxing)
 .debug_str     0x00004fad      0x138 Library/control/attitude_error_estimator.o
                                0x5c5 (size before relaxing)
 .debug_str     0x000050e5      0x4b5 Library/control/joystick_parsing.o
                               0x1797 (size before relaxing)
 .debug_str     0x0000559a      0x1c7 Library/control/pid_control.o
                                0x2f4 (size before relaxing)
 .debug_str     0x00005761      0x165 Library/control/servos_mix_quadcopter_cross.o
                                0x5fa (size before relaxing)
 .debug_str     0x000058c6      0x146 Library/control/servos_mix_quadcopter_diag.o
                                0x621 (size before relaxing)
 .debug_str     0x00005a0c      0x314 Library/control/stabilisation_copter.o
                               0x1f69 (size before relaxing)
 .debug_str     0x00005d20      0x114 Library/hal/analog_monitor.o
                                0x719 (size before relaxing)
 .debug_str     0x00005e34       0xee Library/hal/fat_fs/diskio.o
                                0x21d (size before relaxing)
 .debug_str     0x00005f22      0x322 Library/hal/fat_fs/ff.o
                                0x63c (size before relaxing)
 .debug_str     0x00006244       0x51 Library/hal/fat_fs/option/ccsbcs.o
                                 0xef (size before relaxing)
 .debug_str     0x00006295       0x4b Library/hal/fat_fs/option/syscall.o
                                0x114 (size before relaxing)
 .debug_str     0x000062e0      0xc02 Library/hal/gps_ublox.o
                               0x1c26 (size before relaxing)
 .debug_str     0x00006ee2      0x452 Library/hal/hmc5883l.o
                                0x5af (size before relaxing)
 .debug_str     0x00007334      0x24d Library/hal/i2c_driver_int.o
                                0x63f (size before relaxing)
 .debug_str     0x00007581      0x28c Library/hal/lsm330dlc.o
                                0x6a8 (size before relaxing)
 .debug_str     0x0000780d      0x153 Library/hal/piezo_speaker.o
                                0x252 (size before relaxing)
 .debug_str     0x00007960      0x94e Library/hal/pwm_servos.o
                                0xe6c (size before relaxing)
 .debug_str     0x000082ae      0x7cf Library/hal/sd_spi.o
                                0xa2d (size before relaxing)
 .debug_str     0x00008a7d       0xf6 Library/hal/servos.o
                                0x6e6 (size before relaxing)
 .debug_str     0x00008b73      0x155 Library/hal/sonar_i2cxl.o
                                0x933 (size before relaxing)
 .debug_str     0x00008cc8      0x1ed Library/hal/spektrum_satellite.o
                                0xabf (size before relaxing)
 .debug_str     0x00008eb5      0x2a9 Library/hal/time_keeper.o
                                0x405 (size before relaxing)
 .debug_str     0x0000915e       0xaa Library/hal/usb_int.o
                                0x22a (size before relaxing)
 .debug_str     0x00009208       0x85 Library/hal/xbee.o
                                0x8ab (size before relaxing)
 .debug_str     0x0000928d       0xb2 Library/sensing/ahrs.o
                                0x665 (size before relaxing)
 .debug_str     0x0000933f      0x297 Library/sensing/position_estimation.o
                               0x1a57 (size before relaxing)
 .debug_str     0x000095d6       0xcb Library/sensing/qfilter.o
                                0x6ef (size before relaxing)
 .debug_str     0x000096a1      0x126 Library/util/linear_algebra.o
                                0x212 (size before relaxing)
 .debug_str     0x000097c7       0xc5 Library/util/matrixlib_float.o
                                0x1ba (size before relaxing)
 .debug_str     0x0000988c      0x12a Library/util/quick_trig.o
                                0x246 (size before relaxing)
 .debug_str     0x000099b6      0x350 Private_Library/neighbor_selection.o
                               0x16ca (size before relaxing)
 .debug_str     0x00009d06      0x478 Private_Library/orca.o
                               0x2110 (size before relaxing)
 .debug_str     0x0000a17e      0x5ab src/central_data.o
                               0x3166 (size before relaxing)
 .debug_str     0x0000a729       0xab src/mavlink_telemetry.o
                               0x2b85 (size before relaxing)
 .debug_str     0x0000a7d4      0x1c4 src/tasks.o
                               0x2cb8 (size before relaxing)
 .debug_str     0x0000a998      0x13f Library/communication/mavlink_stream.o
                                0x5f2 (size before relaxing)
 .debug_str     0x0000aad7      0x471 Library/communication/onboard_parameters.o
                               0x186b (size before relaxing)
 .debug_str     0x0000af48      0x203 Library/control/navigation.o
                               0x2388 (size before relaxing)
 .debug_str     0x0000b14b      0x19a Library/control/stabilisation.o
                                0x8b1 (size before relaxing)
 .debug_str     0x0000b2e5      0x91e Library/hal/adc_int.o
                                0xb93 (size before relaxing)
 .debug_str     0x0000bc03      0x9f3 Library/hal/ads1274.o
                                0xf1d (size before relaxing)
 .debug_str     0x0000c5f6      0x116 Library/hal/bmp085.o
                                0xa47 (size before relaxing)
 .debug_str     0x0000c70c      0x729 Library/hal/dac_dma.o
                                0x9ff (size before relaxing)
 .debug_str     0x0000ce35      0x339 Library/hal/led.o
                                0x494 (size before relaxing)
 .debug_str     0x0000d16e      0x493 Library/hal/spi_buffered.o
                                0xaf2 (size before relaxing)
 .debug_str     0x0000d601      0x167 Library/hal/uart_int.o
                                0xa52 (size before relaxing)
 .debug_str     0x0000d768      0x1a8 Library/runtime/scheduler.o
                                0x9ad (size before relaxing)
 .debug_str     0x0000d910       0xdc Library/sensing/imu.o
                                0x77d (size before relaxing)
 .debug_str     0x0000d9ec      0x2f5 Library/sensing/simulation.o
                               0x1e08 (size before relaxing)
 .debug_str     0x0000dce1       0xba Library/util/buffer.o
                                0x235 (size before relaxing)
 .debug_str     0x0000dd9b       0xe7 Library/util/coord_conventions.o
                                0x262 (size before relaxing)
 .debug_str     0x0000de82       0xd3 Library/util/generator.o
                                0x1dd (size before relaxing)
 .debug_str     0x0000df55      0x1ed Library/util/print_util.o
                                0x38d (size before relaxing)
 .debug_str     0x0000e142       0x22 Library/util/sinus.o
                                0x102 (size before relaxing)
 .debug_str     0x0000e164      0x253 src/asf/avr32/drivers/adcifa/adcifa.o
                                0xa7d (size before relaxing)
 .debug_str     0x0000e3b7      0x203 src/asf/avr32/drivers/ast/ast.o
                                0x508 (size before relaxing)
 .debug_str     0x0000e5ba      0x166 src/asf/avr32/drivers/dacifb/dacifb.o
                                0x59a (size before relaxing)
 .debug_str     0x0000e720      0x19c src/asf/avr32/drivers/eic/eic.o
                                0x495 (size before relaxing)
 .debug_str     0x0000e8bc      0xa7c src/asf/avr32/drivers/flashc/flashc.o
                                0xc68 (size before relaxing)
 .debug_str     0x0000f338      0x35e src/asf/avr32/drivers/gpio/gpio.o
                                0x6ca (size before relaxing)
 .debug_str     0x0000f696      0x646 src/asf/avr32/drivers/intc/intc.o
                                0x731 (size before relaxing)
 .debug_str     0x0000fcdc      0x254 src/asf/avr32/drivers/pdca/pdca.o
                                0x5f5 (size before relaxing)
 .debug_str     0x0000ff30      0x2a0 src/asf/avr32/drivers/pevc/pevc.o
                                0x52b (size before relaxing)
 .debug_str     0x000101d0      0x5de src/asf/avr32/drivers/pm/pm_uc3c.o
                                0x789 (size before relaxing)
 .debug_str     0x000107ae      0x26e src/asf/avr32/drivers/pm/power_clocks_lib.o
                                0x610 (size before relaxing)
 .debug_str     0x00010a1c      0x476 src/asf/avr32/drivers/pwm/pwm4.o
                                0xeb7 (size before relaxing)
 .debug_str     0x00010e92      0x50d src/asf/avr32/drivers/scif/scif_uc3c.o
                                0xc22 (size before relaxing)
 .debug_str     0x0001139f      0x18f src/asf/avr32/drivers/spi/spi.o
                                0x649 (size before relaxing)
 .debug_str     0x0001152e      0x15b src/asf/avr32/drivers/tc/tc.o
                                0x4be (size before relaxing)
 .debug_str     0x00011689      0x26e src/asf/avr32/drivers/twim/twim.o
                                0x6e5 (size before relaxing)
 .debug_str     0x000118f7      0x398 src/asf/avr32/drivers/usart/usart.o
                                0xad6 (size before relaxing)
 .debug_str     0x00011c8f     0x294d src/asf/avr32/drivers/usbc/usbc_device.o
                               0x2f97 (size before relaxing)
 .debug_str     0x000145dc       0x56 src/asf/avr32/services/delay/delay.o
                                0x1c8 (size before relaxing)
 .debug_str     0x00014632       0x36 src/asf/common/boards/user_board/init.o
                                0x10d (size before relaxing)
 .debug_str     0x00014668       0xde src/asf/common/services/clock/uc3c/osc.o
                                0x664 (size before relaxing)
 .debug_str     0x00014746       0x4f src/asf/common/services/clock/uc3c/pll.o
                                0x5db (size before relaxing)
 .debug_str     0x00014795      0x1c8 src/asf/common/services/clock/uc3c/sysclk.o
                                0xc4f (size before relaxing)
 .debug_str     0x0001495d       0x33 src/asf/common/services/sleepmgr/uc3/sleepmgr.o
                                0x1b1 (size before relaxing)
 .debug_str     0x00014990      0x16c src/asf/common/services/spi/uc3_spi/spi_master.o
                                0x6b3 (size before relaxing)
 .debug_str     0x00014afc      0x5b7 src/asf/common/services/usb/class/cdc/device/udi_cdc.o
                                0x807 (size before relaxing)
 .debug_str     0x000150b3      0x48a src/asf/common/services/usb/class/cdc/device/udi_cdc_desc.o
                                0x664 (size before relaxing)
 .debug_str     0x0001553d      0x64a src/asf/common/services/usb/udc/udc.o
                                0xb04 (size before relaxing)
 .debug_str     0x00015b87       0x2c src/asf/common/utils/stdio/read.o
                                0x121 (size before relaxing)
 .debug_str     0x00015bb3       0xfd src/asf/common/utils/stdio/stdio_usb/stdio_usb.o
                                0x1fa (size before relaxing)
 .debug_str     0x00015cb0       0x26 src/asf/common/utils/stdio/write.o
                                0x123 (size before relaxing)
 .debug_str     0x00015cd6       0x36 src/boardsupport.o
                               0x2d56 (size before relaxing)
 .debug_str     0x00015d0c       0x7c src/main.o
                               0x2457 (size before relaxing)
 .debug_str     0x00015d88       0x9e c:/program files (x86)/atmel/atmel toolchain/avr32 gcc/native/3.4.2.1002/avr32-gnu-toolchain/bin/../lib/gcc/avr32/4.4.7/../../../../avr32/lib/ucr3fp\libm.a(lib_a-s_cos.o)
                                0x152 (size before relaxing)
 .debug_str     0x00015e26       0x7e c:/program files (x86)/atmel/atmel toolchain/avr32 gcc/native/3.4.2.1002/avr32-gnu-toolchain/bin/../lib/gcc/avr32/4.4.7/../../../../avr32/lib/ucr3fp\libm.a(lib_a-s_floor.o)
                                0x164 (size before relaxing)
 .debug_str     0x00015ea4       0x67 c:/program files (x86)/atmel/atmel toolchain/avr32 gcc/native/3.4.2.1002/avr32-gnu-toolchain/bin/../lib/gcc/avr32/4.4.7/../../../../avr32/lib/ucr3fp\libm.a(lib_a-s_sin.o)
                                0x152 (size before relaxing)
 .debug_str     0x00015f0b       0xd7 c:/program files (x86)/atmel/atmel toolchain/avr32 gcc/native/3.4.2.1002/avr32-gnu-toolchain/bin/../lib/gcc/avr32/4.4.7/../../../../avr32/lib/ucr3fp\libm.a(lib_a-w_asin.o)
                                0x19b (size before relaxing)
 .debug_str     0x00015fe2       0x69 c:/program files (x86)/atmel/atmel toolchain/avr32 gcc/native/3.4.2.1002/avr32-gnu-toolchain/bin/../lib/gcc/avr32/4.4.7/../../../../avr32/lib/ucr3fp\libm.a(lib_a-w_atan2.o)
                                0x11d (size before relaxing)
 .debug_str     0x0001604b       0x68 c:/program files (x86)/atmel/atmel toolchain/avr32 gcc/native/3.4.2.1002/avr32-gnu-toolchain/bin/../lib/gcc/avr32/4.4.7/../../../../avr32/lib/ucr3fp\libm.a(lib_a-w_fmod.o)
                                0x19b (size before relaxing)
 .debug_str     0x000160b3       0x67 c:/program files (x86)/atmel/atmel toolchain/avr32 gcc/native/3.4.2.1002/avr32-gnu-toolchain/bin/../lib/gcc/avr32/4.4.7/../../../../avr32/lib/ucr3fp\libm.a(lib_a-w_pow.o)
                                0x195 (size before relaxing)
 .debug_str     0x0001611a       0x68 c:/program files (x86)/atmel/atmel toolchain/avr32 gcc/native/3.4.2.1002/avr32-gnu-toolchain/bin/../lib/gcc/avr32/4.4.7/../../../../avr32/lib/ucr3fp\libm.a(lib_a-w_sqrt.o)
                                0x19b (size before relaxing)
 .debug_str     0x00016182       0x69 c:/program files (x86)/atmel/atmel toolchain/avr32 gcc/native/3.4.2.1002/avr32-gnu-toolchain/bin/../lib/gcc/avr32/4.4.7/../../../../avr32/lib/ucr3fp\libm.a(lib_a-wf_sqrt.o)
                                0x19d (size before relaxing)
 .debug_str     0x000161eb       0x94 c:/program files (x86)/atmel/atmel toolchain/avr32 gcc/native/3.4.2.1002/avr32-gnu-toolchain/bin/../lib/gcc/avr32/4.4.7/../../../../avr32/lib/ucr3fp\libm.a(lib_a-e_asin.o)
                                0x184 (size before relaxing)
 .debug_str     0x0001627f       0x97 c:/program files (x86)/atmel/atmel toolchain/avr32 gcc/native/3.4.2.1002/avr32-gnu-toolchain/bin/../lib/gcc/avr32/4.4.7/../../../../avr32/lib/ucr3fp\libm.a(lib_a-e_atan2.o)
                                0x187 (size before relaxing)
 .debug_str     0x00016316       0x7c c:/program files (x86)/atmel/atmel toolchain/avr32 gcc/native/3.4.2.1002/avr32-gnu-toolchain/bin/../lib/gcc/avr32/4.4.7/../../../../avr32/lib/ucr3fp\libm.a(lib_a-e_fmod.o)
                                0x16c (size before relaxing)
 .debug_str     0x00016392       0xb8 c:/program files (x86)/atmel/atmel toolchain/avr32 gcc/native/3.4.2.1002/avr32-gnu-toolchain/bin/../lib/gcc/avr32/4.4.7/../../../../avr32/lib/ucr3fp\libm.a(lib_a-e_pow.o)
                                0x1c1 (size before relaxing)
 .debug_str     0x0001644a       0xd4 c:/program files (x86)/atmel/atmel toolchain/avr32 gcc/native/3.4.2.1002/avr32-gnu-toolchain/bin/../lib/gcc/avr32/4.4.7/../../../../avr32/lib/ucr3fp\libm.a(lib_a-e_rem_pio2.o)
                                0x1ce (size before relaxing)
 .debug_str     0x0001651e       0x77 c:/program files (x86)/atmel/atmel toolchain/avr32 gcc/native/3.4.2.1002/avr32-gnu-toolchain/bin/../lib/gcc/avr32/4.4.7/../../../../avr32/lib/ucr3fp\libm.a(lib_a-e_sqrt.o)
                                0x171 (size before relaxing)
 .debug_str     0x00016595       0x79 c:/program files (x86)/atmel/atmel toolchain/avr32 gcc/native/3.4.2.1002/avr32-gnu-toolchain/bin/../lib/gcc/avr32/4.4.7/../../../../avr32/lib/ucr3fp\libm.a(lib_a-ef_sqrt.o)
                                0x146 (size before relaxing)
 .debug_str     0x0001660e       0x74 c:/program files (x86)/atmel/atmel toolchain/avr32 gcc/native/3.4.2.1002/avr32-gnu-toolchain/bin/../lib/gcc/avr32/4.4.7/../../../../avr32/lib/ucr3fp\libm.a(lib_a-k_cos.o)
                                0x164 (size before relaxing)
 .debug_str     0x00016682       0xa8 c:/program files (x86)/atmel/atmel toolchain/avr32 gcc/native/3.4.2.1002/avr32-gnu-toolchain/bin/../lib/gcc/avr32/4.4.7/../../../../avr32/lib/ucr3fp\libm.a(lib_a-k_rem_pio2.o)
                                0x170 (size before relaxing)
 .debug_str     0x0001672a       0x74 c:/program files (x86)/atmel/atmel toolchain/avr32 gcc/native/3.4.2.1002/avr32-gnu-toolchain/bin/../lib/gcc/avr32/4.4.7/../../../../avr32/lib/ucr3fp\libm.a(lib_a-k_sin.o)
                                0x131 (size before relaxing)
 .debug_str     0x0001679e       0x76 c:/program files (x86)/atmel/atmel toolchain/avr32 gcc/native/3.4.2.1002/avr32-gnu-toolchain/bin/../lib/gcc/avr32/4.4.7/../../../../avr32/lib/ucr3fp\libm.a(lib_a-s_atan.o)
                                0x16b (size before relaxing)
 .debug_str     0x00016814       0x6d c:/program files (x86)/atmel/atmel toolchain/avr32 gcc/native/3.4.2.1002/avr32-gnu-toolchain/bin/../lib/gcc/avr32/4.4.7/../../../../avr32/lib/ucr3fp\libm.a(lib_a-s_fabs.o)
                                0x153 (size before relaxing)
 .debug_str     0x00016881       0x73 c:/program files (x86)/atmel/atmel toolchain/avr32 gcc/native/3.4.2.1002/avr32-gnu-toolchain/bin/../lib/gcc/avr32/4.4.7/../../../../avr32/lib/ucr3fp\libm.a(lib_a-s_finite.o)
                                0x15e (size before relaxing)
 .debug_str     0x000168f4       0x75 c:/program files (x86)/atmel/atmel toolchain/avr32 gcc/native/3.4.2.1002/avr32-gnu-toolchain/bin/../lib/gcc/avr32/4.4.7/../../../../avr32/lib/ucr3fp\libm.a(lib_a-s_isnand.o)
                                0x160 (size before relaxing)
 .debug_str     0x00016969       0x6d c:/program files (x86)/atmel/atmel toolchain/avr32 gcc/native/3.4.2.1002/avr32-gnu-toolchain/bin/../lib/gcc/avr32/4.4.7/../../../../avr32/lib/ucr3fp\libm.a(lib_a-s_lib_ver.o)
                                0x176 (size before relaxing)
 .debug_str     0x000169d6       0x75 c:/program files (x86)/atmel/atmel toolchain/avr32 gcc/native/3.4.2.1002/avr32-gnu-toolchain/bin/../lib/gcc/avr32/4.4.7/../../../../avr32/lib/ucr3fp\libm.a(lib_a-s_matherr.o)
                                0x148 (size before relaxing)
 .debug_str     0x00016a4b       0x70 c:/program files (x86)/atmel/atmel toolchain/avr32 gcc/native/3.4.2.1002/avr32-gnu-toolchain/bin/../lib/gcc/avr32/4.4.7/../../../../avr32/lib/ucr3fp\libm.a(lib_a-s_nan.o)
                                0x11e (size before relaxing)
 .debug_str     0x00016abb       0x70 c:/program files (x86)/atmel/atmel toolchain/avr32 gcc/native/3.4.2.1002/avr32-gnu-toolchain/bin/../lib/gcc/avr32/4.4.7/../../../../avr32/lib/ucr3fp\libm.a(lib_a-s_rint.o)
                                0x165 (size before relaxing)
 .debug_str     0x00016b2b       0x80 c:/program files (x86)/atmel/atmel toolchain/avr32 gcc/native/3.4.2.1002/avr32-gnu-toolchain/bin/../lib/gcc/avr32/4.4.7/../../../../avr32/lib/ucr3fp\libm.a(lib_a-s_scalbn.o)
                                0x17f (size before relaxing)
 .debug_str     0x00016bab       0x8e c:/program files (x86)/atmel/atmel toolchain/avr32 gcc/native/3.4.2.1002/avr32-gnu-toolchain/bin/../lib/gcc/avr32/4.4.7/../../../../avr32/lib/ucr3fp\libm.a(lib_a-sf_isnan.o)
                                0x15c (size before relaxing)
 .debug_str     0x00016c39       0x77 c:/program files (x86)/atmel/atmel toolchain/avr32 gcc/native/3.4.2.1002/avr32-gnu-toolchain/bin/../lib/gcc/avr32/4.4.7/../../../../avr32/lib/ucr3fp\libm.a(lib_a-s_copysign.o)
                                0x158 (size before relaxing)
 .debug_str     0x00016cb0      0x103 c:/program files (x86)/atmel/atmel toolchain/avr32 gcc/native/3.4.2.1002/avr32-gnu-toolchain/bin/../lib/gcc/avr32/4.4.7/ucr3fp\libgcc.a(_floatdidf.o)
                                0x1ac (size before relaxing)
 .debug_str     0x00016db3       0x55 c:/program files (x86)/atmel/atmel toolchain/avr32 gcc/native/3.4.2.1002/avr32-gnu-toolchain/bin/../lib/gcc/avr32/4.4.7/ucr3fp\libgcc.a(_divdi3.o)
                                0x1fa (size before relaxing)
 .debug_str     0x00016e08        0x9 c:/program files (x86)/atmel/atmel toolchain/avr32 gcc/native/3.4.2.1002/avr32-gnu-toolchain/bin/../lib/gcc/avr32/4.4.7/ucr3fp\libgcc.a(_moddi3.o)
                                0x1fa (size before relaxing)
 .debug_str     0x00016e11        0xa c:/program files (x86)/atmel/atmel toolchain/avr32 gcc/native/3.4.2.1002/avr32-gnu-toolchain/bin/../lib/gcc/avr32/4.4.7/ucr3fp\libgcc.a(_udivdi3.o)
                                0x1fb (size before relaxing)
 .debug_str     0x00016e1b        0xa c:/program files (x86)/atmel/atmel toolchain/avr32 gcc/native/3.4.2.1002/avr32-gnu-toolchain/bin/../lib/gcc/avr32/4.4.7/ucr3fp\libgcc.a(_umoddi3.o)
                                0x1fb (size before relaxing)
 .debug_str     0x00016e25      0x35d c:/program files (x86)/atmel/atmel toolchain/avr32 gcc/native/3.4.2.1002/avr32-gnu-toolchain/bin/../lib/gcc/avr32/4.4.7/../../../../avr32/lib/ucr3fp\libc.a(lib_a-errno.o)
                                0x4a7 (size before relaxing)
 .debug_str     0x00017182       0xc7 c:/program files (x86)/atmel/atmel toolchain/avr32 gcc/native/3.4.2.1002/avr32-gnu-toolchain/bin/../lib/gcc/avr32/4.4.7/../../../../avr32/lib/ucr3fp\libc.a(lib_a-impure.o)
                                0x4fe (size before relaxing)
 .debug_str     0x00017249       0x6f c:/program files (x86)/atmel/atmel toolchain/avr32 gcc/native/3.4.2.1002/avr32-gnu-toolchain/bin/../lib/gcc/avr32/4.4.7/../../../../avr32/lib/ucr3fp\libc.a(lib_a-malloc.o)
                                0x4c0 (size before relaxing)
 .debug_str     0x000172b8      0x226 c:/program files (x86)/atmel/atmel toolchain/avr32 gcc/native/3.4.2.1002/avr32-gnu-toolchain/bin/../lib/gcc/avr32/4.4.7/../../../../avr32/lib/ucr3fp\libc.a(lib_a-mallocr.o)
                                0x695 (size before relaxing)
 .debug_str     0x000174de       0x71 c:/program files (x86)/atmel/atmel toolchain/avr32 gcc/native/3.4.2.1002/avr32-gnu-toolchain/bin/../lib/gcc/avr32/4.4.7/../../../../avr32/lib/ucr3fp\libc.a(lib_a-memset.o)
                                0x10d (size before relaxing)
 .debug_str     0x0001754f       0x9c c:/program files (x86)/atmel/atmel toolchain/avr32 gcc/native/3.4.2.1002/avr32-gnu-toolchain/bin/../lib/gcc/avr32/4.4.7/../../../../avr32/lib/ucr3fp\libc.a(lib_a-mlock.o)
                                0x4c7 (size before relaxing)
 .debug_str     0x000175eb       0x7f c:/program files (x86)/atmel/atmel toolchain/avr32 gcc/native/3.4.2.1002/avr32-gnu-toolchain/bin/../lib/gcc/avr32/4.4.7/../../../../avr32/lib/ucr3fp\libc.a(lib_a-sbrkr.o)
                                0x4b0 (size before relaxing)
 .debug_str     0x0001766a       0x80 c:/program files (x86)/atmel/atmel toolchain/avr32 gcc/native/3.4.2.1002/avr32-gnu-toolchain/bin/../lib/gcc/avr32/4.4.7/../../../../avr32/lib/ucr3fp\libc.a(lib_a-snprintf.o)
                                0x4f1 (size before relaxing)
 .debug_str     0x000176ea       0x7b c:/program files (x86)/atmel/atmel toolchain/avr32 gcc/native/3.4.2.1002/avr32-gnu-toolchain/bin/../lib/gcc/avr32/4.4.7/../../../../avr32/lib/ucr3fp\libc.a(lib_a-strcpy.o)
                                0x110 (size before relaxing)
 .debug_str     0x00017765       0x71 c:/program files (x86)/atmel/atmel toolchain/avr32 gcc/native/3.4.2.1002/avr32-gnu-toolchain/bin/../lib/gcc/avr32/4.4.7/../../../../avr32/lib/ucr3fp\libc.a(lib_a-strlen.o)
                                0x113 (size before relaxing)
 .debug_str     0x000177d6      0x2eb c:/program files (x86)/atmel/atmel toolchain/avr32 gcc/native/3.4.2.1002/avr32-gnu-toolchain/bin/../lib/gcc/avr32/4.4.7/../../../../avr32/lib/ucr3fp\libc.a(lib_a-syscalls.o)
                                0x439 (size before relaxing)
 .debug_str     0x00017ac1      0x3cd c:/program files (x86)/atmel/atmel toolchain/avr32 gcc/native/3.4.2.1002/avr32-gnu-toolchain/bin/../lib/gcc/avr32/4.4.7/../../../../avr32/lib/ucr3fp\libc.a(lib_a-vfprintf.o)
                                0x995 (size before relaxing)
 .debug_str     0x00017e8e       0x75 c:/program files (x86)/atmel/atmel toolchain/avr32 gcc/native/3.4.2.1002/avr32-gnu-toolchain/bin/../lib/gcc/avr32/4.4.7/../../../../avr32/lib/ucr3fp\libc.a(lib_a-wsetup.o)
                                0x4f0 (size before relaxing)
 .debug_str     0x00017f03      0x12b c:/program files (x86)/atmel/atmel toolchain/avr32 gcc/native/3.4.2.1002/avr32-gnu-toolchain/bin/../lib/gcc/avr32/4.4.7/../../../../avr32/lib/ucr3fp\libc.a(lib_a-dtoa.o)
                                0x5a5 (size before relaxing)
 .debug_str     0x0001802e       0x81 c:/program files (x86)/atmel/atmel toolchain/avr32 gcc/native/3.4.2.1002/avr32-gnu-toolchain/bin/../lib/gcc/avr32/4.4.7/../../../../avr32/lib/ucr3fp\libc.a(lib_a-fflush.o)
                                0x516 (size before relaxing)
 .debug_str     0x000180af      0x12b c:/program files (x86)/atmel/atmel toolchain/avr32 gcc/native/3.4.2.1002/avr32-gnu-toolchain/bin/../lib/gcc/avr32/4.4.7/../../../../avr32/lib/ucr3fp\libc.a(lib_a-findfp.o)
                                0x5d8 (size before relaxing)
 .debug_str     0x000181da       0x36 c:/program files (x86)/atmel/atmel toolchain/avr32 gcc/native/3.4.2.1002/avr32-gnu-toolchain/bin/../lib/gcc/avr32/4.4.7/../../../../avr32/lib/ucr3fp\libc.a(lib_a-freer.o)
                                0x5e7 (size before relaxing)
 .debug_str     0x00018210       0x95 c:/program files (x86)/atmel/atmel toolchain/avr32 gcc/native/3.4.2.1002/avr32-gnu-toolchain/bin/../lib/gcc/avr32/4.4.7/../../../../avr32/lib/ucr3fp\libc.a(lib_a-fvwrite.o)
                                0x508 (size before relaxing)
 .debug_str     0x000182a5       0x8d c:/program files (x86)/atmel/atmel toolchain/avr32 gcc/native/3.4.2.1002/avr32-gnu-toolchain/bin/../lib/gcc/avr32/4.4.7/../../../../avr32/lib/ucr3fp\libc.a(lib_a-fwalk.o)
                                0x4da (size before relaxing)
 .debug_str     0x00018332      0x1c8 c:/program files (x86)/atmel/atmel toolchain/avr32 gcc/native/3.4.2.1002/avr32-gnu-toolchain/bin/../lib/gcc/avr32/4.4.7/../../../../avr32/lib/ucr3fp\libc.a(lib_a-locale.o)
                                0x64d (size before relaxing)
 .debug_str     0x000184fa       0x82 c:/program files (x86)/atmel/atmel toolchain/avr32 gcc/native/3.4.2.1002/avr32-gnu-toolchain/bin/../lib/gcc/avr32/4.4.7/../../../../avr32/lib/ucr3fp\libc.a(lib_a-makebuf.o)
                                0x5ab (size before relaxing)
 .debug_str     0x0001857c       0x7a c:/program files (x86)/atmel/atmel toolchain/avr32 gcc/native/3.4.2.1002/avr32-gnu-toolchain/bin/../lib/gcc/avr32/4.4.7/../../../../avr32/lib/ucr3fp\libc.a(lib_a-memchr.o)
                                0x11d (size before relaxing)
 .debug_str     0x000185f6       0x7c c:/program files (x86)/atmel/atmel toolchain/avr32 gcc/native/3.4.2.1002/avr32-gnu-toolchain/bin/../lib/gcc/avr32/4.4.7/../../../../avr32/lib/ucr3fp\libc.a(lib_a-memmove.o)
                                0x128 (size before relaxing)
 .debug_str     0x00018672      0x127 c:/program files (x86)/atmel/atmel toolchain/avr32 gcc/native/3.4.2.1002/avr32-gnu-toolchain/bin/../lib/gcc/avr32/4.4.7/../../../../avr32/lib/ucr3fp\libc.a(lib_a-mprec.o)
                                0x5b2 (size before relaxing)
 .debug_str     0x00018799       0x59 c:/program files (x86)/atmel/atmel toolchain/avr32 gcc/native/3.4.2.1002/avr32-gnu-toolchain/bin/../lib/gcc/avr32/4.4.7/../../../../avr32/lib/ucr3fp\libc.a(lib_a-reallocr.o)
                                0x567 (size before relaxing)
 .debug_str     0x000187f2       0xa2 c:/program files (x86)/atmel/atmel toolchain/avr32 gcc/native/3.4.2.1002/avr32-gnu-toolchain/bin/../lib/gcc/avr32/4.4.7/../../../../avr32/lib/ucr3fp\libc.a(lib_a-reent.o)
                                0x4e4 (size before relaxing)
 .debug_str     0x00018894       0x75 c:/program files (x86)/atmel/atmel toolchain/avr32 gcc/native/3.4.2.1002/avr32-gnu-toolchain/bin/../lib/gcc/avr32/4.4.7/../../../../avr32/lib/ucr3fp\libc.a(lib_a-s_isinfd.o)
                                0x160 (size before relaxing)
 .debug_str     0x00018909       0x8a c:/program files (x86)/atmel/atmel toolchain/avr32 gcc/native/3.4.2.1002/avr32-gnu-toolchain/bin/../lib/gcc/avr32/4.4.7/../../../../avr32/lib/ucr3fp\libc.a(lib_a-stdio.o)
                                0x4d6 (size before relaxing)
 .debug_str     0x00018993       0x7b c:/program files (x86)/atmel/atmel toolchain/avr32 gcc/native/3.4.2.1002/avr32-gnu-toolchain/bin/../lib/gcc/avr32/4.4.7/../../../../avr32/lib/ucr3fp\libc.a(lib_a-writer.o)
                                0x4b3 (size before relaxing)
 .debug_str     0x00018a0e       0x19 c:/program files (x86)/atmel/atmel toolchain/avr32 gcc/native/3.4.2.1002/avr32-gnu-toolchain/bin/../lib/gcc/avr32/4.4.7/../../../../avr32/lib/ucr3fp\libc.a(lib_a-callocr.o)
                                0x4e6 (size before relaxing)
 .debug_str     0x00018a27       0x72 c:/program files (x86)/atmel/atmel toolchain/avr32 gcc/native/3.4.2.1002/avr32-gnu-toolchain/bin/../lib/gcc/avr32/4.4.7/../../../../avr32/lib/ucr3fp\libc.a(lib_a-closer.o)
                                0x4a3 (size before relaxing)
 .debug_str     0x00018a99       0x7a c:/program files (x86)/atmel/atmel toolchain/avr32 gcc/native/3.4.2.1002/avr32-gnu-toolchain/bin/../lib/gcc/avr32/4.4.7/../../../../avr32/lib/ucr3fp\libc.a(lib_a-fclose.o)
                                0x4fa (size before relaxing)
 .debug_str     0x00018b13       0x78 c:/program files (x86)/atmel/atmel toolchain/avr32 gcc/native/3.4.2.1002/avr32-gnu-toolchain/bin/../lib/gcc/avr32/4.4.7/../../../../avr32/lib/ucr3fp\libc.a(lib_a-fstatr.o)
                                0x596 (size before relaxing)
 .debug_str     0x00018b8b       0x72 c:/program files (x86)/atmel/atmel toolchain/avr32 gcc/native/3.4.2.1002/avr32-gnu-toolchain/bin/../lib/gcc/avr32/4.4.7/../../../../avr32/lib/ucr3fp\libc.a(lib_a-lseekr.o)
                                0x4b1 (size before relaxing)
 .debug_str     0x00018bfd       0x70 c:/program files (x86)/atmel/atmel toolchain/avr32 gcc/native/3.4.2.1002/avr32-gnu-toolchain/bin/../lib/gcc/avr32/4.4.7/../../../../avr32/lib/ucr3fp\libc.a(lib_a-readr.o)
                                0x4b1 (size before relaxing)

.debug_loc      0x00000000    0x297a2
 *(.debug_loc)
 .debug_loc     0x00000000       0xb5 Library/communication/console.o
 .debug_loc     0x000000b5     0x10cb Library/communication/data_logging.o
 .debug_loc     0x00001180      0x1f4 Library/communication/hud.o
 .debug_loc     0x00001374      0x1f9 Library/communication/mavlink_communication.o
 .debug_loc     0x0000156d      0x38c Library/communication/mavlink_message_handler.o
 .debug_loc     0x000018f9     0x15de Library/communication/mavlink_waypoint_handler.o
 .debug_loc     0x00002ed7      0x57d Library/communication/remote.o
 .debug_loc     0x00003454      0x370 Library/communication/state.o
 .debug_loc     0x000037c4      0x203 Library/communication/state_machine.o
 .debug_loc     0x000039c7      0x1a9 Library/control/adaptive_parameter.o
 .debug_loc     0x00003b70       0xe9 Library/control/attitude_controller_p2.o
 .debug_loc     0x00003c59      0x126 Library/control/attitude_error_estimator.o
 .debug_loc     0x00003d7f      0x47f Library/control/joystick_parsing.o
 .debug_loc     0x000041fe      0x27d Library/control/pid_control.o
 .debug_loc     0x0000447b       0x87 Library/control/servos_mix_quadcopter_cross.o
 .debug_loc     0x00004502       0x87 Library/control/servos_mix_quadcopter_diag.o
 .debug_loc     0x00004589      0x39f Library/control/stabilisation_copter.o
 .debug_loc     0x00004928      0x200 Library/hal/analog_monitor.o
 .debug_loc     0x00004b28      0x46f Library/hal/fat_fs/diskio.o
 .debug_loc     0x00004f97     0x59ac Library/hal/fat_fs/ff.o
 .debug_loc     0x0000a943      0x123 Library/hal/fat_fs/option/ccsbcs.o
 .debug_loc     0x0000aa66       0x7c Library/hal/fat_fs/option/syscall.o
 .debug_loc     0x0000aae2      0xc7a Library/hal/gps_ublox.o
 .debug_loc     0x0000b75c       0x74 Library/hal/hmc5883l.o
 .debug_loc     0x0000b7d0      0x1a7 Library/hal/i2c_driver_int.o
 .debug_loc     0x0000b977      0x101 Library/hal/lsm330dlc.o
 .debug_loc     0x0000ba78      0x1e3 Library/hal/piezo_speaker.o
 .debug_loc     0x0000bc5b      0x11f Library/hal/pwm_servos.o
 .debug_loc     0x0000bd7a      0xa49 Library/hal/sd_spi.o
 .debug_loc     0x0000c7c3      0x22a Library/hal/servos.o
 .debug_loc     0x0000c9ed      0x1d7 Library/hal/sonar_i2cxl.o
 .debug_loc     0x0000cbc4      0x266 Library/hal/spektrum_satellite.o
 .debug_loc     0x0000ce2a      0x1a7 Library/hal/time_keeper.o
 .debug_loc     0x0000cfd1      0x133 Library/hal/usb_int.o
 .debug_loc     0x0000d104       0x9f Library/hal/xbee.o
 .debug_loc     0x0000d1a3      0x197 Library/sensing/ahrs.o
 .debug_loc     0x0000d33a      0x43c Library/sensing/position_estimation.o
 .debug_loc     0x0000d776      0x259 Library/sensing/qfilter.o
 .debug_loc     0x0000d9cf       0xdb Library/util/linear_algebra.o
 .debug_loc     0x0000daaa      0x8ae Library/util/matrixlib_float.o
 .debug_loc     0x0000e358      0x382 Library/util/quick_trig.o
 .debug_loc     0x0000e6da      0x150 Private_Library/neighbor_selection.o
 .debug_loc     0x0000e82a      0x9c6 Private_Library/orca.o
 .debug_loc     0x0000f1f0       0x56 src/central_data.o
 .debug_loc     0x0000f246       0xbd src/mavlink_telemetry.o
 .debug_loc     0x0000f303      0x1ca src/tasks.o
 .debug_loc     0x0000f4cd      0x2a0 Library/communication/mavlink_stream.o
 .debug_loc     0x0000f76d      0x899 Library/communication/onboard_parameters.o
 .debug_loc     0x00010006      0x9a2 Library/control/navigation.o
 .debug_loc     0x000109a8      0x2f8 Library/control/stabilisation.o
 .debug_loc     0x00010ca0      0x364 Library/hal/adc_int.o
 .debug_loc     0x00011004      0x1f2 Library/hal/ads1274.o
 .debug_loc     0x000111f6      0x44b Library/hal/bmp085.o
 .debug_loc     0x00011641      0x22e Library/hal/dac_dma.o
 .debug_loc     0x0001186f      0x304 Library/hal/led.o
 .debug_loc     0x00011b73      0x68a Library/hal/spi_buffered.o
 .debug_loc     0x000121fd      0x4dc Library/hal/uart_int.o
 .debug_loc     0x000126d9      0x8fc Library/runtime/scheduler.o
 .debug_loc     0x00012fd5      0x26d Library/sensing/imu.o
 .debug_loc     0x00013242      0x70f Library/sensing/simulation.o
 .debug_loc     0x00013951      0x2ed Library/util/buffer.o
 .debug_loc     0x00013c3e      0x123 Library/util/coord_conventions.o
 .debug_loc     0x00013d61       0xd2 Library/util/generator.o
 .debug_loc     0x00013e33      0x8db Library/util/print_util.o
 .debug_loc     0x0001470e      0x3f4 src/asf/avr32/drivers/adcifa/adcifa.o
 .debug_loc     0x00014b02      0x3ef src/asf/avr32/drivers/ast/ast.o
 .debug_loc     0x00014ef1      0x3e6 src/asf/avr32/drivers/dacifb/dacifb.o
 .debug_loc     0x000152d7      0x2b9 src/asf/avr32/drivers/eic/eic.o
 .debug_loc     0x00015590     0x199e src/asf/avr32/drivers/flashc/flashc.o
 .debug_loc     0x00016f2e      0x9f0 src/asf/avr32/drivers/gpio/gpio.o
 .debug_loc     0x0001791e      0x121 src/asf/avr32/drivers/intc/intc.o
 .debug_loc     0x00017a3f      0x674 src/asf/avr32/drivers/pdca/pdca.o
 .debug_loc     0x000180b3      0x591 src/asf/avr32/drivers/pevc/pevc.o
 .debug_loc     0x00018644      0x240 src/asf/avr32/drivers/pm/pm_uc3c.o
 .debug_loc     0x00018884      0x346 src/asf/avr32/drivers/pm/power_clocks_lib.o
 .debug_loc     0x00018bca      0x860 src/asf/avr32/drivers/pwm/pwm4.o
 .debug_loc     0x0001942a      0x9fb src/asf/avr32/drivers/scif/scif_uc3c.o
 .debug_loc     0x00019e25      0x601 src/asf/avr32/drivers/spi/spi.o
 .debug_loc     0x0001a426      0x6d4 src/asf/avr32/drivers/tc/tc.o
 .debug_loc     0x0001aafa      0x5b4 src/asf/avr32/drivers/twim/twim.o
 .debug_loc     0x0001b0ae      0xbad src/asf/avr32/drivers/usart/usart.o
 .debug_loc     0x0001bc5b      0x8c1 src/asf/avr32/drivers/usbc/usbc_device.o
 .debug_loc     0x0001c51c       0x69 src/asf/avr32/services/delay/delay.o
 .debug_loc     0x0001c585       0x2b src/asf/common/boards/user_board/init.o
 .debug_loc     0x0001c5b0      0x176 src/asf/common/services/clock/uc3c/osc.o
 .debug_loc     0x0001c726       0xba src/asf/common/services/clock/uc3c/pll.o
 .debug_loc     0x0001c7e0      0x266 src/asf/common/services/clock/uc3c/sysclk.o
 .debug_loc     0x0001ca46      0x1e7 src/asf/common/services/spi/uc3_spi/spi_master.o
 .debug_loc     0x0001cc2d      0x701 src/asf/common/services/usb/class/cdc/device/udi_cdc.o
 .debug_loc     0x0001d32e      0x570 src/asf/common/services/usb/udc/udc.o
 .debug_loc     0x0001d89e      0x10f src/asf/common/utils/stdio/read.o
 .debug_loc     0x0001d9ad      0x195 src/asf/common/utils/stdio/stdio_usb/stdio_usb.o
 .debug_loc     0x0001db42       0xb9 src/asf/common/utils/stdio/write.o
 .debug_loc     0x0001dbfb       0x88 src/boardsupport.o
 .debug_loc     0x0001dc83       0x56 src/main.o
 .debug_loc     0x0001dcd9       0xac c:/program files (x86)/atmel/atmel toolchain/avr32 gcc/native/3.4.2.1002/avr32-gnu-toolchain/bin/../lib/gcc/avr32/4.4.7/../../../../avr32/lib/ucr3fp\libm.a(lib_a-s_cos.o)
 .debug_loc     0x0001dd85      0x214 c:/program files (x86)/atmel/atmel toolchain/avr32 gcc/native/3.4.2.1002/avr32-gnu-toolchain/bin/../lib/gcc/avr32/4.4.7/../../../../avr32/lib/ucr3fp\libm.a(lib_a-s_floor.o)
 .debug_loc     0x0001df99       0xac c:/program files (x86)/atmel/atmel toolchain/avr32 gcc/native/3.4.2.1002/avr32-gnu-toolchain/bin/../lib/gcc/avr32/4.4.7/../../../../avr32/lib/ucr3fp\libm.a(lib_a-s_sin.o)
 .debug_loc     0x0001e045       0x7c c:/program files (x86)/atmel/atmel toolchain/avr32 gcc/native/3.4.2.1002/avr32-gnu-toolchain/bin/../lib/gcc/avr32/4.4.7/../../../../avr32/lib/ucr3fp\libm.a(lib_a-w_asin.o)
 .debug_loc     0x0001e0c1       0x4f c:/program files (x86)/atmel/atmel toolchain/avr32 gcc/native/3.4.2.1002/avr32-gnu-toolchain/bin/../lib/gcc/avr32/4.4.7/../../../../avr32/lib/ucr3fp\libm.a(lib_a-w_atan2.o)
 .debug_loc     0x0001e110       0xa4 c:/program files (x86)/atmel/atmel toolchain/avr32 gcc/native/3.4.2.1002/avr32-gnu-toolchain/bin/../lib/gcc/avr32/4.4.7/../../../../avr32/lib/ucr3fp\libm.a(lib_a-w_fmod.o)
 .debug_loc     0x0001e1b4       0xa4 c:/program files (x86)/atmel/atmel toolchain/avr32 gcc/native/3.4.2.1002/avr32-gnu-toolchain/bin/../lib/gcc/avr32/4.4.7/../../../../avr32/lib/ucr3fp\libm.a(lib_a-w_pow.o)
 .debug_loc     0x0001e258       0x7c c:/program files (x86)/atmel/atmel toolchain/avr32 gcc/native/3.4.2.1002/avr32-gnu-toolchain/bin/../lib/gcc/avr32/4.4.7/../../../../avr32/lib/ucr3fp\libm.a(lib_a-w_sqrt.o)
 .debug_loc     0x0001e2d4       0x49 c:/program files (x86)/atmel/atmel toolchain/avr32 gcc/native/3.4.2.1002/avr32-gnu-toolchain/bin/../lib/gcc/avr32/4.4.7/../../../../avr32/lib/ucr3fp\libm.a(lib_a-wf_sqrt.o)
 .debug_loc     0x0001e31d      0x18f c:/program files (x86)/atmel/atmel toolchain/avr32 gcc/native/3.4.2.1002/avr32-gnu-toolchain/bin/../lib/gcc/avr32/4.4.7/../../../../avr32/lib/ucr3fp\libm.a(lib_a-e_asin.o)
 .debug_loc     0x0001e4ac      0x4e5 c:/program files (x86)/atmel/atmel toolchain/avr32 gcc/native/3.4.2.1002/avr32-gnu-toolchain/bin/../lib/gcc/avr32/4.4.7/../../../../avr32/lib/ucr3fp\libm.a(lib_a-e_atan2.o)
 .debug_loc     0x0001e991      0x4ac c:/program files (x86)/atmel/atmel toolchain/avr32 gcc/native/3.4.2.1002/avr32-gnu-toolchain/bin/../lib/gcc/avr32/4.4.7/../../../../avr32/lib/ucr3fp\libm.a(lib_a-e_fmod.o)
 .debug_loc     0x0001ee3d      0x702 c:/program files (x86)/atmel/atmel toolchain/avr32 gcc/native/3.4.2.1002/avr32-gnu-toolchain/bin/../lib/gcc/avr32/4.4.7/../../../../avr32/lib/ucr3fp\libm.a(lib_a-e_pow.o)
 .debug_loc     0x0001f53f      0x317 c:/program files (x86)/atmel/atmel toolchain/avr32 gcc/native/3.4.2.1002/avr32-gnu-toolchain/bin/../lib/gcc/avr32/4.4.7/../../../../avr32/lib/ucr3fp\libm.a(lib_a-e_rem_pio2.o)
 .debug_loc     0x0001f856      0x2fd c:/program files (x86)/atmel/atmel toolchain/avr32 gcc/native/3.4.2.1002/avr32-gnu-toolchain/bin/../lib/gcc/avr32/4.4.7/../../../../avr32/lib/ucr3fp\libm.a(lib_a-e_sqrt.o)
 .debug_loc     0x0001fb53      0x133 c:/program files (x86)/atmel/atmel toolchain/avr32 gcc/native/3.4.2.1002/avr32-gnu-toolchain/bin/../lib/gcc/avr32/4.4.7/../../../../avr32/lib/ucr3fp\libm.a(lib_a-ef_sqrt.o)
 .debug_loc     0x0001fc86       0xdf c:/program files (x86)/atmel/atmel toolchain/avr32 gcc/native/3.4.2.1002/avr32-gnu-toolchain/bin/../lib/gcc/avr32/4.4.7/../../../../avr32/lib/ucr3fp\libm.a(lib_a-k_cos.o)
 .debug_loc     0x0001fd65      0x627 c:/program files (x86)/atmel/atmel toolchain/avr32 gcc/native/3.4.2.1002/avr32-gnu-toolchain/bin/../lib/gcc/avr32/4.4.7/../../../../avr32/lib/ucr3fp\libm.a(lib_a-k_rem_pio2.o)
 .debug_loc     0x0002038c       0x89 c:/program files (x86)/atmel/atmel toolchain/avr32 gcc/native/3.4.2.1002/avr32-gnu-toolchain/bin/../lib/gcc/avr32/4.4.7/../../../../avr32/lib/ucr3fp\libm.a(lib_a-k_sin.o)
 .debug_loc     0x00020415      0x243 c:/program files (x86)/atmel/atmel toolchain/avr32 gcc/native/3.4.2.1002/avr32-gnu-toolchain/bin/../lib/gcc/avr32/4.4.7/../../../../avr32/lib/ucr3fp\libm.a(lib_a-s_atan.o)
 .debug_loc     0x00020658       0x18 c:/program files (x86)/atmel/atmel toolchain/avr32 gcc/native/3.4.2.1002/avr32-gnu-toolchain/bin/../lib/gcc/avr32/4.4.7/../../../../avr32/lib/ucr3fp\libm.a(lib_a-s_fabs.o)
 .debug_loc     0x00020670       0x18 c:/program files (x86)/atmel/atmel toolchain/avr32 gcc/native/3.4.2.1002/avr32-gnu-toolchain/bin/../lib/gcc/avr32/4.4.7/../../../../avr32/lib/ucr3fp\libm.a(lib_a-s_finite.o)
 .debug_loc     0x00020688       0x18 c:/program files (x86)/atmel/atmel toolchain/avr32 gcc/native/3.4.2.1002/avr32-gnu-toolchain/bin/../lib/gcc/avr32/4.4.7/../../../../avr32/lib/ucr3fp\libm.a(lib_a-s_isnand.o)
 .debug_loc     0x000206a0       0x13 c:/program files (x86)/atmel/atmel toolchain/avr32 gcc/native/3.4.2.1002/avr32-gnu-toolchain/bin/../lib/gcc/avr32/4.4.7/../../../../avr32/lib/ucr3fp\libm.a(lib_a-s_matherr.o)
 .debug_loc     0x000206b3      0x26b c:/program files (x86)/atmel/atmel toolchain/avr32 gcc/native/3.4.2.1002/avr32-gnu-toolchain/bin/../lib/gcc/avr32/4.4.7/../../../../avr32/lib/ucr3fp\libm.a(lib_a-s_rint.o)
 .debug_loc     0x0002091e      0x2f0 c:/program files (x86)/atmel/atmel toolchain/avr32 gcc/native/3.4.2.1002/avr32-gnu-toolchain/bin/../lib/gcc/avr32/4.4.7/../../../../avr32/lib/ucr3fp\libm.a(lib_a-s_scalbn.o)
 .debug_loc     0x00020c0e       0x13 c:/program files (x86)/atmel/atmel toolchain/avr32 gcc/native/3.4.2.1002/avr32-gnu-toolchain/bin/../lib/gcc/avr32/4.4.7/../../../../avr32/lib/ucr3fp\libm.a(lib_a-sf_isnan.o)
 .debug_loc     0x00020c21       0x4f c:/program files (x86)/atmel/atmel toolchain/avr32 gcc/native/3.4.2.1002/avr32-gnu-toolchain/bin/../lib/gcc/avr32/4.4.7/../../../../avr32/lib/ucr3fp\libm.a(lib_a-s_copysign.o)
 .debug_loc     0x00020c70       0x37 c:/program files (x86)/atmel/atmel toolchain/avr32 gcc/native/3.4.2.1002/avr32-gnu-toolchain/bin/../lib/gcc/avr32/4.4.7/ucr3fp\libgcc.a(_floatdidf.o)
 .debug_loc     0x00020ca7      0x844 c:/program files (x86)/atmel/atmel toolchain/avr32 gcc/native/3.4.2.1002/avr32-gnu-toolchain/bin/../lib/gcc/avr32/4.4.7/ucr3fp\libgcc.a(_divdi3.o)
 .debug_loc     0x000214eb      0x593 c:/program files (x86)/atmel/atmel toolchain/avr32 gcc/native/3.4.2.1002/avr32-gnu-toolchain/bin/../lib/gcc/avr32/4.4.7/ucr3fp\libgcc.a(_moddi3.o)
 .debug_loc     0x00021a7e      0x75d c:/program files (x86)/atmel/atmel toolchain/avr32 gcc/native/3.4.2.1002/avr32-gnu-toolchain/bin/../lib/gcc/avr32/4.4.7/ucr3fp\libgcc.a(_udivdi3.o)
 .debug_loc     0x000221db      0x4e6 c:/program files (x86)/atmel/atmel toolchain/avr32 gcc/native/3.4.2.1002/avr32-gnu-toolchain/bin/../lib/gcc/avr32/4.4.7/ucr3fp\libgcc.a(_umoddi3.o)
 .debug_loc     0x000226c1       0x64 c:/program files (x86)/atmel/atmel toolchain/avr32 gcc/native/3.4.2.1002/avr32-gnu-toolchain/bin/../lib/gcc/avr32/4.4.7/../../../../avr32/lib/ucr3fp\libc.a(lib_a-malloc.o)
 .debug_loc     0x00022725      0x59a c:/program files (x86)/atmel/atmel toolchain/avr32 gcc/native/3.4.2.1002/avr32-gnu-toolchain/bin/../lib/gcc/avr32/4.4.7/../../../../avr32/lib/ucr3fp\libc.a(lib_a-mallocr.o)
 .debug_loc     0x00022cbf       0x63 c:/program files (x86)/atmel/atmel toolchain/avr32 gcc/native/3.4.2.1002/avr32-gnu-toolchain/bin/../lib/gcc/avr32/4.4.7/../../../../avr32/lib/ucr3fp\libc.a(lib_a-sbrkr.o)
 .debug_loc     0x00022d22      0x171 c:/program files (x86)/atmel/atmel toolchain/avr32 gcc/native/3.4.2.1002/avr32-gnu-toolchain/bin/../lib/gcc/avr32/4.4.7/../../../../avr32/lib/ucr3fp\libc.a(lib_a-snprintf.o)
 .debug_loc     0x00022e93       0x1e c:/program files (x86)/atmel/atmel toolchain/avr32 gcc/native/3.4.2.1002/avr32-gnu-toolchain/bin/../lib/gcc/avr32/4.4.7/../../../../avr32/lib/ucr3fp\libc.a(lib_a-strlen.o)
 .debug_loc     0x00022eb1      0x268 c:/program files (x86)/atmel/atmel toolchain/avr32 gcc/native/3.4.2.1002/avr32-gnu-toolchain/bin/../lib/gcc/avr32/4.4.7/../../../../avr32/lib/ucr3fp\libc.a(lib_a-syscalls.o)
 .debug_loc     0x00023119     0x2f9f c:/program files (x86)/atmel/atmel toolchain/avr32 gcc/native/3.4.2.1002/avr32-gnu-toolchain/bin/../lib/gcc/avr32/4.4.7/../../../../avr32/lib/ucr3fp\libc.a(lib_a-vfprintf.o)
 .debug_loc     0x000260b8       0x5b c:/program files (x86)/atmel/atmel toolchain/avr32 gcc/native/3.4.2.1002/avr32-gnu-toolchain/bin/../lib/gcc/avr32/4.4.7/../../../../avr32/lib/ucr3fp\libc.a(lib_a-wsetup.o)
 .debug_loc     0x00026113      0xb8a c:/program files (x86)/atmel/atmel toolchain/avr32 gcc/native/3.4.2.1002/avr32-gnu-toolchain/bin/../lib/gcc/avr32/4.4.7/../../../../avr32/lib/ucr3fp\libc.a(lib_a-dtoa.o)
 .debug_loc     0x00026c9d      0x13f c:/program files (x86)/atmel/atmel toolchain/avr32 gcc/native/3.4.2.1002/avr32-gnu-toolchain/bin/../lib/gcc/avr32/4.4.7/../../../../avr32/lib/ucr3fp\libc.a(lib_a-fflush.o)
 .debug_loc     0x00026ddc      0x202 c:/program files (x86)/atmel/atmel toolchain/avr32 gcc/native/3.4.2.1002/avr32-gnu-toolchain/bin/../lib/gcc/avr32/4.4.7/../../../../avr32/lib/ucr3fp\libc.a(lib_a-findfp.o)
 .debug_loc     0x00026fde      0x32c c:/program files (x86)/atmel/atmel toolchain/avr32 gcc/native/3.4.2.1002/avr32-gnu-toolchain/bin/../lib/gcc/avr32/4.4.7/../../../../avr32/lib/ucr3fp\libc.a(lib_a-freer.o)
 .debug_loc     0x0002730a      0x28e c:/program files (x86)/atmel/atmel toolchain/avr32 gcc/native/3.4.2.1002/avr32-gnu-toolchain/bin/../lib/gcc/avr32/4.4.7/../../../../avr32/lib/ucr3fp\libc.a(lib_a-fvwrite.o)
 .debug_loc     0x00027598       0xe7 c:/program files (x86)/atmel/atmel toolchain/avr32 gcc/native/3.4.2.1002/avr32-gnu-toolchain/bin/../lib/gcc/avr32/4.4.7/../../../../avr32/lib/ucr3fp\libc.a(lib_a-fwalk.o)
 .debug_loc     0x0002767f       0xd1 c:/program files (x86)/atmel/atmel toolchain/avr32 gcc/native/3.4.2.1002/avr32-gnu-toolchain/bin/../lib/gcc/avr32/4.4.7/../../../../avr32/lib/ucr3fp\libc.a(lib_a-locale.o)
 .debug_loc     0x00027750       0xc2 c:/program files (x86)/atmel/atmel toolchain/avr32 gcc/native/3.4.2.1002/avr32-gnu-toolchain/bin/../lib/gcc/avr32/4.4.7/../../../../avr32/lib/ucr3fp\libc.a(lib_a-makebuf.o)
 .debug_loc     0x00027812       0x31 c:/program files (x86)/atmel/atmel toolchain/avr32 gcc/native/3.4.2.1002/avr32-gnu-toolchain/bin/../lib/gcc/avr32/4.4.7/../../../../avr32/lib/ucr3fp\libc.a(lib_a-memchr.o)
 .debug_loc     0x00027843       0x81 c:/program files (x86)/atmel/atmel toolchain/avr32 gcc/native/3.4.2.1002/avr32-gnu-toolchain/bin/../lib/gcc/avr32/4.4.7/../../../../avr32/lib/ucr3fp\libc.a(lib_a-memmove.o)
 .debug_loc     0x000278c4     0x122d c:/program files (x86)/atmel/atmel toolchain/avr32 gcc/native/3.4.2.1002/avr32-gnu-toolchain/bin/../lib/gcc/avr32/4.4.7/../../../../avr32/lib/ucr3fp\libc.a(lib_a-mprec.o)
 .debug_loc     0x00028af1      0x56e c:/program files (x86)/atmel/atmel toolchain/avr32 gcc/native/3.4.2.1002/avr32-gnu-toolchain/bin/../lib/gcc/avr32/4.4.7/../../../../avr32/lib/ucr3fp\libc.a(lib_a-reallocr.o)
 .debug_loc     0x0002905f      0x10a c:/program files (x86)/atmel/atmel toolchain/avr32 gcc/native/3.4.2.1002/avr32-gnu-toolchain/bin/../lib/gcc/avr32/4.4.7/../../../../avr32/lib/ucr3fp\libc.a(lib_a-reent.o)
 .debug_loc     0x00029169       0x43 c:/program files (x86)/atmel/atmel toolchain/avr32 gcc/native/3.4.2.1002/avr32-gnu-toolchain/bin/../lib/gcc/avr32/4.4.7/../../../../avr32/lib/ucr3fp\libc.a(lib_a-s_isinfd.o)
 .debug_loc     0x000291ac      0x1ee c:/program files (x86)/atmel/atmel toolchain/avr32 gcc/native/3.4.2.1002/avr32-gnu-toolchain/bin/../lib/gcc/avr32/4.4.7/../../../../avr32/lib/ucr3fp\libc.a(lib_a-stdio.o)
 .debug_loc     0x0002939a       0x94 c:/program files (x86)/atmel/atmel toolchain/avr32 gcc/native/3.4.2.1002/avr32-gnu-toolchain/bin/../lib/gcc/avr32/4.4.7/../../../../avr32/lib/ucr3fp\libc.a(lib_a-writer.o)
 .debug_loc     0x0002942e       0xbd c:/program files (x86)/atmel/atmel toolchain/avr32 gcc/native/3.4.2.1002/avr32-gnu-toolchain/bin/../lib/gcc/avr32/4.4.7/../../../../avr32/lib/ucr3fp\libc.a(lib_a-callocr.o)
 .debug_loc     0x000294eb       0x63 c:/program files (x86)/atmel/atmel toolchain/avr32 gcc/native/3.4.2.1002/avr32-gnu-toolchain/bin/../lib/gcc/avr32/4.4.7/../../../../avr32/lib/ucr3fp\libc.a(lib_a-closer.o)
 .debug_loc     0x0002954e       0xb6 c:/program files (x86)/atmel/atmel toolchain/avr32 gcc/native/3.4.2.1002/avr32-gnu-toolchain/bin/../lib/gcc/avr32/4.4.7/../../../../avr32/lib/ucr3fp\libc.a(lib_a-fclose.o)
 .debug_loc     0x00029604       0x76 c:/program files (x86)/atmel/atmel toolchain/avr32 gcc/native/3.4.2.1002/avr32-gnu-toolchain/bin/../lib/gcc/avr32/4.4.7/../../../../avr32/lib/ucr3fp\libc.a(lib_a-fstatr.o)
 .debug_loc     0x0002967a       0x94 c:/program files (x86)/atmel/atmel toolchain/avr32 gcc/native/3.4.2.1002/avr32-gnu-toolchain/bin/../lib/gcc/avr32/4.4.7/../../../../avr32/lib/ucr3fp\libc.a(lib_a-lseekr.o)
 .debug_loc     0x0002970e       0x94 c:/program files (x86)/atmel/atmel toolchain/avr32 gcc/native/3.4.2.1002/avr32-gnu-toolchain/bin/../lib/gcc/avr32/4.4.7/../../../../avr32/lib/ucr3fp\libc.a(lib_a-readr.o)

.debug_macinfo
 *(.debug_macinfo)

.debug_weaknames
 *(.debug_weaknames)

.debug_funcnames
 *(.debug_funcnames)

.debug_typenames
 *(.debug_typenames)

.debug_varnames
 *(.debug_varnames)

.stack          0x0000f000     0x1000
                0x0000f000                _stack = .
 *(.stack)
                0x00001000                . = _stack_size
 *fill*         0x0000f000     0x1000 
                0x00010000                _estack = .

.userpage
 *(.userpage .userpage.*)

.factorypage
 *(.factorypage .factorypage.*)

.flashvault_flash_size
 *(.flashvault_flash_size .flashvault_flash_size.*)

.flashvault_ram_size
 *(.flashvault_ram_size .flashvault_ram_size.*)

/DISCARD/
 *(.note.GNU-stack)
OUTPUT(MegaFly2.elf elf32-avr32)

.debug_ranges   0x00000000     0xf310
 .debug_ranges  0x00000000      0x238 Library/communication/data_logging.o
 .debug_ranges  0x00000238      0x210 Library/communication/hud.o
 .debug_ranges  0x00000448       0x80 Library/communication/mavlink_communication.o
 .debug_ranges  0x000004c8      0x200 Library/communication/mavlink_message_handler.o
 .debug_ranges  0x000006c8     0x2290 Library/communication/mavlink_waypoint_handler.o
 .debug_ranges  0x00002958      0x828 Library/communication/remote.o
 .debug_ranges  0x00003180      0x490 Library/communication/state.o
 .debug_ranges  0x00003610       0x18 Library/control/adaptive_parameter.o
 .debug_ranges  0x00003628      0x1b0 Library/control/attitude_error_estimator.o
 .debug_ranges  0x000037d8      0x4f8 Library/control/joystick_parsing.o
 .debug_ranges  0x00003cd0      0x100 Library/control/pid_control.o
 .debug_ranges  0x00003dd0      0x340 Library/control/stabilisation_copter.o
 .debug_ranges  0x00004110      0x1c0 Library/hal/analog_monitor.o
 .debug_ranges  0x000042d0     0x1380 Library/hal/fat_fs/ff.o
 .debug_ranges  0x00005650      0x9b8 Library/hal/gps_ublox.o
 .debug_ranges  0x00006008       0x30 Library/hal/lsm330dlc.o
 .debug_ranges  0x00006038       0x28 Library/hal/piezo_speaker.o
 .debug_ranges  0x00006060       0xa0 Library/hal/pwm_servos.o
 .debug_ranges  0x00006100      0x8b0 Library/hal/sd_spi.o
 .debug_ranges  0x000069b0      0x378 Library/hal/servos.o
 .debug_ranges  0x00006d28      0x150 Library/hal/sonar_i2cxl.o
 .debug_ranges  0x00006e78       0xe0 Library/hal/spektrum_satellite.o
 .debug_ranges  0x00006f58      0x3e8 Library/sensing/ahrs.o
 .debug_ranges  0x00007340      0x870 Library/sensing/position_estimation.o
 .debug_ranges  0x00007bb0      0x700 Library/sensing/qfilter.o
 .debug_ranges  0x000082b0       0xf0 Library/util/quick_trig.o
 .debug_ranges  0x000083a0      0x498 Private_Library/neighbor_selection.o
 .debug_ranges  0x00008838     0x1080 Private_Library/orca.o
 .debug_ranges  0x000098b8       0x30 src/tasks.o
 .debug_ranges  0x000098e8      0x278 Library/communication/mavlink_stream.o
 .debug_ranges  0x00009b60      0x4c8 Library/communication/onboard_parameters.o
 .debug_ranges  0x0000a028      0x8f8 Library/control/navigation.o
 .debug_ranges  0x0000a920      0x540 Library/control/stabilisation.o
 .debug_ranges  0x0000ae60      0x3f8 Library/hal/bmp085.o
 .debug_ranges  0x0000b258      0x120 Library/hal/spi_buffered.o
 .debug_ranges  0x0000b378      0x788 Library/runtime/scheduler.o
 .debug_ranges  0x0000bb00      0x768 Library/sensing/imu.o
 .debug_ranges  0x0000c268     0x16a8 Library/sensing/simulation.o
 .debug_ranges  0x0000d910       0x80 src/asf/avr32/drivers/dacifb/dacifb.o
 .debug_ranges  0x0000d990       0x50 src/asf/avr32/drivers/flashc/flashc.o
 .debug_ranges  0x0000d9e0       0x50 src/asf/avr32/drivers/gpio/gpio.o
 .debug_ranges  0x0000da30       0x50 src/asf/avr32/drivers/pm/power_clocks_lib.o
 .debug_ranges  0x0000da80       0x18 src/asf/avr32/drivers/pwm/pwm4.o
 .debug_ranges  0x0000da98      0x108 src/asf/avr32/drivers/scif/scif_uc3c.o
 .debug_ranges  0x0000dba0       0x60 src/asf/avr32/drivers/usart/usart.o
 .debug_ranges  0x0000dc00      0x2c8 src/asf/avr32/drivers/usbc/usbc_device.o
 .debug_ranges  0x0000dec8       0x90 src/asf/common/services/clock/uc3c/sysclk.o
 .debug_ranges  0x0000df58      0x150 src/asf/common/services/spi/uc3_spi/spi_master.o
 .debug_ranges  0x0000e0a8       0xd0 src/asf/common/services/usb/class/cdc/device/udi_cdc.o
 .debug_ranges  0x0000e178      0x390 src/asf/common/services/usb/udc/udc.o
 .debug_ranges  0x0000e508       0x18 src/asf/common/utils/stdio/read.o
 .debug_ranges  0x0000e520       0x18 c:/program files (x86)/atmel/atmel toolchain/avr32 gcc/native/3.4.2.1002/avr32-gnu-toolchain/bin/../lib/gcc/avr32/4.4.7/../../../../avr32/lib/ucr3fp\libm.a(lib_a-s_cos.o)
 .debug_ranges  0x0000e538       0x18 c:/program files (x86)/atmel/atmel toolchain/avr32 gcc/native/3.4.2.1002/avr32-gnu-toolchain/bin/../lib/gcc/avr32/4.4.7/../../../../avr32/lib/ucr3fp\libm.a(lib_a-s_floor.o)
 .debug_ranges  0x0000e550       0x18 c:/program files (x86)/atmel/atmel toolchain/avr32 gcc/native/3.4.2.1002/avr32-gnu-toolchain/bin/../lib/gcc/avr32/4.4.7/../../../../avr32/lib/ucr3fp\libm.a(lib_a-s_sin.o)
 .debug_ranges  0x0000e568       0x18 c:/program files (x86)/atmel/atmel toolchain/avr32 gcc/native/3.4.2.1002/avr32-gnu-toolchain/bin/../lib/gcc/avr32/4.4.7/../../../../avr32/lib/ucr3fp\libm.a(lib_a-w_asin.o)
 .debug_ranges  0x0000e580       0x18 c:/program files (x86)/atmel/atmel toolchain/avr32 gcc/native/3.4.2.1002/avr32-gnu-toolchain/bin/../lib/gcc/avr32/4.4.7/../../../../avr32/lib/ucr3fp\libm.a(lib_a-w_atan2.o)
 .debug_ranges  0x0000e598       0x18 c:/program files (x86)/atmel/atmel toolchain/avr32 gcc/native/3.4.2.1002/avr32-gnu-toolchain/bin/../lib/gcc/avr32/4.4.7/../../../../avr32/lib/ucr3fp\libm.a(lib_a-w_fmod.o)
 .debug_ranges  0x0000e5b0       0x18 c:/program files (x86)/atmel/atmel toolchain/avr32 gcc/native/3.4.2.1002/avr32-gnu-toolchain/bin/../lib/gcc/avr32/4.4.7/../../../../avr32/lib/ucr3fp\libm.a(lib_a-w_pow.o)
 .debug_ranges  0x0000e5c8       0x18 c:/program files (x86)/atmel/atmel toolchain/avr32 gcc/native/3.4.2.1002/avr32-gnu-toolchain/bin/../lib/gcc/avr32/4.4.7/../../../../avr32/lib/ucr3fp\libm.a(lib_a-w_sqrt.o)
 .debug_ranges  0x0000e5e0       0x18 c:/program files (x86)/atmel/atmel toolchain/avr32 gcc/native/3.4.2.1002/avr32-gnu-toolchain/bin/../lib/gcc/avr32/4.4.7/../../../../avr32/lib/ucr3fp\libm.a(lib_a-wf_sqrt.o)
 .debug_ranges  0x0000e5f8       0x30 c:/program files (x86)/atmel/atmel toolchain/avr32 gcc/native/3.4.2.1002/avr32-gnu-toolchain/bin/../lib/gcc/avr32/4.4.7/../../../../avr32/lib/ucr3fp\libm.a(lib_a-e_asin.o)
 .debug_ranges  0x0000e628       0x48 c:/program files (x86)/atmel/atmel toolchain/avr32 gcc/native/3.4.2.1002/avr32-gnu-toolchain/bin/../lib/gcc/avr32/4.4.7/../../../../avr32/lib/ucr3fp\libm.a(lib_a-e_atan2.o)
 .debug_ranges  0x0000e670       0x68 c:/program files (x86)/atmel/atmel toolchain/avr32 gcc/native/3.4.2.1002/avr32-gnu-toolchain/bin/../lib/gcc/avr32/4.4.7/../../../../avr32/lib/ucr3fp\libm.a(lib_a-e_fmod.o)
 .debug_ranges  0x0000e6d8      0x158 c:/program files (x86)/atmel/atmel toolchain/avr32 gcc/native/3.4.2.1002/avr32-gnu-toolchain/bin/../lib/gcc/avr32/4.4.7/../../../../avr32/lib/ucr3fp\libm.a(lib_a-e_pow.o)
 .debug_ranges  0x0000e830       0x30 c:/program files (x86)/atmel/atmel toolchain/avr32 gcc/native/3.4.2.1002/avr32-gnu-toolchain/bin/../lib/gcc/avr32/4.4.7/../../../../avr32/lib/ucr3fp\libm.a(lib_a-e_rem_pio2.o)
 .debug_ranges  0x0000e860       0x38 c:/program files (x86)/atmel/atmel toolchain/avr32 gcc/native/3.4.2.1002/avr32-gnu-toolchain/bin/../lib/gcc/avr32/4.4.7/../../../../avr32/lib/ucr3fp\libm.a(lib_a-e_sqrt.o)
 .debug_ranges  0x0000e898       0x18 c:/program files (x86)/atmel/atmel toolchain/avr32 gcc/native/3.4.2.1002/avr32-gnu-toolchain/bin/../lib/gcc/avr32/4.4.7/../../../../avr32/lib/ucr3fp\libm.a(lib_a-ef_sqrt.o)
 .debug_ranges  0x0000e8b0       0x18 c:/program files (x86)/atmel/atmel toolchain/avr32 gcc/native/3.4.2.1002/avr32-gnu-toolchain/bin/../lib/gcc/avr32/4.4.7/../../../../avr32/lib/ucr3fp\libm.a(lib_a-k_cos.o)
 .debug_ranges  0x0000e8c8       0x18 c:/program files (x86)/atmel/atmel toolchain/avr32 gcc/native/3.4.2.1002/avr32-gnu-toolchain/bin/../lib/gcc/avr32/4.4.7/../../../../avr32/lib/ucr3fp\libm.a(lib_a-k_rem_pio2.o)
 .debug_ranges  0x0000e8e0       0x18 c:/program files (x86)/atmel/atmel toolchain/avr32 gcc/native/3.4.2.1002/avr32-gnu-toolchain/bin/../lib/gcc/avr32/4.4.7/../../../../avr32/lib/ucr3fp\libm.a(lib_a-k_sin.o)
 .debug_ranges  0x0000e8f8       0x18 c:/program files (x86)/atmel/atmel toolchain/avr32 gcc/native/3.4.2.1002/avr32-gnu-toolchain/bin/../lib/gcc/avr32/4.4.7/../../../../avr32/lib/ucr3fp\libm.a(lib_a-s_atan.o)
 .debug_ranges  0x0000e910       0x18 c:/program files (x86)/atmel/atmel toolchain/avr32 gcc/native/3.4.2.1002/avr32-gnu-toolchain/bin/../lib/gcc/avr32/4.4.7/../../../../avr32/lib/ucr3fp\libm.a(lib_a-s_fabs.o)
 .debug_ranges  0x0000e928       0x18 c:/program files (x86)/atmel/atmel toolchain/avr32 gcc/native/3.4.2.1002/avr32-gnu-toolchain/bin/../lib/gcc/avr32/4.4.7/../../../../avr32/lib/ucr3fp\libm.a(lib_a-s_finite.o)
 .debug_ranges  0x0000e940       0x18 c:/program files (x86)/atmel/atmel toolchain/avr32 gcc/native/3.4.2.1002/avr32-gnu-toolchain/bin/../lib/gcc/avr32/4.4.7/../../../../avr32/lib/ucr3fp\libm.a(lib_a-s_isnand.o)
 .debug_ranges  0x0000e958       0x18 c:/program files (x86)/atmel/atmel toolchain/avr32 gcc/native/3.4.2.1002/avr32-gnu-toolchain/bin/../lib/gcc/avr32/4.4.7/../../../../avr32/lib/ucr3fp\libm.a(lib_a-s_matherr.o)
 .debug_ranges  0x0000e970       0x18 c:/program files (x86)/atmel/atmel toolchain/avr32 gcc/native/3.4.2.1002/avr32-gnu-toolchain/bin/../lib/gcc/avr32/4.4.7/../../../../avr32/lib/ucr3fp\libm.a(lib_a-s_nan.o)
 .debug_ranges  0x0000e988       0x18 c:/program files (x86)/atmel/atmel toolchain/avr32 gcc/native/3.4.2.1002/avr32-gnu-toolchain/bin/../lib/gcc/avr32/4.4.7/../../../../avr32/lib/ucr3fp\libm.a(lib_a-s_rint.o)
 .debug_ranges  0x0000e9a0       0x30 c:/program files (x86)/atmel/atmel toolchain/avr32 gcc/native/3.4.2.1002/avr32-gnu-toolchain/bin/../lib/gcc/avr32/4.4.7/../../../../avr32/lib/ucr3fp\libm.a(lib_a-s_scalbn.o)
 .debug_ranges  0x0000e9d0       0x18 c:/program files (x86)/atmel/atmel toolchain/avr32 gcc/native/3.4.2.1002/avr32-gnu-toolchain/bin/../lib/gcc/avr32/4.4.7/../../../../avr32/lib/ucr3fp\libm.a(lib_a-sf_isnan.o)
 .debug_ranges  0x0000e9e8       0x18 c:/program files (x86)/atmel/atmel toolchain/avr32 gcc/native/3.4.2.1002/avr32-gnu-toolchain/bin/../lib/gcc/avr32/4.4.7/../../../../avr32/lib/ucr3fp\libm.a(lib_a-s_copysign.o)
 .debug_ranges  0x0000ea00       0x90 c:/program files (x86)/atmel/atmel toolchain/avr32 gcc/native/3.4.2.1002/avr32-gnu-toolchain/bin/../lib/gcc/avr32/4.4.7/ucr3fp\libgcc.a(_divdi3.o)
 .debug_ranges  0x0000ea90       0x68 c:/program files (x86)/atmel/atmel toolchain/avr32 gcc/native/3.4.2.1002/avr32-gnu-toolchain/bin/../lib/gcc/avr32/4.4.7/ucr3fp\libgcc.a(_moddi3.o)
 .debug_ranges  0x0000eaf8       0x78 c:/program files (x86)/atmel/atmel toolchain/avr32 gcc/native/3.4.2.1002/avr32-gnu-toolchain/bin/../lib/gcc/avr32/4.4.7/ucr3fp\libgcc.a(_udivdi3.o)
 .debug_ranges  0x0000eb70       0x38 c:/program files (x86)/atmel/atmel toolchain/avr32 gcc/native/3.4.2.1002/avr32-gnu-toolchain/bin/../lib/gcc/avr32/4.4.7/ucr3fp\libgcc.a(_umoddi3.o)
 .debug_ranges  0x0000eba8       0x18 c:/program files (x86)/atmel/atmel toolchain/avr32 gcc/native/3.4.2.1002/avr32-gnu-toolchain/bin/../lib/gcc/avr32/4.4.7/../../../../avr32/lib/ucr3fp\libc.a(lib_a-errno.o)
 .debug_ranges  0x0000ebc0       0x20 c:/program files (x86)/atmel/atmel toolchain/avr32 gcc/native/3.4.2.1002/avr32-gnu-toolchain/bin/../lib/gcc/avr32/4.4.7/../../../../avr32/lib/ucr3fp\libc.a(lib_a-malloc.o)
 .debug_ranges  0x0000ebe0       0x18 c:/program files (x86)/atmel/atmel toolchain/avr32 gcc/native/3.4.2.1002/avr32-gnu-toolchain/bin/../lib/gcc/avr32/4.4.7/../../../../avr32/lib/ucr3fp\libc.a(lib_a-mallocr.o)
 .debug_ranges  0x0000ebf8       0x18 c:/program files (x86)/atmel/atmel toolchain/avr32 gcc/native/3.4.2.1002/avr32-gnu-toolchain/bin/../lib/gcc/avr32/4.4.7/../../../../avr32/lib/ucr3fp\libc.a(lib_a-memset.o)
 .debug_ranges  0x0000ec10       0x20 c:/program files (x86)/atmel/atmel toolchain/avr32 gcc/native/3.4.2.1002/avr32-gnu-toolchain/bin/../lib/gcc/avr32/4.4.7/../../../../avr32/lib/ucr3fp\libc.a(lib_a-mlock.o)
 .debug_ranges  0x0000ec30       0x18 c:/program files (x86)/atmel/atmel toolchain/avr32 gcc/native/3.4.2.1002/avr32-gnu-toolchain/bin/../lib/gcc/avr32/4.4.7/../../../../avr32/lib/ucr3fp\libc.a(lib_a-sbrkr.o)
 .debug_ranges  0x0000ec48       0x20 c:/program files (x86)/atmel/atmel toolchain/avr32 gcc/native/3.4.2.1002/avr32-gnu-toolchain/bin/../lib/gcc/avr32/4.4.7/../../../../avr32/lib/ucr3fp\libc.a(lib_a-snprintf.o)
 .debug_ranges  0x0000ec68       0x18 c:/program files (x86)/atmel/atmel toolchain/avr32 gcc/native/3.4.2.1002/avr32-gnu-toolchain/bin/../lib/gcc/avr32/4.4.7/../../../../avr32/lib/ucr3fp\libc.a(lib_a-strcpy.o)
 .debug_ranges  0x0000ec80       0x18 c:/program files (x86)/atmel/atmel toolchain/avr32 gcc/native/3.4.2.1002/avr32-gnu-toolchain/bin/../lib/gcc/avr32/4.4.7/../../../../avr32/lib/ucr3fp\libc.a(lib_a-strlen.o)
 .debug_ranges  0x0000ec98       0xf0 c:/program files (x86)/atmel/atmel toolchain/avr32 gcc/native/3.4.2.1002/avr32-gnu-toolchain/bin/../lib/gcc/avr32/4.4.7/../../../../avr32/lib/ucr3fp\libc.a(lib_a-syscalls.o)
 .debug_ranges  0x0000ed88       0xa0 c:/program files (x86)/atmel/atmel toolchain/avr32 gcc/native/3.4.2.1002/avr32-gnu-toolchain/bin/../lib/gcc/avr32/4.4.7/../../../../avr32/lib/ucr3fp\libc.a(lib_a-vfprintf.o)
 .debug_ranges  0x0000ee28       0x18 c:/program files (x86)/atmel/atmel toolchain/avr32 gcc/native/3.4.2.1002/avr32-gnu-toolchain/bin/../lib/gcc/avr32/4.4.7/../../../../avr32/lib/ucr3fp\libc.a(lib_a-wsetup.o)
 .debug_ranges  0x0000ee40       0x38 c:/program files (x86)/atmel/atmel toolchain/avr32 gcc/native/3.4.2.1002/avr32-gnu-toolchain/bin/../lib/gcc/avr32/4.4.7/../../../../avr32/lib/ucr3fp\libc.a(lib_a-dtoa.o)
 .debug_ranges  0x0000ee78       0x20 c:/program files (x86)/atmel/atmel toolchain/avr32 gcc/native/3.4.2.1002/avr32-gnu-toolchain/bin/../lib/gcc/avr32/4.4.7/../../../../avr32/lib/ucr3fp\libc.a(lib_a-fflush.o)
 .debug_ranges  0x0000ee98       0xb0 c:/program files (x86)/atmel/atmel toolchain/avr32 gcc/native/3.4.2.1002/avr32-gnu-toolchain/bin/../lib/gcc/avr32/4.4.7/../../../../avr32/lib/ucr3fp\libc.a(lib_a-findfp.o)
 .debug_ranges  0x0000ef48       0x20 c:/program files (x86)/atmel/atmel toolchain/avr32 gcc/native/3.4.2.1002/avr32-gnu-toolchain/bin/../lib/gcc/avr32/4.4.7/../../../../avr32/lib/ucr3fp\libc.a(lib_a-freer.o)
 .debug_ranges  0x0000ef68       0x18 c:/program files (x86)/atmel/atmel toolchain/avr32 gcc/native/3.4.2.1002/avr32-gnu-toolchain/bin/../lib/gcc/avr32/4.4.7/../../../../avr32/lib/ucr3fp\libc.a(lib_a-fvwrite.o)
 .debug_ranges  0x0000ef80       0xa0 c:/program files (x86)/atmel/atmel toolchain/avr32 gcc/native/3.4.2.1002/avr32-gnu-toolchain/bin/../lib/gcc/avr32/4.4.7/../../../../avr32/lib/ucr3fp\libc.a(lib_a-fwalk.o)
 .debug_ranges  0x0000f020       0x38 c:/program files (x86)/atmel/atmel toolchain/avr32 gcc/native/3.4.2.1002/avr32-gnu-toolchain/bin/../lib/gcc/avr32/4.4.7/../../../../avr32/lib/ucr3fp\libc.a(lib_a-locale.o)
 .debug_ranges  0x0000f058       0x18 c:/program files (x86)/atmel/atmel toolchain/avr32 gcc/native/3.4.2.1002/avr32-gnu-toolchain/bin/../lib/gcc/avr32/4.4.7/../../../../avr32/lib/ucr3fp\libc.a(lib_a-makebuf.o)
 .debug_ranges  0x0000f070       0x18 c:/program files (x86)/atmel/atmel toolchain/avr32 gcc/native/3.4.2.1002/avr32-gnu-toolchain/bin/../lib/gcc/avr32/4.4.7/../../../../avr32/lib/ucr3fp\libc.a(lib_a-memchr.o)
 .debug_ranges  0x0000f088       0x18 c:/program files (x86)/atmel/atmel toolchain/avr32 gcc/native/3.4.2.1002/avr32-gnu-toolchain/bin/../lib/gcc/avr32/4.4.7/../../../../avr32/lib/ucr3fp\libc.a(lib_a-memmove.o)
 .debug_ranges  0x0000f0a0      0x120 c:/program files (x86)/atmel/atmel toolchain/avr32 gcc/native/3.4.2.1002/avr32-gnu-toolchain/bin/../lib/gcc/avr32/4.4.7/../../../../avr32/lib/ucr3fp\libc.a(lib_a-mprec.o)
 .debug_ranges  0x0000f1c0       0x30 c:/program files (x86)/atmel/atmel toolchain/avr32 gcc/native/3.4.2.1002/avr32-gnu-toolchain/bin/../lib/gcc/avr32/4.4.7/../../../../avr32/lib/ucr3fp\libc.a(lib_a-reallocr.o)
 .debug_ranges  0x0000f1f0       0x28 c:/program files (x86)/atmel/atmel toolchain/avr32 gcc/native/3.4.2.1002/avr32-gnu-toolchain/bin/../lib/gcc/avr32/4.4.7/../../../../avr32/lib/ucr3fp\libc.a(lib_a-reent.o)
 .debug_ranges  0x0000f218       0x18 c:/program files (x86)/atmel/atmel toolchain/avr32 gcc/native/3.4.2.1002/avr32-gnu-toolchain/bin/../lib/gcc/avr32/4.4.7/../../../../avr32/lib/ucr3fp\libc.a(lib_a-s_isinfd.o)
 .debug_ranges  0x0000f230       0x30 c:/program files (x86)/atmel/atmel toolchain/avr32 gcc/native/3.4.2.1002/avr32-gnu-toolchain/bin/../lib/gcc/avr32/4.4.7/../../../../avr32/lib/ucr3fp\libc.a(lib_a-stdio.o)
 .debug_ranges  0x0000f260       0x18 c:/program files (x86)/atmel/atmel toolchain/avr32 gcc/native/3.4.2.1002/avr32-gnu-toolchain/bin/../lib/gcc/avr32/4.4.7/../../../../avr32/lib/ucr3fp\libc.a(lib_a-writer.o)
 .debug_ranges  0x0000f278       0x18 c:/program files (x86)/atmel/atmel toolchain/avr32 gcc/native/3.4.2.1002/avr32-gnu-toolchain/bin/../lib/gcc/avr32/4.4.7/../../../../avr32/lib/ucr3fp\libc.a(lib_a-callocr.o)
 .debug_ranges  0x0000f290       0x18 c:/program files (x86)/atmel/atmel toolchain/avr32 gcc/native/3.4.2.1002/avr32-gnu-toolchain/bin/../lib/gcc/avr32/4.4.7/../../../../avr32/lib/ucr3fp\libc.a(lib_a-closer.o)
 .debug_ranges  0x0000f2a8       0x20 c:/program files (x86)/atmel/atmel toolchain/avr32 gcc/native/3.4.2.1002/avr32-gnu-toolchain/bin/../lib/gcc/avr32/4.4.7/../../../../avr32/lib/ucr3fp\libc.a(lib_a-fclose.o)
 .debug_ranges  0x0000f2c8       0x18 c:/program files (x86)/atmel/atmel toolchain/avr32 gcc/native/3.4.2.1002/avr32-gnu-toolchain/bin/../lib/gcc/avr32/4.4.7/../../../../avr32/lib/ucr3fp\libc.a(lib_a-fstatr.o)
 .debug_ranges  0x0000f2e0       0x18 c:/program files (x86)/atmel/atmel toolchain/avr32 gcc/native/3.4.2.1002/avr32-gnu-toolchain/bin/../lib/gcc/avr32/4.4.7/../../../../avr32/lib/ucr3fp\libc.a(lib_a-lseekr.o)
 .debug_ranges  0x0000f2f8       0x18 c:/program files (x86)/atmel/atmel toolchain/avr32 gcc/native/3.4.2.1002/avr32-gnu-toolchain/bin/../lib/gcc/avr32/4.4.7/../../../../avr32/lib/ucr3fp\libc.a(lib_a-readr.o)
