Archive member included because of file (symbol)

c:/program files (x86)/atmel/atmel toolchain/avr32 gcc/native/3.4.1067/avr32-gnu-toolchain/bin/../lib/gcc/avr32/4.4.7/../../../../avr32/lib/ucr3fp\libm.a(lib_a-s_cos.o)
                              Library/communication/mavlink_waypoint_handler.o (cos)
c:/program files (x86)/atmel/atmel toolchain/avr32 gcc/native/3.4.1067/avr32-gnu-toolchain/bin/../lib/gcc/avr32/4.4.7/../../../../avr32/lib/ucr3fp\libm.a(lib_a-s_floor.o)
                              Library/communication/data_logging.o (floor)
c:/program files (x86)/atmel/atmel toolchain/avr32 gcc/native/3.4.1067/avr32-gnu-toolchain/bin/../lib/gcc/avr32/4.4.7/../../../../avr32/lib/ucr3fp\libm.a(lib_a-s_sin.o)
                              Library/communication/mavlink_waypoint_handler.o (sin)
c:/program files (x86)/atmel/atmel toolchain/avr32 gcc/native/3.4.1067/avr32-gnu-toolchain/bin/../lib/gcc/avr32/4.4.7/../../../../avr32/lib/ucr3fp\libm.a(lib_a-w_asin.o)
                              Library/util/coord_conventions.o (asin)
c:/program files (x86)/atmel/atmel toolchain/avr32 gcc/native/3.4.1067/avr32-gnu-toolchain/bin/../lib/gcc/avr32/4.4.7/../../../../avr32/lib/ucr3fp\libm.a(lib_a-w_atan2.o)
                              Library/communication/mavlink_waypoint_handler.o (atan2)
c:/program files (x86)/atmel/atmel toolchain/avr32 gcc/native/3.4.1067/avr32-gnu-toolchain/bin/../lib/gcc/avr32/4.4.7/../../../../avr32/lib/ucr3fp\libm.a(lib_a-w_fmod.o)
                              Library/util/quick_trig.o (fmod)
c:/program files (x86)/atmel/atmel toolchain/avr32 gcc/native/3.4.1067/avr32-gnu-toolchain/bin/../lib/gcc/avr32/4.4.7/../../../../avr32/lib/ucr3fp\libm.a(lib_a-w_pow.o)
                              Library/hal/bmp085.o (pow)
c:/program files (x86)/atmel/atmel toolchain/avr32 gcc/native/3.4.1067/avr32-gnu-toolchain/bin/../lib/gcc/avr32/4.4.7/../../../../avr32/lib/ucr3fp\libm.a(lib_a-w_sqrt.o)
                              Library/communication/hud_telemetry.o (sqrt)
c:/program files (x86)/atmel/atmel toolchain/avr32 gcc/native/3.4.1067/avr32-gnu-toolchain/bin/../lib/gcc/avr32/4.4.7/../../../../avr32/lib/ucr3fp\libm.a(lib_a-wf_sqrt.o)
                              Library/util/matrixlib_float.o (sqrtf)
c:/program files (x86)/atmel/atmel toolchain/avr32 gcc/native/3.4.1067/avr32-gnu-toolchain/bin/../lib/gcc/avr32/4.4.7/../../../../avr32/lib/ucr3fp\libm.a(lib_a-e_asin.o)
                              c:/program files (x86)/atmel/atmel toolchain/avr32 gcc/native/3.4.1067/avr32-gnu-toolchain/bin/../lib/gcc/avr32/4.4.7/../../../../avr32/lib/ucr3fp\libm.a(lib_a-w_asin.o) (__ieee754_asin)
c:/program files (x86)/atmel/atmel toolchain/avr32 gcc/native/3.4.1067/avr32-gnu-toolchain/bin/../lib/gcc/avr32/4.4.7/../../../../avr32/lib/ucr3fp\libm.a(lib_a-e_atan2.o)
                              c:/program files (x86)/atmel/atmel toolchain/avr32 gcc/native/3.4.1067/avr32-gnu-toolchain/bin/../lib/gcc/avr32/4.4.7/../../../../avr32/lib/ucr3fp\libm.a(lib_a-w_atan2.o) (__ieee754_atan2)
c:/program files (x86)/atmel/atmel toolchain/avr32 gcc/native/3.4.1067/avr32-gnu-toolchain/bin/../lib/gcc/avr32/4.4.7/../../../../avr32/lib/ucr3fp\libm.a(lib_a-e_fmod.o)
                              c:/program files (x86)/atmel/atmel toolchain/avr32 gcc/native/3.4.1067/avr32-gnu-toolchain/bin/../lib/gcc/avr32/4.4.7/../../../../avr32/lib/ucr3fp\libm.a(lib_a-w_fmod.o) (__ieee754_fmod)
c:/program files (x86)/atmel/atmel toolchain/avr32 gcc/native/3.4.1067/avr32-gnu-toolchain/bin/../lib/gcc/avr32/4.4.7/../../../../avr32/lib/ucr3fp\libm.a(lib_a-e_pow.o)
                              c:/program files (x86)/atmel/atmel toolchain/avr32 gcc/native/3.4.1067/avr32-gnu-toolchain/bin/../lib/gcc/avr32/4.4.7/../../../../avr32/lib/ucr3fp\libm.a(lib_a-w_pow.o) (__ieee754_pow)
c:/program files (x86)/atmel/atmel toolchain/avr32 gcc/native/3.4.1067/avr32-gnu-toolchain/bin/../lib/gcc/avr32/4.4.7/../../../../avr32/lib/ucr3fp\libm.a(lib_a-e_rem_pio2.o)
                              c:/program files (x86)/atmel/atmel toolchain/avr32 gcc/native/3.4.1067/avr32-gnu-toolchain/bin/../lib/gcc/avr32/4.4.7/../../../../avr32/lib/ucr3fp\libm.a(lib_a-s_cos.o) (__ieee754_rem_pio2)
c:/program files (x86)/atmel/atmel toolchain/avr32 gcc/native/3.4.1067/avr32-gnu-toolchain/bin/../lib/gcc/avr32/4.4.7/../../../../avr32/lib/ucr3fp\libm.a(lib_a-e_sqrt.o)
                              c:/program files (x86)/atmel/atmel toolchain/avr32 gcc/native/3.4.1067/avr32-gnu-toolchain/bin/../lib/gcc/avr32/4.4.7/../../../../avr32/lib/ucr3fp\libm.a(lib_a-w_sqrt.o) (__ieee754_sqrt)
c:/program files (x86)/atmel/atmel toolchain/avr32 gcc/native/3.4.1067/avr32-gnu-toolchain/bin/../lib/gcc/avr32/4.4.7/../../../../avr32/lib/ucr3fp\libm.a(lib_a-ef_sqrt.o)
                              c:/program files (x86)/atmel/atmel toolchain/avr32 gcc/native/3.4.1067/avr32-gnu-toolchain/bin/../lib/gcc/avr32/4.4.7/../../../../avr32/lib/ucr3fp\libm.a(lib_a-wf_sqrt.o) (__ieee754_sqrtf)
c:/program files (x86)/atmel/atmel toolchain/avr32 gcc/native/3.4.1067/avr32-gnu-toolchain/bin/../lib/gcc/avr32/4.4.7/../../../../avr32/lib/ucr3fp\libm.a(lib_a-k_cos.o)
                              c:/program files (x86)/atmel/atmel toolchain/avr32 gcc/native/3.4.1067/avr32-gnu-toolchain/bin/../lib/gcc/avr32/4.4.7/../../../../avr32/lib/ucr3fp\libm.a(lib_a-s_cos.o) (__kernel_cos)
c:/program files (x86)/atmel/atmel toolchain/avr32 gcc/native/3.4.1067/avr32-gnu-toolchain/bin/../lib/gcc/avr32/4.4.7/../../../../avr32/lib/ucr3fp\libm.a(lib_a-k_rem_pio2.o)
                              c:/program files (x86)/atmel/atmel toolchain/avr32 gcc/native/3.4.1067/avr32-gnu-toolchain/bin/../lib/gcc/avr32/4.4.7/../../../../avr32/lib/ucr3fp\libm.a(lib_a-e_rem_pio2.o) (__kernel_rem_pio2)
c:/program files (x86)/atmel/atmel toolchain/avr32 gcc/native/3.4.1067/avr32-gnu-toolchain/bin/../lib/gcc/avr32/4.4.7/../../../../avr32/lib/ucr3fp\libm.a(lib_a-k_sin.o)
                              c:/program files (x86)/atmel/atmel toolchain/avr32 gcc/native/3.4.1067/avr32-gnu-toolchain/bin/../lib/gcc/avr32/4.4.7/../../../../avr32/lib/ucr3fp\libm.a(lib_a-s_cos.o) (__kernel_sin)
c:/program files (x86)/atmel/atmel toolchain/avr32 gcc/native/3.4.1067/avr32-gnu-toolchain/bin/../lib/gcc/avr32/4.4.7/../../../../avr32/lib/ucr3fp\libm.a(lib_a-s_atan.o)
                              c:/program files (x86)/atmel/atmel toolchain/avr32 gcc/native/3.4.1067/avr32-gnu-toolchain/bin/../lib/gcc/avr32/4.4.7/../../../../avr32/lib/ucr3fp\libm.a(lib_a-e_atan2.o) (atan)
c:/program files (x86)/atmel/atmel toolchain/avr32 gcc/native/3.4.1067/avr32-gnu-toolchain/bin/../lib/gcc/avr32/4.4.7/../../../../avr32/lib/ucr3fp\libm.a(lib_a-s_fabs.o)
                              c:/program files (x86)/atmel/atmel toolchain/avr32 gcc/native/3.4.1067/avr32-gnu-toolchain/bin/../lib/gcc/avr32/4.4.7/../../../../avr32/lib/ucr3fp\libm.a(lib_a-w_asin.o) (fabs)
c:/program files (x86)/atmel/atmel toolchain/avr32 gcc/native/3.4.1067/avr32-gnu-toolchain/bin/../lib/gcc/avr32/4.4.7/../../../../avr32/lib/ucr3fp\libm.a(lib_a-s_finite.o)
                              c:/program files (x86)/atmel/atmel toolchain/avr32 gcc/native/3.4.1067/avr32-gnu-toolchain/bin/../lib/gcc/avr32/4.4.7/../../../../avr32/lib/ucr3fp\libm.a(lib_a-w_pow.o) (finite)
c:/program files (x86)/atmel/atmel toolchain/avr32 gcc/native/3.4.1067/avr32-gnu-toolchain/bin/../lib/gcc/avr32/4.4.7/../../../../avr32/lib/ucr3fp\libm.a(lib_a-s_isnand.o)
                              c:/program files (x86)/atmel/atmel toolchain/avr32 gcc/native/3.4.1067/avr32-gnu-toolchain/bin/../lib/gcc/avr32/4.4.7/../../../../avr32/lib/ucr3fp\libm.a(lib_a-w_asin.o) (__isnand)
c:/program files (x86)/atmel/atmel toolchain/avr32 gcc/native/3.4.1067/avr32-gnu-toolchain/bin/../lib/gcc/avr32/4.4.7/../../../../avr32/lib/ucr3fp\libm.a(lib_a-s_lib_ver.o)
                              c:/program files (x86)/atmel/atmel toolchain/avr32 gcc/native/3.4.1067/avr32-gnu-toolchain/bin/../lib/gcc/avr32/4.4.7/../../../../avr32/lib/ucr3fp\libm.a(lib_a-w_asin.o) (__fdlib_version)
c:/program files (x86)/atmel/atmel toolchain/avr32 gcc/native/3.4.1067/avr32-gnu-toolchain/bin/../lib/gcc/avr32/4.4.7/../../../../avr32/lib/ucr3fp\libm.a(lib_a-s_matherr.o)
                              c:/program files (x86)/atmel/atmel toolchain/avr32 gcc/native/3.4.1067/avr32-gnu-toolchain/bin/../lib/gcc/avr32/4.4.7/../../../../avr32/lib/ucr3fp\libm.a(lib_a-w_asin.o) (matherr)
c:/program files (x86)/atmel/atmel toolchain/avr32 gcc/native/3.4.1067/avr32-gnu-toolchain/bin/../lib/gcc/avr32/4.4.7/../../../../avr32/lib/ucr3fp\libm.a(lib_a-s_nan.o)
                              c:/program files (x86)/atmel/atmel toolchain/avr32 gcc/native/3.4.1067/avr32-gnu-toolchain/bin/../lib/gcc/avr32/4.4.7/../../../../avr32/lib/ucr3fp\libm.a(lib_a-w_asin.o) (nan)
c:/program files (x86)/atmel/atmel toolchain/avr32 gcc/native/3.4.1067/avr32-gnu-toolchain/bin/../lib/gcc/avr32/4.4.7/../../../../avr32/lib/ucr3fp\libm.a(lib_a-s_rint.o)
                              c:/program files (x86)/atmel/atmel toolchain/avr32 gcc/native/3.4.1067/avr32-gnu-toolchain/bin/../lib/gcc/avr32/4.4.7/../../../../avr32/lib/ucr3fp\libm.a(lib_a-w_pow.o) (rint)
c:/program files (x86)/atmel/atmel toolchain/avr32 gcc/native/3.4.1067/avr32-gnu-toolchain/bin/../lib/gcc/avr32/4.4.7/../../../../avr32/lib/ucr3fp\libm.a(lib_a-s_scalbn.o)
                              c:/program files (x86)/atmel/atmel toolchain/avr32 gcc/native/3.4.1067/avr32-gnu-toolchain/bin/../lib/gcc/avr32/4.4.7/../../../../avr32/lib/ucr3fp\libm.a(lib_a-e_pow.o) (scalbn)
c:/program files (x86)/atmel/atmel toolchain/avr32 gcc/native/3.4.1067/avr32-gnu-toolchain/bin/../lib/gcc/avr32/4.4.7/../../../../avr32/lib/ucr3fp\libm.a(lib_a-sf_isnan.o)
                              c:/program files (x86)/atmel/atmel toolchain/avr32 gcc/native/3.4.1067/avr32-gnu-toolchain/bin/../lib/gcc/avr32/4.4.7/../../../../avr32/lib/ucr3fp\libm.a(lib_a-wf_sqrt.o) (isnanf)
c:/program files (x86)/atmel/atmel toolchain/avr32 gcc/native/3.4.1067/avr32-gnu-toolchain/bin/../lib/gcc/avr32/4.4.7/../../../../avr32/lib/ucr3fp\libm.a(lib_a-s_copysign.o)
                              c:/program files (x86)/atmel/atmel toolchain/avr32 gcc/native/3.4.1067/avr32-gnu-toolchain/bin/../lib/gcc/avr32/4.4.7/../../../../avr32/lib/ucr3fp\libm.a(lib_a-s_scalbn.o) (copysign)
c:/program files (x86)/atmel/atmel toolchain/avr32 gcc/native/3.4.1067/avr32-gnu-toolchain/bin/../lib/gcc/avr32/4.4.7/ucr3fp\libgcc.a(_avr32_f64_mul.o)
                              Library/communication/data_logging.o (__avr32_f64_mul)
c:/program files (x86)/atmel/atmel toolchain/avr32 gcc/native/3.4.1067/avr32-gnu-toolchain/bin/../lib/gcc/avr32/4.4.7/ucr3fp\libgcc.a(_avr32_f64_addsub.o)
                              Library/communication/data_logging.o (__avr32_f64_sub)
c:/program files (x86)/atmel/atmel toolchain/avr32 gcc/native/3.4.1067/avr32-gnu-toolchain/bin/../lib/gcc/avr32/4.4.7/ucr3fp\libgcc.a(_avr32_f64_to_s32.o)
                              Library/hal/fat_fs/diskio.o (__avr32_f64_to_u32)
c:/program files (x86)/atmel/atmel toolchain/avr32 gcc/native/3.4.1067/avr32-gnu-toolchain/bin/../lib/gcc/avr32/4.4.7/ucr3fp\libgcc.a(_avr32_f64_to_s64.o)
                              Library/communication/data_logging.o (__avr32_f64_to_s64)
c:/program files (x86)/atmel/atmel toolchain/avr32 gcc/native/3.4.1067/avr32-gnu-toolchain/bin/../lib/gcc/avr32/4.4.7/ucr3fp\libgcc.a(_avr32_s32_to_f64.o)
                              Library/hal/time_keeper.o (__avr32_u32_to_f64)
c:/program files (x86)/atmel/atmel toolchain/avr32 gcc/native/3.4.1067/avr32-gnu-toolchain/bin/../lib/gcc/avr32/4.4.7/ucr3fp\libgcc.a(_avr32_f64_cmp_eq.o)
                              c:/program files (x86)/atmel/atmel toolchain/avr32 gcc/native/3.4.1067/avr32-gnu-toolchain/bin/../lib/gcc/avr32/4.4.7/../../../../avr32/lib/ucr3fp\libm.a(lib_a-w_fmod.o) (__avr32_f64_cmp_eq)
c:/program files (x86)/atmel/atmel toolchain/avr32 gcc/native/3.4.1067/avr32-gnu-toolchain/bin/../lib/gcc/avr32/4.4.7/ucr3fp\libgcc.a(_avr32_f64_cmp_ge.o)
                              c:/program files (x86)/atmel/atmel toolchain/avr32 gcc/native/3.4.1067/avr32-gnu-toolchain/bin/../lib/gcc/avr32/4.4.7/../../../../avr32/lib/ucr3fp\libm.a(lib_a-e_pow.o) (__avr32_f64_cmp_ge)
c:/program files (x86)/atmel/atmel toolchain/avr32 gcc/native/3.4.1067/avr32-gnu-toolchain/bin/../lib/gcc/avr32/4.4.7/ucr3fp\libgcc.a(_avr32_f64_cmp_lt.o)
                              Library/communication/data_logging.o (__avr32_f64_cmp_lt)
c:/program files (x86)/atmel/atmel toolchain/avr32 gcc/native/3.4.1067/avr32-gnu-toolchain/bin/../lib/gcc/avr32/4.4.7/ucr3fp\libgcc.a(_avr32_f32_cmp_lt.o)
                              c:/program files (x86)/atmel/atmel toolchain/avr32 gcc/native/3.4.1067/avr32-gnu-toolchain/bin/../lib/gcc/avr32/4.4.7/../../../../avr32/lib/ucr3fp\libm.a(lib_a-wf_sqrt.o) (__avr32_f32_cmp_lt)
c:/program files (x86)/atmel/atmel toolchain/avr32 gcc/native/3.4.1067/avr32-gnu-toolchain/bin/../lib/gcc/avr32/4.4.7/ucr3fp\libgcc.a(_avr32_f64_div.o)
                              Library/communication/mavlink_waypoint_handler.o (__avr32_f64_div)
c:/program files (x86)/atmel/atmel toolchain/avr32 gcc/native/3.4.1067/avr32-gnu-toolchain/bin/../lib/gcc/avr32/4.4.7/ucr3fp\libgcc.a(_avr32_f32_div.o)
                              Library/communication/hud_telemetry.o (__avr32_f32_div)
c:/program files (x86)/atmel/atmel toolchain/avr32 gcc/native/3.4.1067/avr32-gnu-toolchain/bin/../lib/gcc/avr32/4.4.7/ucr3fp\libgcc.a(_avr32_f32_addsub.o)
                              c:/program files (x86)/atmel/atmel toolchain/avr32 gcc/native/3.4.1067/avr32-gnu-toolchain/bin/../lib/gcc/avr32/4.4.7/../../../../avr32/lib/ucr3fp\libm.a(lib_a-ef_sqrt.o) (__avr32_f32_sub)
c:/program files (x86)/atmel/atmel toolchain/avr32 gcc/native/3.4.1067/avr32-gnu-toolchain/bin/../lib/gcc/avr32/4.4.7/ucr3fp\libgcc.a(_avr32_f32_mul.o)
                              c:/program files (x86)/atmel/atmel toolchain/avr32 gcc/native/3.4.1067/avr32-gnu-toolchain/bin/../lib/gcc/avr32/4.4.7/../../../../avr32/lib/ucr3fp\libm.a(lib_a-ef_sqrt.o) (__avr32_f32_mul)
c:/program files (x86)/atmel/atmel toolchain/avr32 gcc/native/3.4.1067/avr32-gnu-toolchain/bin/../lib/gcc/avr32/4.4.7/ucr3fp\libgcc.a(_avr32_f32_to_f64.o)
                              Library/communication/hud_telemetry.o (__avr32_f32_to_f64)
c:/program files (x86)/atmel/atmel toolchain/avr32 gcc/native/3.4.1067/avr32-gnu-toolchain/bin/../lib/gcc/avr32/4.4.7/ucr3fp\libgcc.a(_avr32_f64_to_f32.o)
                              Library/communication/hud_telemetry.o (__avr32_f64_to_f32)
c:/program files (x86)/atmel/atmel toolchain/avr32 gcc/native/3.4.1067/avr32-gnu-toolchain/bin/../lib/gcc/avr32/4.4.7/ucr3fp\libgcc.a(_floatdidf.o)
                              Library/communication/data_logging.o (__avr32_s64_to_f64)
c:/program files (x86)/atmel/atmel toolchain/avr32 gcc/native/3.4.1067/avr32-gnu-toolchain/bin/../lib/gcc/avr32/4.4.7/ucr3fp\libgcc.a(_divdi3.o)
                              Library/util/print_util.o (__avr32_sdiv64)
c:/program files (x86)/atmel/atmel toolchain/avr32 gcc/native/3.4.1067/avr32-gnu-toolchain/bin/../lib/gcc/avr32/4.4.7/ucr3fp\libgcc.a(_moddi3.o)
                              Library/util/print_util.o (__avr32_smod64)
c:/program files (x86)/atmel/atmel toolchain/avr32 gcc/native/3.4.1067/avr32-gnu-toolchain/bin/../lib/gcc/avr32/4.4.7/ucr3fp\libgcc.a(_udivdi3.o)
                              Library/communication/data_logging.o (__avr32_udiv64)
c:/program files (x86)/atmel/atmel toolchain/avr32 gcc/native/3.4.1067/avr32-gnu-toolchain/bin/../lib/gcc/avr32/4.4.7/ucr3fp\libgcc.a(_umoddi3.o)
                              Library/communication/data_logging.o (__avr32_umod64)
c:/program files (x86)/atmel/atmel toolchain/avr32 gcc/native/3.4.1067/avr32-gnu-toolchain/bin/../lib/gcc/avr32/4.4.7/../../../../avr32/lib/ucr3fp\libc.a(lib_a-errno.o)
                              c:/program files (x86)/atmel/atmel toolchain/avr32 gcc/native/3.4.1067/avr32-gnu-toolchain/bin/../lib/gcc/avr32/4.4.7/../../../../avr32/lib/ucr3fp\libm.a(lib_a-w_asin.o) (__errno)
c:/program files (x86)/atmel/atmel toolchain/avr32 gcc/native/3.4.1067/avr32-gnu-toolchain/bin/../lib/gcc/avr32/4.4.7/../../../../avr32/lib/ucr3fp\libc.a(lib_a-impure.o)
                              c:/program files (x86)/atmel/atmel toolchain/avr32 gcc/native/3.4.1067/avr32-gnu-toolchain/bin/../lib/gcc/avr32/4.4.7/../../../../avr32/lib/ucr3fp\libc.a(lib_a-errno.o) (_impure_ptr)
c:/program files (x86)/atmel/atmel toolchain/avr32 gcc/native/3.4.1067/avr32-gnu-toolchain/bin/../lib/gcc/avr32/4.4.7/../../../../avr32/lib/ucr3fp\libc.a(lib_a-malloc.o)
                              Library/hal/fat_fs/option/syscall.o (free)
c:/program files (x86)/atmel/atmel toolchain/avr32 gcc/native/3.4.1067/avr32-gnu-toolchain/bin/../lib/gcc/avr32/4.4.7/../../../../avr32/lib/ucr3fp\libc.a(lib_a-mallocr.o)
                              c:/program files (x86)/atmel/atmel toolchain/avr32 gcc/native/3.4.1067/avr32-gnu-toolchain/bin/../lib/gcc/avr32/4.4.7/../../../../avr32/lib/ucr3fp\libc.a(lib_a-malloc.o) (_malloc_r)
c:/program files (x86)/atmel/atmel toolchain/avr32 gcc/native/3.4.1067/avr32-gnu-toolchain/bin/../lib/gcc/avr32/4.4.7/../../../../avr32/lib/ucr3fp\libc.a(lib_a-memcpy.o)
                              Library/control/stabilisation_copter.o (memcpy)
c:/program files (x86)/atmel/atmel toolchain/avr32 gcc/native/3.4.1067/avr32-gnu-toolchain/bin/../lib/gcc/avr32/4.4.7/../../../../avr32/lib/ucr3fp\libc.a(lib_a-memset.o)
                              Library/communication/console.o (memset)
c:/program files (x86)/atmel/atmel toolchain/avr32 gcc/native/3.4.1067/avr32-gnu-toolchain/bin/../lib/gcc/avr32/4.4.7/../../../../avr32/lib/ucr3fp\libc.a(lib_a-mlock.o)
                              c:/program files (x86)/atmel/atmel toolchain/avr32 gcc/native/3.4.1067/avr32-gnu-toolchain/bin/../lib/gcc/avr32/4.4.7/../../../../avr32/lib/ucr3fp\libc.a(lib_a-mallocr.o) (__malloc_lock)
c:/program files (x86)/atmel/atmel toolchain/avr32 gcc/native/3.4.1067/avr32-gnu-toolchain/bin/../lib/gcc/avr32/4.4.7/../../../../avr32/lib/ucr3fp\libc.a(lib_a-rand.o)
                              Library/communication/mavlink_waypoint_handler.o (rand)
c:/program files (x86)/atmel/atmel toolchain/avr32 gcc/native/3.4.1067/avr32-gnu-toolchain/bin/../lib/gcc/avr32/4.4.7/../../../../avr32/lib/ucr3fp\libc.a(lib_a-sbrkr.o)
                              c:/program files (x86)/atmel/atmel toolchain/avr32 gcc/native/3.4.1067/avr32-gnu-toolchain/bin/../lib/gcc/avr32/4.4.7/../../../../avr32/lib/ucr3fp\libc.a(lib_a-mallocr.o) (_sbrk_r)
c:/program files (x86)/atmel/atmel toolchain/avr32 gcc/native/3.4.1067/avr32-gnu-toolchain/bin/../lib/gcc/avr32/4.4.7/../../../../avr32/lib/ucr3fp\libc.a(lib_a-snprintf.o)
                              Library/communication/data_logging.o (snprintf)
c:/program files (x86)/atmel/atmel toolchain/avr32 gcc/native/3.4.1067/avr32-gnu-toolchain/bin/../lib/gcc/avr32/4.4.7/../../../../avr32/lib/ucr3fp\libc.a(lib_a-strcpy.o)
                              Library/communication/data_logging.o (strcpy)
c:/program files (x86)/atmel/atmel toolchain/avr32 gcc/native/3.4.1067/avr32-gnu-toolchain/bin/../lib/gcc/avr32/4.4.7/../../../../avr32/lib/ucr3fp\libc.a(lib_a-strlen.o)
                              Library/communication/onboard_parameters.o (strlen)
c:/program files (x86)/atmel/atmel toolchain/avr32 gcc/native/3.4.1067/avr32-gnu-toolchain/bin/../lib/gcc/avr32/4.4.7/../../../../avr32/lib/ucr3fp\libc.a(lib_a-syscalls.o)
                              c:/program files (x86)/atmel/atmel toolchain/avr32 gcc/native/3.4.1067/avr32-gnu-toolchain/bin/../lib/gcc/avr32/4.4.7/../../../../avr32/lib/ucr3fp\libc.a(lib_a-sbrkr.o) (_sbrk)
c:/program files (x86)/atmel/atmel toolchain/avr32 gcc/native/3.4.1067/avr32-gnu-toolchain/bin/../lib/gcc/avr32/4.4.7/../../../../avr32/lib/ucr3fp\libc.a(lib_a-vfprintf.o)
                              c:/program files (x86)/atmel/atmel toolchain/avr32 gcc/native/3.4.1067/avr32-gnu-toolchain/bin/../lib/gcc/avr32/4.4.7/../../../../avr32/lib/ucr3fp\libc.a(lib_a-snprintf.o) (_vfprintf_r)
c:/program files (x86)/atmel/atmel toolchain/avr32 gcc/native/3.4.1067/avr32-gnu-toolchain/bin/../lib/gcc/avr32/4.4.7/../../../../avr32/lib/ucr3fp\libc.a(lib_a-wsetup.o)
                              c:/program files (x86)/atmel/atmel toolchain/avr32 gcc/native/3.4.1067/avr32-gnu-toolchain/bin/../lib/gcc/avr32/4.4.7/../../../../avr32/lib/ucr3fp\libc.a(lib_a-vfprintf.o) (__swsetup_r)
c:/program files (x86)/atmel/atmel toolchain/avr32 gcc/native/3.4.1067/avr32-gnu-toolchain/bin/../lib/gcc/avr32/4.4.7/../../../../avr32/lib/ucr3fp\libc.a(lib_a-dtoa.o)
                              c:/program files (x86)/atmel/atmel toolchain/avr32 gcc/native/3.4.1067/avr32-gnu-toolchain/bin/../lib/gcc/avr32/4.4.7/../../../../avr32/lib/ucr3fp\libc.a(lib_a-vfprintf.o) (_dtoa_r)
c:/program files (x86)/atmel/atmel toolchain/avr32 gcc/native/3.4.1067/avr32-gnu-toolchain/bin/../lib/gcc/avr32/4.4.7/../../../../avr32/lib/ucr3fp\libc.a(lib_a-fflush.o)
                              c:/program files (x86)/atmel/atmel toolchain/avr32 gcc/native/3.4.1067/avr32-gnu-toolchain/bin/../lib/gcc/avr32/4.4.7/../../../../avr32/lib/ucr3fp\libc.a(lib_a-vfprintf.o) (_fflush_r)
c:/program files (x86)/atmel/atmel toolchain/avr32 gcc/native/3.4.1067/avr32-gnu-toolchain/bin/../lib/gcc/avr32/4.4.7/../../../../avr32/lib/ucr3fp\libc.a(lib_a-findfp.o)
                              c:/program files (x86)/atmel/atmel toolchain/avr32 gcc/native/3.4.1067/avr32-gnu-toolchain/bin/../lib/gcc/avr32/4.4.7/../../../../avr32/lib/ucr3fp\libc.a(lib_a-vfprintf.o) (__sinit)
c:/program files (x86)/atmel/atmel toolchain/avr32 gcc/native/3.4.1067/avr32-gnu-toolchain/bin/../lib/gcc/avr32/4.4.7/../../../../avr32/lib/ucr3fp\libc.a(lib_a-freer.o)
                              c:/program files (x86)/atmel/atmel toolchain/avr32 gcc/native/3.4.1067/avr32-gnu-toolchain/bin/../lib/gcc/avr32/4.4.7/../../../../avr32/lib/ucr3fp\libc.a(lib_a-malloc.o) (_free_r)
c:/program files (x86)/atmel/atmel toolchain/avr32 gcc/native/3.4.1067/avr32-gnu-toolchain/bin/../lib/gcc/avr32/4.4.7/../../../../avr32/lib/ucr3fp\libc.a(lib_a-fvwrite.o)
                              c:/program files (x86)/atmel/atmel toolchain/avr32 gcc/native/3.4.1067/avr32-gnu-toolchain/bin/../lib/gcc/avr32/4.4.7/../../../../avr32/lib/ucr3fp\libc.a(lib_a-vfprintf.o) (__sfvwrite_r)
c:/program files (x86)/atmel/atmel toolchain/avr32 gcc/native/3.4.1067/avr32-gnu-toolchain/bin/../lib/gcc/avr32/4.4.7/../../../../avr32/lib/ucr3fp\libc.a(lib_a-fwalk.o)
                              c:/program files (x86)/atmel/atmel toolchain/avr32 gcc/native/3.4.1067/avr32-gnu-toolchain/bin/../lib/gcc/avr32/4.4.7/../../../../avr32/lib/ucr3fp\libc.a(lib_a-fflush.o) (_fwalk_reent)
c:/program files (x86)/atmel/atmel toolchain/avr32 gcc/native/3.4.1067/avr32-gnu-toolchain/bin/../lib/gcc/avr32/4.4.7/../../../../avr32/lib/ucr3fp\libc.a(lib_a-locale.o)
                              c:/program files (x86)/atmel/atmel toolchain/avr32 gcc/native/3.4.1067/avr32-gnu-toolchain/bin/../lib/gcc/avr32/4.4.7/../../../../avr32/lib/ucr3fp\libc.a(lib_a-vfprintf.o) (_localeconv_r)
c:/program files (x86)/atmel/atmel toolchain/avr32 gcc/native/3.4.1067/avr32-gnu-toolchain/bin/../lib/gcc/avr32/4.4.7/../../../../avr32/lib/ucr3fp\libc.a(lib_a-makebuf.o)
                              c:/program files (x86)/atmel/atmel toolchain/avr32 gcc/native/3.4.1067/avr32-gnu-toolchain/bin/../lib/gcc/avr32/4.4.7/../../../../avr32/lib/ucr3fp\libc.a(lib_a-wsetup.o) (__smakebuf_r)
c:/program files (x86)/atmel/atmel toolchain/avr32 gcc/native/3.4.1067/avr32-gnu-toolchain/bin/../lib/gcc/avr32/4.4.7/../../../../avr32/lib/ucr3fp\libc.a(lib_a-memchr.o)
                              c:/program files (x86)/atmel/atmel toolchain/avr32 gcc/native/3.4.1067/avr32-gnu-toolchain/bin/../lib/gcc/avr32/4.4.7/../../../../avr32/lib/ucr3fp\libc.a(lib_a-vfprintf.o) (memchr)
c:/program files (x86)/atmel/atmel toolchain/avr32 gcc/native/3.4.1067/avr32-gnu-toolchain/bin/../lib/gcc/avr32/4.4.7/../../../../avr32/lib/ucr3fp\libc.a(lib_a-memmove.o)
                              c:/program files (x86)/atmel/atmel toolchain/avr32 gcc/native/3.4.1067/avr32-gnu-toolchain/bin/../lib/gcc/avr32/4.4.7/../../../../avr32/lib/ucr3fp\libc.a(lib_a-fvwrite.o) (memmove)
c:/program files (x86)/atmel/atmel toolchain/avr32 gcc/native/3.4.1067/avr32-gnu-toolchain/bin/../lib/gcc/avr32/4.4.7/../../../../avr32/lib/ucr3fp\libc.a(lib_a-mprec.o)
                              c:/program files (x86)/atmel/atmel toolchain/avr32 gcc/native/3.4.1067/avr32-gnu-toolchain/bin/../lib/gcc/avr32/4.4.7/../../../../avr32/lib/ucr3fp\libc.a(lib_a-dtoa.o) (__hi0bits)
c:/program files (x86)/atmel/atmel toolchain/avr32 gcc/native/3.4.1067/avr32-gnu-toolchain/bin/../lib/gcc/avr32/4.4.7/../../../../avr32/lib/ucr3fp\libc.a(lib_a-reallocr.o)
                              c:/program files (x86)/atmel/atmel toolchain/avr32 gcc/native/3.4.1067/avr32-gnu-toolchain/bin/../lib/gcc/avr32/4.4.7/../../../../avr32/lib/ucr3fp\libc.a(lib_a-fvwrite.o) (_realloc_r)
c:/program files (x86)/atmel/atmel toolchain/avr32 gcc/native/3.4.1067/avr32-gnu-toolchain/bin/../lib/gcc/avr32/4.4.7/../../../../avr32/lib/ucr3fp\libc.a(lib_a-reent.o)
                              c:/program files (x86)/atmel/atmel toolchain/avr32 gcc/native/3.4.1067/avr32-gnu-toolchain/bin/../lib/gcc/avr32/4.4.7/../../../../avr32/lib/ucr3fp\libc.a(lib_a-sbrkr.o) (errno)
c:/program files (x86)/atmel/atmel toolchain/avr32 gcc/native/3.4.1067/avr32-gnu-toolchain/bin/../lib/gcc/avr32/4.4.7/../../../../avr32/lib/ucr3fp\libc.a(lib_a-s_isinfd.o)
                              c:/program files (x86)/atmel/atmel toolchain/avr32 gcc/native/3.4.1067/avr32-gnu-toolchain/bin/../lib/gcc/avr32/4.4.7/../../../../avr32/lib/ucr3fp\libc.a(lib_a-vfprintf.o) (__isinfd)
c:/program files (x86)/atmel/atmel toolchain/avr32 gcc/native/3.4.1067/avr32-gnu-toolchain/bin/../lib/gcc/avr32/4.4.7/../../../../avr32/lib/ucr3fp\libc.a(lib_a-stdio.o)
                              c:/program files (x86)/atmel/atmel toolchain/avr32 gcc/native/3.4.1067/avr32-gnu-toolchain/bin/../lib/gcc/avr32/4.4.7/../../../../avr32/lib/ucr3fp\libc.a(lib_a-findfp.o) (__sclose)
c:/program files (x86)/atmel/atmel toolchain/avr32 gcc/native/3.4.1067/avr32-gnu-toolchain/bin/../lib/gcc/avr32/4.4.7/../../../../avr32/lib/ucr3fp\libc.a(lib_a-strcmp.o)
                              c:/program files (x86)/atmel/atmel toolchain/avr32 gcc/native/3.4.1067/avr32-gnu-toolchain/bin/../lib/gcc/avr32/4.4.7/../../../../avr32/lib/ucr3fp\libc.a(lib_a-locale.o) (strcmp)
c:/program files (x86)/atmel/atmel toolchain/avr32 gcc/native/3.4.1067/avr32-gnu-toolchain/bin/../lib/gcc/avr32/4.4.7/../../../../avr32/lib/ucr3fp\libc.a(lib_a-writer.o)
                              c:/program files (x86)/atmel/atmel toolchain/avr32 gcc/native/3.4.1067/avr32-gnu-toolchain/bin/../lib/gcc/avr32/4.4.7/../../../../avr32/lib/ucr3fp\libc.a(lib_a-stdio.o) (_write_r)
c:/program files (x86)/atmel/atmel toolchain/avr32 gcc/native/3.4.1067/avr32-gnu-toolchain/bin/../lib/gcc/avr32/4.4.7/../../../../avr32/lib/ucr3fp\libc.a(lib_a-callocr.o)
                              c:/program files (x86)/atmel/atmel toolchain/avr32 gcc/native/3.4.1067/avr32-gnu-toolchain/bin/../lib/gcc/avr32/4.4.7/../../../../avr32/lib/ucr3fp\libc.a(lib_a-mprec.o) (_calloc_r)
c:/program files (x86)/atmel/atmel toolchain/avr32 gcc/native/3.4.1067/avr32-gnu-toolchain/bin/../lib/gcc/avr32/4.4.7/../../../../avr32/lib/ucr3fp\libc.a(lib_a-closer.o)
                              c:/program files (x86)/atmel/atmel toolchain/avr32 gcc/native/3.4.1067/avr32-gnu-toolchain/bin/../lib/gcc/avr32/4.4.7/../../../../avr32/lib/ucr3fp\libc.a(lib_a-stdio.o) (_close_r)
c:/program files (x86)/atmel/atmel toolchain/avr32 gcc/native/3.4.1067/avr32-gnu-toolchain/bin/../lib/gcc/avr32/4.4.7/../../../../avr32/lib/ucr3fp\libc.a(lib_a-fclose.o)
                              c:/program files (x86)/atmel/atmel toolchain/avr32 gcc/native/3.4.1067/avr32-gnu-toolchain/bin/../lib/gcc/avr32/4.4.7/../../../../avr32/lib/ucr3fp\libc.a(lib_a-findfp.o) (fclose)
c:/program files (x86)/atmel/atmel toolchain/avr32 gcc/native/3.4.1067/avr32-gnu-toolchain/bin/../lib/gcc/avr32/4.4.7/../../../../avr32/lib/ucr3fp\libc.a(lib_a-fstatr.o)
                              c:/program files (x86)/atmel/atmel toolchain/avr32 gcc/native/3.4.1067/avr32-gnu-toolchain/bin/../lib/gcc/avr32/4.4.7/../../../../avr32/lib/ucr3fp\libc.a(lib_a-makebuf.o) (_fstat_r)
c:/program files (x86)/atmel/atmel toolchain/avr32 gcc/native/3.4.1067/avr32-gnu-toolchain/bin/../lib/gcc/avr32/4.4.7/../../../../avr32/lib/ucr3fp\libc.a(lib_a-lseekr.o)
                              c:/program files (x86)/atmel/atmel toolchain/avr32 gcc/native/3.4.1067/avr32-gnu-toolchain/bin/../lib/gcc/avr32/4.4.7/../../../../avr32/lib/ucr3fp\libc.a(lib_a-stdio.o) (_lseek_r)
c:/program files (x86)/atmel/atmel toolchain/avr32 gcc/native/3.4.1067/avr32-gnu-toolchain/bin/../lib/gcc/avr32/4.4.7/../../../../avr32/lib/ucr3fp\libc.a(lib_a-readr.o)
                              c:/program files (x86)/atmel/atmel toolchain/avr32 gcc/native/3.4.1067/avr32-gnu-toolchain/bin/../lib/gcc/avr32/4.4.7/../../../../avr32/lib/ucr3fp\libc.a(lib_a-stdio.o) (_read_r)

Allocating common symbols
Common symbol       size              file

adci_buffer         0x40              Library/hal/adc_int.o
ubx_cfg_rate_message
                    0xc               Library/hal/gps_ublox.o
console_out_stream  0x18              Library/communication/console.o
deb_stream          0x4               Library/util/print_util.o
udd_ep_out_cache_buffer
                    0xc0              src/asf/avr32/drivers/usbc/usbc_device.o
b2                  0x2               Library/hal/bmp085.o
ram_buffer2         0x3e8             Library/hal/sd_spi.o
errno               0x4               c:/program files (x86)/atmel/atmel toolchain/avr32 gcc/native/3.4.1067/avr32-gnu-toolchain/bin/../lib/gcc/avr32/4.4.7/../../../../avr32/lib/ucr3fp\libc.a(lib_a-reent.o)
mb                  0x2               Library/hal/bmp085.o
ubx_solution_message
                    0x68              Library/hal/gps_ublox.o
console_in_buffer   0x103             Library/communication/console.o
continuous_mode     0x1               Library/hal/adc_int.o
ac1                 0x2               Library/hal/bmp085.o
current_transfer    0x4               Library/hal/i2c_driver_int.o
b1                  0x2               Library/hal/bmp085.o
ac6                 0x2               Library/hal/bmp085.o
eic_options         0x6               Library/hal/ads1274.o
end_of_transfer     0x1               Library/hal/sd_spi.o
ptr_get             0x4               src/asf/common/utils/stdio/read.o
ac5                 0x2               Library/hal/bmp085.o
xbee_in_buffer      0x103             Library/hal/xbee.o
ac2                 0x2               Library/hal/bmp085.o
ubx_tim_vrfy_message
                    0x28              Library/hal/gps_ublox.o
sd_spi              0x2c              Library/hal/sd_spi.o
ptr_put             0x4               src/asf/common/utils/stdio/write.o
even_odd            0x1               Library/hal/adc_int.o
ubx_vel_ned_message
                    0x48              Library/hal/gps_ublox.o
md                  0x2               Library/hal/bmp085.o
adcifa_sequencer0_conversion_opt
                    0x18              Library/hal/adc_int.o
sat                 0x134             Library/hal/spektrum_satellite.o
current_slot        0x4               Library/hal/i2c_driver_int.o
ac4                 0x2               Library/hal/bmp085.o
pdca_channeltx      0x4               Library/hal/sd_spi.o
pdca_channelrx      0x4               Library/hal/sd_spi.o
ram_buffer          0x3e8             Library/hal/sd_spi.o
mc                  0x2               Library/hal/bmp085.o
channel_center      0x20              Library/hal/spektrum_satellite.o
console_in_stream   0x18              Library/communication/console.o
xbee_in_stream      0x18              Library/hal/xbee.o
udd_g_ctrlreq       0x18              src/asf/avr32/drivers/usbc/usbc_device.o
ubx_mon_rxr_message
                    0x2               Library/hal/gps_ublox.o
stdio_base          0x4               src/asf/common/utils/stdio/write.o
sleepmgr_locks      0x7               src/asf/common/services/sleepmgr/uc3/sleepmgr.o
ubx_nav_settings_message
                    0x48              Library/hal/gps_ublox.o
gcfg                0x4               Library/hal/ads1274.o
ubx_sv_info_message
                    0x190             Library/hal/gps_ublox.o
use_servos_7_8      0x1               Library/hal/pwm_servos.o
xbee_out_stream     0x18              Library/hal/xbee.o
ubx_pos_llh_message
                    0x38              Library/hal/gps_ublox.o
ubx_tim_tp_message  0x20              Library/hal/gps_ublox.o
simu_track_table    0x166c            src/simu_gps_track.o
udd_ctrl_buffer     0x40              src/asf/avr32/drivers/usbc/usbc_device.o
last_slot           0x4               Library/hal/i2c_driver_int.o
ubx_cfg_set_get_rate_message
                    0x6               Library/hal/gps_ublox.o
ubx_status_message  0x20              Library/hal/gps_ublox.o
ac3                 0x2               Library/hal/bmp085.o
blocking            0x1               Library/util/print_util.o
transfer_queue      0x118             Library/hal/i2c_driver_int.o
actual_status       0x1               Library/hal/fat_fs/diskio.o

Memory Configuration

Name             Origin             Length             Attributes
FLASH            0x80000000         0x00080000         axrl !w
CPUSRAM          0x00000004         0x0000fffc         axw !rl
USERPAGE         0x80800000         0x00000200
FACTORYPAGE      0x80800200         0x00000200
FLASHVAULT_FLASH_SIZE 0x80800400         0x00000008         r
FLASHVAULT_RAM_SIZE 0x80800408         0x00000008         r
*default*        0x00000000         0xffffffff

Linker script and memory map

                0x00001000                _stack_size = 0x1000
LOAD Library/communication/console.o
LOAD Library/communication/data_logging.o
LOAD Library/communication/data_logging_telemetry.o
LOAD Library/communication/hud_telemetry.o
LOAD Library/communication/mavlink_communication.o
LOAD Library/communication/mavlink_message_handler.o
LOAD Library/communication/mavlink_waypoint_handler.o
LOAD Library/communication/neighbor_selection.o
LOAD Library/communication/remote.o
LOAD Library/communication/remote_telemetry.o
LOAD Library/communication/state.o
LOAD Library/communication/state_machine.o
LOAD Library/communication/state_telemetry.o
LOAD Library/control/joystick_parsing.o
LOAD Library/control/joystick_parsing_telemetry.o
LOAD Library/control/kalman_predictor.o
LOAD Library/control/pid_control.o
LOAD Library/control/servos_mix_quadcopter_cross.o
LOAD Library/control/servos_mix_quadcopter_diag.o
LOAD Library/control/stabilisation_copter.o
LOAD Library/control/stabilisation_telemetry.o
LOAD Library/control/track_following.o
LOAD Library/hal/analog_monitor_telemetry.o
LOAD Library/hal/analog_monitor.o
LOAD Library/hal/bmp085_telemetry.o
LOAD Library/hal/fat_fs/diskio.o
LOAD Library/hal/fat_fs/ff.o
LOAD Library/hal/fat_fs/option/ccsbcs.o
LOAD Library/hal/fat_fs/option/syscall.o
LOAD Library/hal/fat_fs/option/unicode.o
LOAD Library/hal/gps_ublox.o
LOAD Library/hal/gps_ublox_telemetry.o
LOAD Library/hal/hmc5883l.o
LOAD Library/hal/i2c_driver_int.o
LOAD Library/hal/lsm330dlc.o
LOAD Library/hal/piezo_speaker.o
LOAD Library/hal/pwm_servos.o
LOAD Library/hal/sd_spi.o
LOAD Library/hal/servos.o
LOAD Library/hal/servos_telemetry.o
LOAD Library/hal/spektrum_satellite.o
LOAD Library/hal/time_keeper.o
LOAD Library/hal/usb_int.o
LOAD Library/hal/xbee.o
LOAD Library/runtime/scheduler_telemetry.o
LOAD Library/sensing/ahrs.o
LOAD Library/sensing/ahrs_telemetry.o
LOAD Library/sensing/imu_telemetry.o
LOAD Library/sensing/position_estimation.o
LOAD Library/sensing/position_estimation_telemetry.o
LOAD Library/sensing/qfilter.o
LOAD Library/sensing/simulation_telemetry.o
LOAD Library/util/linear_algebra.o
LOAD Library/util/matrixlib_float.o
LOAD Library/util/quick_trig.o
LOAD src/central_data.o
LOAD src/mavlink_telemetry.o
LOAD src/simu_gps_track.o
LOAD src/tasks.o
LOAD Library/communication/mavlink_stream.o
LOAD Library/communication/onboard_parameters.o
LOAD Library/control/navigation.o
LOAD Library/control/stabilisation.o
LOAD Library/hal/adc_int.o
LOAD Library/hal/ads1274.o
LOAD Library/hal/bmp085.o
LOAD Library/hal/dac_dma.o
LOAD Library/hal/led.o
LOAD Library/hal/spi_buffered.o
LOAD Library/hal/uart_int.o
LOAD Library/runtime/scheduler.o
LOAD Library/sensing/imu.o
LOAD Library/sensing/simulation.o
LOAD Library/util/buffer.o
LOAD Library/util/coord_conventions.o
LOAD Library/util/generator.o
LOAD Library/util/print_util.o
LOAD Library/util/sinus.o
LOAD src/asf/avr32/drivers/adcifa/adcifa.o
LOAD src/asf/avr32/drivers/ast/ast.o
LOAD src/asf/avr32/drivers/dacifb/dacifb.o
LOAD src/asf/avr32/drivers/eic/eic.o
LOAD src/asf/avr32/drivers/flashc/flashc.o
LOAD src/asf/avr32/drivers/gpio/gpio.o
LOAD src/asf/avr32/drivers/intc/exception.o
LOAD src/asf/avr32/drivers/intc/intc.o
LOAD src/asf/avr32/drivers/pdca/pdca.o
LOAD src/asf/avr32/drivers/pevc/pevc.o
LOAD src/asf/avr32/drivers/pm/pm_uc3c.o
LOAD src/asf/avr32/drivers/pm/power_clocks_lib.o
LOAD src/asf/avr32/drivers/pwm/pwm4.o
LOAD src/asf/avr32/drivers/scif/scif_uc3c.o
LOAD src/asf/avr32/drivers/spi/spi.o
LOAD src/asf/avr32/drivers/tc/tc.o
LOAD src/asf/avr32/drivers/twim/twim.o
LOAD src/asf/avr32/drivers/usart/usart.o
LOAD src/asf/avr32/drivers/usbc/usbc_device.o
LOAD src/asf/avr32/services/delay/delay.o
LOAD src/asf/avr32/utils/startup/startup_uc3.o
LOAD src/asf/avr32/utils/startup/trampoline_uc3.o
LOAD src/asf/common/boards/user_board/init.o
LOAD src/asf/common/services/clock/uc3c/osc.o
LOAD src/asf/common/services/clock/uc3c/pll.o
LOAD src/asf/common/services/clock/uc3c/sysclk.o
LOAD src/asf/common/services/sleepmgr/uc3/sleepmgr.o
LOAD src/asf/common/services/spi/uc3_spi/spi_master.o
LOAD src/asf/common/services/usb/class/cdc/device/udi_cdc.o
LOAD src/asf/common/services/usb/class/cdc/device/udi_cdc_desc.o
LOAD src/asf/common/services/usb/udc/udc.o
LOAD src/asf/common/utils/stdio/read.o
LOAD src/asf/common/utils/stdio/stdio_usb/stdio_usb.o
LOAD src/asf/common/utils/stdio/write.o
LOAD src/boardsupport.o
LOAD src/main.o
START GROUP
END GROUP
LOAD c:/program files (x86)/atmel/atmel toolchain/avr32 gcc/native/3.4.1067/avr32-gnu-toolchain/bin/../lib/gcc/avr32/4.4.7/ucr3fp\libstdc++.a
LOAD c:/program files (x86)/atmel/atmel toolchain/avr32 gcc/native/3.4.1067/avr32-gnu-toolchain/bin/../lib/gcc/avr32/4.4.7/../../../../avr32/lib/ucr3fp\libm.a
LOAD c:/program files (x86)/atmel/atmel toolchain/avr32 gcc/native/3.4.1067/avr32-gnu-toolchain/bin/../lib/gcc/avr32/4.4.7/ucr3fp\libgcc.a
LOAD c:/program files (x86)/atmel/atmel toolchain/avr32 gcc/native/3.4.1067/avr32-gnu-toolchain/bin/../lib/gcc/avr32/4.4.7/../../../../avr32/lib/ucr3fp\libc.a
LOAD c:/program files (x86)/atmel/atmel toolchain/avr32 gcc/native/3.4.1067/avr32-gnu-toolchain/bin/../lib/gcc/avr32/4.4.7/ucr3fp\libgcc.a
                0x80000000                PROVIDE (__executable_start, 0x80000000)
                0x80000000                . = 0x80000000

.interp
 *(.interp)

.reset          0x80000000     0x2010
 *(.reset)
 .reset         0x80000000        0x8 src/asf/avr32/utils/startup/startup_uc3.o
                0x80000000                _start
 .reset         0x80000008     0x2008 src/asf/avr32/utils/startup/trampoline_uc3.o
                0x80000008                _trampoline

.hash
 *(.hash)

.dynsym
 *(.dynsym)

.dynstr
 *(.dynstr)

.gnu.version
 *(.gnu.version)

.gnu.version_d
 *(.gnu.version_d)

.gnu.version_r
 *(.gnu.version_r)

.rel.init
 *(.rel.init)

.rela.init
 *(.rela.init)

.rel.text
 *(.rel.text .rel.text.* .rel.gnu.linkonce.t.*)

.rela.text
 *(.rela.text .rela.text.* .rela.gnu.linkonce.t.*)

.rel.fini
 *(.rel.fini)

.rela.fini
 *(.rela.fini)

.rel.rodata
 *(.rel.rodata .rel.rodata.* .rel.gnu.linkonce.r.*)

.rela.rodata
 *(.rela.rodata .rela.rodata.* .rela.gnu.linkonce.r.*)

.rel.data.rel.ro
 *(.rel.data.rel.ro*)

.rela.data.rel.ro
 *(.rel.data.rel.ro*)

.rel.data
 *(.rel.data .rel.data.* .rel.gnu.linkonce.d.*)

.rela.data
 *(.rela.data .rela.data.* .rela.gnu.linkonce.d.*)

.rel.tdata
 *(.rel.tdata .rel.tdata.* .rel.gnu.linkonce.td.*)

.rela.tdata
 *(.rela.tdata .rela.tdata.* .rela.gnu.linkonce.td.*)

.rel.tbss
 *(.rel.tbss .rel.tbss.* .rel.gnu.linkonce.tb.*)

.rela.tbss
 *(.rela.tbss .rela.tbss.* .rela.gnu.linkonce.tb.*)

.rel.ctors
 *(.rel.ctors)

.rela.ctors
 *(.rela.ctors)

.rel.dtors
 *(.rel.dtors)

.rela.dtors
 *(.rela.dtors)

.rel.got
 *(.rel.got)

.rela.got       0x80002010        0x0
 *(.rela.got)
 .rela.got      0x80002010        0x0 Library/communication/console.o

.rel.bss
 *(.rel.bss .rel.bss.* .rel.gnu.linkonce.b.*)

.rela.bss
 *(.rela.bss .rela.bss.* .rela.gnu.linkonce.b.*)

.rel.plt
 *(.rel.plt)

.rela.plt
 *(.rela.plt)

.init
 *(.init)

.plt
 *(.plt)

.text           0x80002010    0x304d0
 *(.text .stub .text.* .gnu.linkonce.t.*)
 .text          0x80002010        0x0 Library/communication/console.o
 .text.console_get_in_stream
                0x80002010       0x18 Library/communication/console.o
                0x80002010                console_get_in_stream
 .text.console_get_out_stream
                0x80002028       0x18 Library/communication/console.o
                0x80002028                console_get_out_stream
 .text.console_init
                0x80002040       0xd8 Library/communication/console.o
                0x80002040                console_init
 .text          0x80002118        0x0 Library/communication/data_logging.o
 .text.data_logging_print_error_signification
                0x80002118      0x118 Library/communication/data_logging.o
 .text.data_logging_add_parameter_double
                0x80002230       0x60 Library/communication/data_logging.o
                0x80002230                data_logging_add_parameter_double
 .text.data_logging_add_parameter_float
                0x80002290       0x60 Library/communication/data_logging.o
                0x80002290                data_logging_add_parameter_float
 .text.data_logging_add_parameter_int64
                0x800022f0       0x60 Library/communication/data_logging.o
                0x800022f0                data_logging_add_parameter_int64
 .text.data_logging_add_parameter_uint64
                0x80002350       0x60 Library/communication/data_logging.o
                0x80002350                data_logging_add_parameter_uint64
 .text.data_logging_add_parameter_int32
                0x800023b0       0x60 Library/communication/data_logging.o
                0x800023b0                data_logging_add_parameter_int32
 .text.data_logging_add_parameter_uint32
                0x80002410       0x60 Library/communication/data_logging.o
                0x80002410                data_logging_add_parameter_uint32
 .text.data_logging_add_parameter_int16
                0x80002470       0x60 Library/communication/data_logging.o
                0x80002470                data_logging_add_parameter_int16
 .text.data_logging_add_parameter_uint16
                0x800024d0       0x60 Library/communication/data_logging.o
                0x800024d0                data_logging_add_parameter_uint16
 .text.data_logging_add_parameter_int8
                0x80002530       0x60 Library/communication/data_logging.o
                0x80002530                data_logging_add_parameter_int8
 .text.data_logging_add_parameter_uint8
                0x80002590       0x60 Library/communication/data_logging.o
                0x80002590                data_logging_add_parameter_uint8
 .text.data_logging_put_uint64_t
                0x800025f0       0x88 Library/communication/data_logging.o
 .text.data_logging_put_r_or_n
                0x80002678       0x68 Library/communication/data_logging.o
 .text.data_logging_init
                0x800026e0       0xfc Library/communication/data_logging.o
                0x800026e0                data_logging_init
 .text.data_logging_create_new_log_file
                0x800027dc      0x1b8 Library/communication/data_logging.o
                0x800027dc                data_logging_create_new_log_file
 .text.data_logging_update
                0x80002994      0x57c Library/communication/data_logging.o
                0x80002994                data_logging_update
 .text          0x80002f10        0x0 Library/communication/data_logging_telemetry.o
 .text.data_logging_telemetry_init
                0x80002f10       0x38 Library/communication/data_logging_telemetry.o
                0x80002f10                data_logging_telemetry_init
 .text.data_logging_telemetry_toggle_logging
                0x80002f48       0x3c Library/communication/data_logging_telemetry.o
 .text          0x80002f84        0x0 Library/communication/hud_telemetry.o
 .text.hud_telemetry_send_message
                0x80002f84      0x24c Library/communication/hud_telemetry.o
                0x80002f84                hud_telemetry_send_message
 .text.hud_telemetry_init
                0x800031d0       0x20 Library/communication/hud_telemetry.o
                0x800031d0                hud_telemetry_init
 .text          0x800031f0        0x0 Library/communication/mavlink_communication.o
 .text.mavlink_communication_send_message
                0x800031f0       0x2c Library/communication/mavlink_communication.o
                0x800031f0                mavlink_communication_send_message
 .text.mavlink_communication_add_msg_send
                0x8000321c       0x6c Library/communication/mavlink_communication.o
                0x8000321c                mavlink_communication_add_msg_send
 .text.mavlink_communication_suspend_downstream
                0x80003288       0x3c Library/communication/mavlink_communication.o
                0x80003288                mavlink_communication_suspend_downstream
 .text.mavlink_communication_update
                0x800032c4       0x4c Library/communication/mavlink_communication.o
                0x800032c4                mavlink_communication_update
 .text.mavlink_communication_init
                0x80003310       0xb4 Library/communication/mavlink_communication.o
                0x80003310                mavlink_communication_init
 .text.mavlink_communication_toggle_telemetry_stream
                0x800033c4       0xf4 Library/communication/mavlink_communication.o
 .text          0x800034b8        0x0 Library/communication/mavlink_message_handler.o
 .text.mavlink_message_handler_add_cmd_callback
                0x800034b8       0x58 Library/communication/mavlink_message_handler.o
                0x800034b8                mavlink_message_handler_add_cmd_callback
 .text.mavlink_message_handler_add_msg_callback
                0x80003510       0x5c Library/communication/mavlink_message_handler.o
                0x80003510                mavlink_message_handler_add_msg_callback
 .text.mavlink_message_handler_cmd_default_dbg
                0x8000356c       0xc4 Library/communication/mavlink_message_handler.o
                0x8000356c                mavlink_message_handler_cmd_default_dbg
 .text.mavlink_message_handler_msg_default_dbg
                0x80003630       0x60 Library/communication/mavlink_message_handler.o
                0x80003630                mavlink_message_handler_msg_default_dbg
 .text.mavlink_message_handler_receive
                0x80003690      0x3e4 Library/communication/mavlink_message_handler.o
                0x80003690                mavlink_message_handler_receive
 .text.mavlink_message_handler_init
                0x80003a74       0x84 Library/communication/mavlink_message_handler.o
                0x80003a74                mavlink_message_handler_init
 .text          0x80003af8        0x0 Library/communication/mavlink_waypoint_handler.o
 .text.mavlink_finalize_message
                0x80003af8       0xe8 Library/communication/mavlink_waypoint_handler.o
 .text.waypoint_handler_init_homing_waypoint
                0x80003be0       0x40 Library/communication/mavlink_waypoint_handler.o
                0x80003be0                waypoint_handler_init_homing_waypoint
 .text.waypoint_handler_control_time_out_waypoint_msg
                0x80003c20       0x7c Library/communication/mavlink_waypoint_handler.o
                0x80003c20                waypoint_handler_control_time_out_waypoint_msg
 .text.waypoint_handler_receive_ack_msg
                0x80003c9c       0x38 Library/communication/mavlink_waypoint_handler.o
 .text.waypoint_handler_init_waypoint_list
                0x80003cd4      0x158 Library/communication/mavlink_waypoint_handler.o
                0x80003cd4                waypoint_handler_init_waypoint_list
 .text.waypoint_handler_set_waypoint_from_frame
                0x80003e2c      0x43c Library/communication/mavlink_waypoint_handler.o
                0x80003e2c                waypoint_handler_set_waypoint_from_frame
 .text.waypoint_handler_nav_plan_init
                0x80004268      0x1c0 Library/communication/mavlink_waypoint_handler.o
                0x80004268                waypoint_handler_nav_plan_init
 .text.waypoint_handler_init
                0x80004428      0x1b0 Library/communication/mavlink_waypoint_handler.o
                0x80004428                waypoint_handler_init
 .text.waypoint_handler_set_scenario
                0x800045d8      0xa4c Library/communication/mavlink_waypoint_handler.o
 .text.waypoint_handler_send_waypoint
                0x80005024      0x274 Library/communication/mavlink_waypoint_handler.o
 .text.waypoint_handler_send_count
                0x80005298       0xc8 Library/communication/mavlink_waypoint_handler.o
 .text.mavlink_msg_mission_ack_pack
                0x80005360      0x104 Library/communication/mavlink_waypoint_handler.o
 .text.waypoint_handler_clear_waypoint_list
                0x80005464       0x88 Library/communication/mavlink_waypoint_handler.o
 .text.waypoint_handler_set_current_waypoint
                0x800054ec      0x1b4 Library/communication/mavlink_waypoint_handler.o
 .text.waypoint_handler_receive_waypoint
                0x800056a0      0x478 Library/communication/mavlink_waypoint_handler.o
 .text.waypoint_handler_continue_to_next_waypoint
                0x80005b18      0x280 Library/communication/mavlink_waypoint_handler.o
 .text.waypoint_handler_receive_count
                0x80005d98      0x1d8 Library/communication/mavlink_waypoint_handler.o
 .text.waypoint_handler_set_current_waypoint_from_parameter
                0x80005f70      0x160 Library/communication/mavlink_waypoint_handler.o
 .text.waypoint_handler_set_home
                0x800060d0      0x2a0 Library/communication/mavlink_waypoint_handler.o
 .text          0x80006370        0x0 Library/communication/neighbor_selection.o
 .text.neighbors_selection_read_message_from_neighbors
                0x80006370      0x220 Library/communication/neighbor_selection.o
                0x80006370                neighbors_selection_read_message_from_neighbors
 .text.neighbors_selection_init
                0x80006590       0x44 Library/communication/neighbor_selection.o
                0x80006590                neighbors_selection_init
 .text          0x800065d4        0x0 Library/communication/remote.o
 .text.remote_calibrate
                0x800065d4       0x18 Library/communication/remote.o
                0x800065d4                remote_calibrate
 .text.remote_get_throttle
                0x800065ec        0x4 Library/communication/remote.o
                0x800065ec                remote_get_throttle
 .text.remote_get_roll
                0x800065f0        0x4 Library/communication/remote.o
                0x800065f0                remote_get_roll
 .text.remote_get_pitch
                0x800065f4        0x4 Library/communication/remote.o
                0x800065f4                remote_get_pitch
 .text.remote_get_yaw
                0x800065f8        0x4 Library/communication/remote.o
                0x800065f8                remote_get_yaw
 .text.remote_mode_init
                0x800065fc       0x46 Library/communication/remote.o
                0x800065fc                remote_mode_init
 .text.remote_mode_get
                0x80006642        0x6 Library/communication/remote.o
                0x80006642                remote_mode_get
 .text.remote_update
                0x80006648       0xe8 Library/communication/remote.o
                0x80006648                remote_update
 .text.remote_get_velocity_vector_from_remote
                0x80006730       0xa4 Library/communication/remote.o
                0x80006730                remote_get_velocity_vector_from_remote
 .text.remote_get_command_from_remote
                0x800067d4       0x8c Library/communication/remote.o
                0x800067d4                remote_get_command_from_remote
 .text.remote_mode_update
                0x80006860      0x218 Library/communication/remote.o
                0x80006860                remote_mode_update
 .text.remote_check
                0x80006a78       0x18 Library/communication/remote.o
                0x80006a78                remote_check
 .text.remote_init
                0x80006a90       0xa8 Library/communication/remote.o
                0x80006a90                remote_init
 .text          0x80006b38        0x0 Library/communication/remote_telemetry.o
 .text.remote_telemetry_send_scaled
                0x80006b38      0x234 Library/communication/remote_telemetry.o
                0x80006b38                remote_telemetry_send_scaled
 .text.remote_telemetry_init
                0x80006d6c       0x38 Library/communication/remote_telemetry.o
                0x80006d6c                remote_telemetry_init
 .text.remote_telemetry_satellite_bind
                0x80006da4       0x3c Library/communication/remote_telemetry.o
 .text.remote_telemetry_send_raw
                0x80006de0      0x21c Library/communication/remote_telemetry.o
                0x80006de0                remote_telemetry_send_raw
 .text          0x80006ffc        0x0 Library/communication/state.o
 .text.state_switch_to_active_mode
                0x80006ffc       0x28 Library/communication/state.o
                0x80006ffc                state_switch_to_active_mode
 .text.state_init
                0x80007024       0x6c Library/communication/state.o
                0x80007024                state_init
 .text          0x80007090        0x0 Library/communication/state_machine.o
 .text.state_machine_init
                0x80007090       0x2c Library/communication/state_machine.o
                0x80007090                state_machine_init
 .text.state_machine_update
                0x800070bc      0x17c Library/communication/state_machine.o
                0x800070bc                state_machine_update
 .text          0x80007238        0x0 Library/communication/state_telemetry.o
 .text.state_telemetry_send_status
                0x80007238      0x1f0 Library/communication/state_telemetry.o
                0x80007238                state_telemetry_send_status
 .text.state_telemetry_init
                0x80007428       0x78 Library/communication/state_telemetry.o
                0x80007428                state_telemetry_init
 .text.state_telemetry_toggle_remote_use
                0x800074a0       0x4c Library/communication/state_telemetry.o
 .text.state_telemetry_set_mode_from_cmd
                0x800074ec       0x74 Library/communication/state_telemetry.o
 .text.state_telemetry_set_mav_mode
                0x80007560       0xcc Library/communication/state_telemetry.o
 .text.state_telemetry_send_heartbeat
                0x8000762c      0x130 Library/communication/state_telemetry.o
                0x8000762c                state_telemetry_send_heartbeat
 .text          0x8000775c        0x0 Library/control/joystick_parsing.o
 .text.joystick_parsing_button
                0x8000775c       0x1a Library/control/joystick_parsing.o
                0x8000775c                joystick_parsing_button
 .text.joystick_parsing_button_custom_on
                0x80007776       0x16 Library/control/joystick_parsing.o
                0x80007776                joystick_parsing_button_custom_on
 .text.joystick_parsing_button_custom_off
                0x8000778c        0xe Library/control/joystick_parsing.o
                0x8000778c                joystick_parsing_button_custom_off
 *fill*         0x8000779a        0x2 d703d703
 .text.joystick_parsing_get_velocity_vector_from_joystick
                0x8000779c       0x98 Library/control/joystick_parsing.o
                0x8000779c                joystick_parsing_get_velocity_vector_from_joystick
 .text.joystick_parsing_get_attitude_command_from_joystick
                0x80007834       0x80 Library/control/joystick_parsing.o
                0x80007834                joystick_parsing_get_attitude_command_from_joystick
 .text.joystick_parsing_init
                0x800078b4       0x50 Library/control/joystick_parsing.o
                0x800078b4                joystick_parsing_init
 .text.joystick_parsing_button_1
                0x80007904       0x80 Library/control/joystick_parsing.o
                0x80007904                joystick_parsing_button_1
 .text.joystick_parsing_button_mask
                0x80007984       0x64 Library/control/joystick_parsing.o
                0x80007984                joystick_parsing_button_mask
 .text          0x800079e8        0x0 Library/control/joystick_parsing_telemetry.o
 .text.joystick_parsing_telemetry_send_manual_ctrl_msg
                0x800079e8      0x190 Library/control/joystick_parsing_telemetry.o
                0x800079e8                joystick_parsing_telemetry_send_manual_ctrl_msg
 .text.joystick_parsing_telemetry_init
                0x80007b78       0x34 Library/control/joystick_parsing_telemetry.o
                0x80007b78                joystick_parsing_telemetry_init
 .text.joystick_parsing_telemetry_parse_msg
                0x80007bac       0xb4 Library/control/joystick_parsing_telemetry.o
                0x80007bac                joystick_parsing_telemetry_parse_msg
 .text          0x80007c60        0x0 Library/control/kalman_predictor.o
 .text.kalman_init
                0x80007c60       0x64 Library/control/kalman_predictor.o
                0x80007c60                kalman_init
 .text.kalman_predict
                0x80007cc4       0x80 Library/control/kalman_predictor.o
                0x80007cc4                kalman_predict
 .text.kalman_update_measurement_residual
                0x80007d44       0x46 Library/control/kalman_predictor.o
                0x80007d44                kalman_update_measurement_residual
 *fill*         0x80007d8a        0x2 d703d703
 .text.kalman_compute_gain
                0x80007d8c       0xac Library/control/kalman_predictor.o
                0x80007d8c                kalman_compute_gain
 .text.kalman_correct
                0x80007e38       0xdc Library/control/kalman_predictor.o
                0x80007e38                kalman_correct
 .text          0x80007f14        0x0 Library/control/pid_control.o
 .text.pid_control_integrate
                0x80007f14       0x38 Library/control/pid_control.o
 .text.pid_control_differentiate
                0x80007f4c       0x5c Library/control/pid_control.o
 .text.pid_control_reset_integrator
                0x80007fa8        0x6 Library/control/pid_control.o
                0x80007fa8                pid_control_reset_integrator
 *fill*         0x80007fae        0x2 d703d703
 .text.pid_control_update_dt
                0x80007fb0       0x6c Library/control/pid_control.o
                0x80007fb0                pid_control_update_dt
 .text.pid_control_pass_through_controller
                0x8000801c       0x54 Library/control/pid_control.o
                0x8000801c                pid_control_pass_through_controller
 .text.pid_control_update
                0x80008070       0xa0 Library/control/pid_control.o
                0x80008070                pid_control_update
 .text          0x80008110        0x0 Library/control/servos_mix_quadcopter_cross.o
 .text.servo_mix_quadcotper_cross_init
                0x80008110       0x30 Library/control/servos_mix_quadcopter_cross.o
                0x80008110                servo_mix_quadcotper_cross_init
 .text.servos_mix_quadcopter_cross_update
                0x80008140       0xb8 Library/control/servos_mix_quadcopter_cross.o
                0x80008140                servos_mix_quadcopter_cross_update
 .text          0x800081f8        0x0 Library/control/servos_mix_quadcopter_diag.o
 .text.servo_mix_quadcotper_diag_init
                0x800081f8       0x30 Library/control/servos_mix_quadcopter_diag.o
                0x800081f8                servo_mix_quadcotper_diag_init
 .text.servos_mix_quadcopter_diag_update
                0x80008228       0xc0 Library/control/servos_mix_quadcopter_diag.o
                0x80008228                servos_mix_quadcopter_diag_update
 .text          0x800082e8        0x0 Library/control/stabilisation_copter.o
 .text.stabilisation_copter_mix_to_servos_cross_quad
                0x800082e8       0x90 Library/control/stabilisation_copter.o
                0x800082e8                stabilisation_copter_mix_to_servos_cross_quad
 .text.stabilisation_copter_mix_to_servos_diag_quad
                0x80008378       0xa4 Library/control/stabilisation_copter.o
                0x80008378                stabilisation_copter_mix_to_servos_diag_quad
 .text.stabilisation_copter_init
                0x8000841c       0x70 Library/control/stabilisation_copter.o
                0x8000841c                stabilisation_copter_init
 .text.stabilisation_copter_position_hold
                0x8000848c      0x174 Library/control/stabilisation_copter.o
                0x8000848c                stabilisation_copter_position_hold
 .text.stabilisation_copter_cascade_stabilise
                0x80008600      0x468 Library/control/stabilisation_copter.o
                0x80008600                stabilisation_copter_cascade_stabilise
 .text          0x80008a68        0x0 Library/control/stabilisation_telemetry.o
 .text.stabilisation_telemetry_send_rpy_rates_error
                0x80008a68      0x1ac Library/control/stabilisation_telemetry.o
                0x80008a68                stabilisation_telemetry_send_rpy_rates_error
 .text.stabilisation_telemetry_send_rpy_speed_thrust_setpoint
                0x80008c14      0x1b0 Library/control/stabilisation_telemetry.o
                0x80008c14                stabilisation_telemetry_send_rpy_speed_thrust_setpoint
 .text.stabilisation_send_command
                0x80008dc4      0x1d4 Library/control/stabilisation_telemetry.o
                0x80008dc4                stabilisation_send_command
 .text.stabilisation_telemetry_send_rpy_thrust_setpoint
                0x80008f98      0x1ac Library/control/stabilisation_telemetry.o
                0x80008f98                stabilisation_telemetry_send_rpy_thrust_setpoint
 .text          0x80009144        0x0 Library/control/track_following.o
 .text.track_following_get_waypoint
                0x80009144       0x7c Library/control/track_following.o
                0x80009144                track_following_get_waypoint
 .text.track_following_new_message_received
                0x800091c0       0x2c Library/control/track_following.o
                0x800091c0                track_following_new_message_received
 .text.track_following_WP_distance_XYZ
                0x800091ec       0x18 Library/control/track_following.o
                0x800091ec                track_following_WP_distance_XYZ
 .text.track_following_WP_time_last_ms
                0x80009204       0x1c Library/control/track_following.o
                0x80009204                track_following_WP_time_last_ms
 .text.track_following_send_dist
                0x80009220      0x178 Library/control/track_following.o
                0x80009220                track_following_send_dist
 .text.track_following_WP_control_PID
                0x80009398       0x90 Library/control/track_following.o
                0x80009398                track_following_WP_control_PID
 .text.track_following_kalman_predictor
                0x80009428      0x154 Library/control/track_following.o
                0x80009428                track_following_kalman_predictor
 .text.track_following_improve_waypoint_following
                0x8000957c       0x30 Library/control/track_following.o
                0x8000957c                track_following_improve_waypoint_following
 .text.track_following_init
                0x800095ac       0x24 Library/control/track_following.o
                0x800095ac                track_following_init
 .text          0x800095d0        0x0 Library/hal/analog_monitor_telemetry.o
 .text.analog_monitor_telemetry_send_sonar
                0x800095d0      0x188 Library/hal/analog_monitor_telemetry.o
                0x800095d0                analog_monitor_telemetry_send_sonar
 .text          0x80009758        0x0 Library/hal/analog_monitor.o
 .text.analog_compute_avg
                0x80009758       0x3c Library/hal/analog_monitor.o
                0x80009758                analog_compute_avg
 .text.analog_monitor_init
                0x80009794      0x154 Library/hal/analog_monitor.o
                0x80009794                analog_monitor_init
 .text.trigger_analog_monitor
                0x800098e8       0x20 Library/hal/analog_monitor.o
                0x800098e8                trigger_analog_monitor
 .text.analog_monitor_update
                0x80009908       0x44 Library/hal/analog_monitor.o
                0x80009908                analog_monitor_update
 .text          0x8000994c        0x0 Library/hal/bmp085_telemetry.o
 .text.bmp085_telemetry_send_pressure
                0x8000994c      0x194 Library/hal/bmp085_telemetry.o
                0x8000994c                bmp085_telemetry_send_pressure
 .text          0x80009ae0        0x0 Library/hal/fat_fs/diskio.o
 .text.get_fattime
                0x80009ae0       0xa4 Library/hal/fat_fs/diskio.o
                0x80009ae0                get_fattime
 .text.disk_ioctl
                0x80009b84       0x5c Library/hal/fat_fs/diskio.o
                0x80009b84                disk_ioctl
 .text.disk_write
                0x80009be0       0x4c Library/hal/fat_fs/diskio.o
                0x80009be0                disk_write
 .text.disk_read
                0x80009c2c       0x40 Library/hal/fat_fs/diskio.o
                0x80009c2c                disk_read
 .text.disk_status
                0x80009c6c       0x38 Library/hal/fat_fs/diskio.o
                0x80009c6c                disk_status
 .text.disk_initialize
                0x80009ca4       0x30 Library/hal/fat_fs/diskio.o
                0x80009ca4                disk_initialize
 .text          0x80009cd4        0x0 Library/hal/fat_fs/ff.o
 .text.mem_cpy  0x80009cd4       0x28 Library/hal/fat_fs/ff.o
 .text.mem_set  0x80009cfc        0xc Library/hal/fat_fs/ff.o
 .text.chk_chr  0x80009d08       0x1a Library/hal/fat_fs/ff.o
 .text.clust2sect
                0x80009d22       0x18 Library/hal/fat_fs/ff.o
                0x80009d22                clust2sect
 .text.ld_clust
                0x80009d3a       0x28 Library/hal/fat_fs/ff.o
 .text.st_clust
                0x80009d62       0x1a Library/hal/fat_fs/ff.o
 .text.sum_sfn  0x80009d7c       0x1c Library/hal/fat_fs/ff.o
 .text.get_ldnumber
                0x80009d98       0x8c Library/hal/fat_fs/ff.o
 .text.validate
                0x80009e24       0x48 Library/hal/fat_fs/ff.o
 .text.f_closedir
                0x80009e6c       0x20 Library/hal/fat_fs/ff.o
                0x80009e6c                f_closedir
 .text.get_fileinfo
                0x80009e8c      0x108 Library/hal/fat_fs/ff.o
 .text.sync_window
                0x80009f94       0x68 Library/hal/fat_fs/ff.o
 .text.move_window
                0x80009ffc       0x3c Library/hal/fat_fs/ff.o
 .text.check_fs
                0x8000a038       0xa0 Library/hal/fat_fs/ff.o
 .text.find_volume
                0x8000a0d8      0x390 Library/hal/fat_fs/ff.o
 .text.f_mount  0x8000a468       0x84 Library/hal/fat_fs/ff.o
                0x8000a468                f_mount
 .text.put_fat  0x8000a4ec      0x138 Library/hal/fat_fs/ff.o
                0x8000a4ec                put_fat
 .text.get_fat  0x8000a624       0xf8 Library/hal/fat_fs/ff.o
                0x8000a624                get_fat
 .text.dir_sdi  0x8000a71c       0xb4 Library/hal/fat_fs/ff.o
 .text.create_chain
                0x8000a7d0       0xd0 Library/hal/fat_fs/ff.o
 .text.dir_next
                0x8000a8a0      0x104 Library/hal/fat_fs/ff.o
 .text.remove_chain
                0x8000a9a4       0x68 Library/hal/fat_fs/ff.o
 .text.f_truncate
                0x8000aa0c       0xc0 Library/hal/fat_fs/ff.o
                0x8000aa0c                f_truncate
 .text.dir_find
                0x8000aacc      0x1c8 Library/hal/fat_fs/ff.o
 .text.follow_path
                0x8000ac94      0x3fc Library/hal/fat_fs/ff.o
 .text.f_stat   0x8000b090       0x6c Library/hal/fat_fs/ff.o
                0x8000b090                f_stat
 .text.f_opendir
                0x8000b0fc       0x9c Library/hal/fat_fs/ff.o
                0x8000b0fc                f_opendir
 .text.dir_register
                0x8000b198      0x318 Library/hal/fat_fs/ff.o
 .text.dir_remove
                0x8000b4b0       0x6c Library/hal/fat_fs/ff.o
 .text.dir_read
                0x8000b51c      0x170 Library/hal/fat_fs/ff.o
 .text.f_readdir
                0x8000b68c       0x84 Library/hal/fat_fs/ff.o
                0x8000b68c                f_readdir
 .text.f_getfree
                0x8000b710       0xec Library/hal/fat_fs/ff.o
                0x8000b710                f_getfree
 .text.f_lseek  0x8000b7fc      0x190 Library/hal/fat_fs/ff.o
                0x8000b7fc                f_lseek
 .text.f_write  0x8000b98c      0x1c0 Library/hal/fat_fs/ff.o
                0x8000b98c                f_write
 .text.putc_bfd
                0x8000bb4c       0x50 Library/hal/fat_fs/ff.o
 .text.f_printf
                0x8000bb9c      0x32c Library/hal/fat_fs/ff.o
                0x8000bb9c                f_printf
 .text.f_puts   0x8000bec8       0x58 Library/hal/fat_fs/ff.o
                0x8000bec8                f_puts
 .text.f_putc   0x8000bf20       0x48 Library/hal/fat_fs/ff.o
                0x8000bf20                f_putc
 .text.f_read   0x8000bf68      0x184 Library/hal/fat_fs/ff.o
                0x8000bf68                f_read
 .text.f_gets   0x8000c0ec       0x58 Library/hal/fat_fs/ff.o
                0x8000c0ec                f_gets
 .text.sync_fs  0x8000c144       0xcc Library/hal/fat_fs/ff.o
 .text.f_rename
                0x8000c210      0x148 Library/hal/fat_fs/ff.o
                0x8000c210                f_rename
 .text.f_utime  0x8000c358       0x84 Library/hal/fat_fs/ff.o
                0x8000c358                f_utime
 .text.f_chmod  0x8000c3dc       0x8c Library/hal/fat_fs/ff.o
                0x8000c3dc                f_chmod
 .text.f_unlink
                0x8000c468       0xe0 Library/hal/fat_fs/ff.o
                0x8000c468                f_unlink
 .text.f_mkdir  0x8000c548      0x1a4 Library/hal/fat_fs/ff.o
                0x8000c548                f_mkdir
 .text.f_sync   0x8000c6ec       0xb8 Library/hal/fat_fs/ff.o
                0x8000c6ec                f_sync
 .text.f_close  0x8000c7a4       0x28 Library/hal/fat_fs/ff.o
                0x8000c7a4                f_close
 .text.f_open   0x8000c7cc      0x1ac Library/hal/fat_fs/ff.o
                0x8000c7cc                f_open
 .text          0x8000c978        0x0 Library/hal/fat_fs/option/ccsbcs.o
 .text.ff_convert
                0x8000c978       0x78 Library/hal/fat_fs/option/ccsbcs.o
                0x8000c978                ff_convert
 .text.ff_wtoupper
                0x8000c9f0       0x44 Library/hal/fat_fs/option/ccsbcs.o
                0x8000c9f0                ff_wtoupper
 .text          0x8000ca34        0x0 Library/hal/fat_fs/option/syscall.o
 .text.ff_memfree
                0x8000ca34       0x14 Library/hal/fat_fs/option/syscall.o
                0x8000ca34                ff_memfree
 .text.ff_memalloc
                0x8000ca48       0x14 Library/hal/fat_fs/option/syscall.o
                0x8000ca48                ff_memalloc
 .text          0x8000ca5c        0x0 Library/hal/fat_fs/option/unicode.o
 .text          0x8000ca5c        0x0 Library/hal/gps_ublox.o
 .text.update_checksum
                0x8000ca5c       0x34 Library/hal/gps_ublox.o
 .text.endian_lower_bytes_uint16
                0x8000ca90        0x4 Library/hal/gps_ublox.o
 .text.endian_higher_bytes_uint16
                0x8000ca94        0x6 Library/hal/gps_ublox.o
 .text.endian_lower_bytes_uint32
                0x8000ca9a        0x4 Library/hal/gps_ublox.o
 .text.endian_mid_lower_bytes_uint32
                0x8000ca9e        0x6 Library/hal/gps_ublox.o
 .text.endian_mid_higher_bytes_uint32
                0x8000caa4        0x6 Library/hal/gps_ublox.o
 .text.endian_higher_bytes_uint32
                0x8000caaa        0x4 Library/hal/gps_ublox.o
 *fill*         0x8000caae        0x2 d703d703
 .text.ubx_send_header
                0x8000cab0       0x68 Library/hal/gps_ublox.o
 .text.ubx_send_cksum
                0x8000cb18       0x28 Library/hal/gps_ublox.o
 .text.ubx_send_message_nav_settings
                0x8000cb40      0x558 Library/hal/gps_ublox.o
 .text.ubx_configure_message_rate
                0x8000d098       0xb4 Library/hal/gps_ublox.o
 .text.gps_ublox_configure_gps
                0x8000d14c      0x184 Library/hal/gps_ublox.o
                0x8000d14c                gps_ublox_configure_gps
 .text.gps_ublox_reset
                0x8000d2d0       0x5c Library/hal/gps_ublox.o
 .text.gps_ublox_update
                0x8000d32c     0x13d8 Library/hal/gps_ublox.o
                0x8000d32c                gps_ublox_update
 .text.gps_ublox_init
                0x8000e704       0x8c Library/hal/gps_ublox.o
                0x8000e704                gps_ublox_init
 .text          0x8000e790        0x0 Library/hal/gps_ublox_telemetry.o
 .text.gps_ublox_telemetry_send_raw
                0x8000e790      0x450 Library/hal/gps_ublox_telemetry.o
                0x8000e790                gps_ublox_telemetry_send_raw
 .text          0x8000ebe0        0x0 Library/hal/hmc5883l.o
 .text.hmc5883l_update
                0x8000ebe0       0x54 Library/hal/hmc5883l.o
                0x8000ebe0                hmc5883l_update
 .text.hmc5883l_init_slow
                0x8000ec34       0x44 Library/hal/hmc5883l.o
                0x8000ec34                hmc5883l_init_slow
 .text          0x8000ec78        0x0 Library/hal/i2c_driver_int.o
 .text.i2c_int_handler_i2c0
                0x8000ec78       0xec Library/hal/i2c_driver_int.o
 .text.i2c_driver_trigger_request
                0x8000ed64       0xd8 Library/hal/i2c_driver_int.o
                0x8000ed64                i2c_driver_trigger_request
 .text.i2c_driver_reset
                0x8000ee3c       0x4e Library/hal/i2c_driver_int.o
                0x8000ee3c                i2c_driver_reset
 *fill*         0x8000ee8a        0x2 d703d703
 .text.i2c_driver_init
                0x8000ee8c       0x98 Library/hal/i2c_driver_int.o
                0x8000ee8c                i2c_driver_init
 .text          0x8000ef24        0x0 Library/hal/lsm330dlc.o
 .text.lsm330dlc_acc_write_register
                0x8000ef24       0x24 Library/hal/lsm330dlc.o
 .text.lsm330dlc_gyro_write_register
                0x8000ef48       0x24 Library/hal/lsm330dlc.o
 .text.lsm330dlc_gyro_read_register
                0x8000ef6c       0x34 Library/hal/lsm330dlc.o
 .text.lsm330dlc_gyro_update
                0x8000efa0       0xd4 Library/hal/lsm330dlc.o
                0x8000efa0                lsm330dlc_gyro_update
 .text.lsm330dlc_acc_read_register
                0x8000f074       0x34 Library/hal/lsm330dlc.o
 .text.lsm330dlc_acc_update
                0x8000f0a8       0xbc Library/hal/lsm330dlc.o
                0x8000f0a8                lsm330dlc_acc_update
 .text.lsm330dlc_init
                0x8000f164       0x78 Library/hal/lsm330dlc.o
                0x8000f164                lsm330dlc_init
 .text          0x8000f1dc        0x0 Library/hal/piezo_speaker.o
 .text.piezo_speaker_set_value_binary
                0x8000f1dc       0x4c Library/hal/piezo_speaker.o
 .text.piezo_speaker_beep
                0x8000f228       0x60 Library/hal/piezo_speaker.o
                0x8000f228                piezo_speaker_beep
 .text.piezo_speaker_mario_melody
                0x8000f288       0x84 Library/hal/piezo_speaker.o
                0x8000f288                piezo_speaker_mario_melody
 .text.piezo_speaker_star_wars
                0x8000f30c      0x150 Library/hal/piezo_speaker.o
                0x8000f30c                piezo_speaker_star_wars
 .text.piezo_speaker_critical_error_melody
                0x8000f45c       0x34 Library/hal/piezo_speaker.o
                0x8000f45c                piezo_speaker_critical_error_melody
 .text.piezo_speaker_quick_startup
                0x8000f490       0x2c Library/hal/piezo_speaker.o
                0x8000f490                piezo_speaker_quick_startup
 .text.piezo_speaker_startup_melody
                0x8000f4bc       0x2c Library/hal/piezo_speaker.o
                0x8000f4bc                piezo_speaker_startup_melody
 .text.piezo_speaker_init_binary
                0x8000f4e8       0x2c Library/hal/piezo_speaker.o
                0x8000f4e8                piezo_speaker_init_binary
 .text.piezo_speaker_init
                0x8000f514       0x40 Library/hal/piezo_speaker.o
                0x8000f514                piezo_speaker_init
 .text          0x8000f554        0x0 Library/hal/pwm_servos.o
 .text.write_channels
                0x8000f554       0x42 Library/hal/pwm_servos.o
                0x8000f554                write_channels
 *fill*         0x8000f596        0x2 d703d703
 .text.pwm_servos_write_to_hardware
                0x8000f598       0xc8 Library/hal/pwm_servos.o
                0x8000f598                pwm_servos_write_to_hardware
 .text.pwm_servos_init
                0x8000f660       0xc4 Library/hal/pwm_servos.o
                0x8000f660                pwm_servos_init
 .text          0x8000f724        0x0 Library/hal/sd_spi.o
 .text.sd_spi_get_sector_count
                0x8000f724       0x24 Library/hal/sd_spi.o
                0x8000f724                sd_spi_get_sector_count
 .text.sd_spi_get_sector_size
                0x8000f748        0x8 Library/hal/sd_spi.o
                0x8000f748                sd_spi_get_sector_size
 .text.sd_spi_get_block_size
                0x8000f750       0x1c Library/hal/sd_spi.o
                0x8000f750                sd_spi_get_block_size
 .text.sd_spi_send_and_read
                0x8000f76c       0x38 Library/hal/sd_spi.o
 .text.sd_spi_command
                0x8000f7a4       0xc0 Library/hal/sd_spi.o
 .text.sd_spi_send_command
                0x8000f864       0x34 Library/hal/sd_spi.o
 .text.sd_spi_reset_card
                0x8000f898       0x80 Library/hal/sd_spi.o
                0x8000f898                sd_spi_reset_card
 .text.sd_spi_wait_not_busy
                0x8000f918       0x54 Library/hal/sd_spi.o
                0x8000f918                sd_spi_wait_not_busy
 .text.sd_spi_write_given_sector_from_ram
                0x8000f96c      0x14c Library/hal/sd_spi.o
                0x8000f96c                sd_spi_write_given_sector_from_ram
 .text.sd_spi_write_sector_from_ram
                0x8000fab8      0x11c Library/hal/sd_spi.o
                0x8000fab8                sd_spi_write_sector_from_ram
 .text.sd_mmc_spi_read_open_PDCA
                0x8000fbd4       0xd4 Library/hal/sd_spi.o
                0x8000fbd4                sd_mmc_spi_read_open_PDCA
 .text.sd_spi_read_sector_to_ram_pcda
                0x8000fca8      0x10c Library/hal/sd_spi.o
                0x8000fca8                sd_spi_read_sector_to_ram_pcda
 .text.sd_spi_status
                0x8000fdb4       0xb0 Library/hal/sd_spi.o
                0x8000fdb4                sd_spi_status
 .text.is_sd_spi_write_pwd_locked
                0x8000fe64       0xd8 Library/hal/sd_spi.o
                0x8000fe64                is_sd_spi_write_pwd_locked
 .text.sd_spi_read_given_sector_to_ram
                0x8000ff3c      0x14c Library/hal/sd_spi.o
                0x8000ff3c                sd_spi_read_given_sector_to_ram
 .text.sd_mmc_spi_read_sector_to_ram
                0x80010088      0x12c Library/hal/sd_spi.o
                0x80010088                sd_mmc_spi_read_sector_to_ram
 .text.pdca_int_handler
                0x800101b4       0x38 Library/hal/sd_spi.o
 .text.sd_spi_get_capacity
                0x800101ec      0x154 Library/hal/sd_spi.o
                0x800101ec                sd_spi_get_capacity
 .text.sd_spi_init
                0x80010340      0x4f4 Library/hal/sd_spi.o
                0x80010340                sd_spi_init
 .text.sd_spi_mem_check
                0x80010834       0x84 Library/hal/sd_spi.o
                0x80010834                sd_spi_mem_check
 .text.sd_spi_test
                0x800108b8      0x16c Library/hal/sd_spi.o
                0x800108b8                sd_spi_test
 .text          0x80010a24        0x0 Library/hal/servos.o
 .text.servos_set_value
                0x80010a24       0x6a Library/hal/servos.o
                0x80010a24                servos_set_value
 *fill*         0x80010a8e        0x2 d703d703
 .text.servos_set_value_failsafe
                0x80010a90       0x2c Library/hal/servos.o
                0x80010a90                servos_set_value_failsafe
 .text.servos_init
                0x80010abc       0xd4 Library/hal/servos.o
                0x80010abc                servos_init
 .text          0x80010b90        0x0 Library/hal/servos_telemetry.o
 .text.servos_telemetry_mavlink_send
                0x80010b90      0x22c Library/hal/servos_telemetry.o
                0x80010b90                servos_telemetry_mavlink_send
 .text          0x80010dbc        0x0 Library/hal/spektrum_satellite.o
 .text.spektrum_satellite_get_pointer
                0x80010dbc       0x18 Library/hal/spektrum_satellite.o
                0x80010dbc                spektrum_satellite_get_pointer
 .text.spektrum_satellite_get_channel
                0x80010dd4       0x20 Library/hal/spektrum_satellite.o
                0x80010dd4                spektrum_satellite_get_channel
 .text.spektrum_satellite_get_neutral
                0x80010df4       0x48 Library/hal/spektrum_satellite.o
                0x80010df4                spektrum_satellite_get_neutral
 .text.spectrum_handler
                0x80010e3c      0x104 Library/hal/spektrum_satellite.o
 .text.spektrum_satellite_switch_off
                0x80010f40       0x20 Library/hal/spektrum_satellite.o
                0x80010f40                spektrum_satellite_switch_off
 .text.spektrum_satellite_switch_on
                0x80010f60       0x20 Library/hal/spektrum_satellite.o
                0x80010f60                spektrum_satellite_switch_on
 .text.spektrum_satellite_bind
                0x80010f80      0x118 Library/hal/spektrum_satellite.o
                0x80010f80                spektrum_satellite_bind
 .text.spektrum_satellite_init
                0x80011098       0x74 Library/hal/spektrum_satellite.o
                0x80011098                spektrum_satellite_init
 .text          0x8001110c        0x0 Library/hal/time_keeper.o
 .text.time_keeper_ticks_to_seconds
                0x8001110c       0x28 Library/hal/time_keeper.o
                0x8001110c                time_keeper_ticks_to_seconds
 .text.time_keeper_get_time_ticks
                0x80011134       0x18 Library/hal/time_keeper.o
                0x80011134                time_keeper_get_time_ticks
 .text.time_keeper_get_micros
                0x8001114c       0x14 Library/hal/time_keeper.o
                0x8001114c                time_keeper_get_micros
 .text.time_keeper_delay_until
                0x80011160       0x1c Library/hal/time_keeper.o
                0x80011160                time_keeper_delay_until
 .text.time_keeper_delay_micros
                0x8001117c       0x24 Library/hal/time_keeper.o
                0x8001117c                time_keeper_delay_micros
 .text.time_keeper_get_millis
                0x800111a0       0x24 Library/hal/time_keeper.o
                0x800111a0                time_keeper_get_millis
 .text.time_keeper_get_time
                0x800111c4       0x1c Library/hal/time_keeper.o
                0x800111c4                time_keeper_get_time
 .text.time_keeper_init
                0x800111e0       0x28 Library/hal/time_keeper.o
                0x800111e0                time_keeper_init
 .text          0x80011208        0x0 Library/hal/usb_int.o
 .text.usb_int_set_usb_conf
                0x80011208       0x24 Library/hal/usb_int.o
                0x80011208                usb_int_set_usb_conf
 .text.usb_int_get_usb_handle
                0x8001122c       0x18 Library/hal/usb_int.o
                0x8001122c                usb_int_get_usb_handle
 .text.usb_int_register_write_stream
                0x80011244       0x24 Library/hal/usb_int.o
                0x80011244                usb_int_register_write_stream
 .text.usb_int_register_read_stream
                0x80011268        0x4 Library/hal/usb_int.o
                0x80011268                usb_int_register_read_stream
 .text.usb_int_send_byte
                0x8001126c       0x2c Library/hal/usb_int.o
                0x8001126c                usb_int_send_byte
 .text.usb_int_init
                0x80011298       0x1c Library/hal/usb_int.o
                0x80011298                usb_int_init
 .text          0x800112b4        0x0 Library/hal/xbee.o
 .text.xbee_get_in_stream
                0x800112b4       0x18 Library/hal/xbee.o
                0x800112b4                xbee_get_in_stream
 .text.xbee_get_out_stream
                0x800112cc       0x18 Library/hal/xbee.o
                0x800112cc                xbee_get_out_stream
 .text.xbee_init
                0x800112e4       0x8c Library/hal/xbee.o
                0x800112e4                xbee_init
 .text          0x80011370        0x0 Library/runtime/scheduler_telemetry.o
 .text.scheduler_telemetry_send_rt_stats
                0x80011370      0x7d8 Library/runtime/scheduler_telemetry.o
                0x80011370                scheduler_telemetry_send_rt_stats
 .text          0x80011b48        0x0 Library/sensing/ahrs.o
 .text.ahrs_init
                0x80011b48       0x60 Library/sensing/ahrs.o
                0x80011b48                ahrs_init
 .text          0x80011ba8        0x0 Library/sensing/ahrs_telemetry.o
 .text.ahrs_telemetry_send_attitude_quaternion
                0x80011ba8      0x23c Library/sensing/ahrs_telemetry.o
                0x80011ba8                ahrs_telemetry_send_attitude_quaternion
 .text.ahrs_telemetry_send_attitude
                0x80011de4      0x224 Library/sensing/ahrs_telemetry.o
                0x80011de4                ahrs_telemetry_send_attitude
 .text          0x80012008        0x0 Library/sensing/imu_telemetry.o
 .text.imu_telemetry_send_raw
                0x80012008      0x23c Library/sensing/imu_telemetry.o
                0x80012008                imu_telemetry_send_raw
 .text.imu_telemetry_init
                0x80012244       0x38 Library/sensing/imu_telemetry.o
                0x80012244                imu_telemetry_init
 .text.imu_telemetry_start_calibration
                0x8001227c      0x118 Library/sensing/imu_telemetry.o
 .text.imu_telemetry_send_scaled
                0x80012394      0x24c Library/sensing/imu_telemetry.o
                0x80012394                imu_telemetry_send_scaled
 .text          0x800125e0        0x0 Library/sensing/position_estimation.o
 .text.gps_position_init
                0x800125e0       0xd0 Library/sensing/position_estimation.o
 .text.position_estimation_init
                0x800126b0       0xbc Library/sensing/position_estimation.o
                0x800126b0                position_estimation_init
 .text.position_estimation_reset_home_altitude
                0x8001276c      0x120 Library/sensing/position_estimation.o
                0x8001276c                position_estimation_reset_home_altitude
 .text.position_estimation_position_integration
                0x8001288c      0x360 Library/sensing/position_estimation.o
 .text.position_estimation_update
                0x80012bec      0x2e4 Library/sensing/position_estimation.o
                0x80012bec                position_estimation_update
 .text          0x80012ed0        0x0 Library/sensing/position_estimation_telemetry.o
 .text.position_estimation_telemetry_send_global_position
                0x80012ed0      0x2b4 Library/sensing/position_estimation_telemetry.o
                0x80012ed0                position_estimation_telemetry_send_global_position
 .text.position_estimation_telemetry_init
                0x80013184       0x38 Library/sensing/position_estimation_telemetry.o
                0x80013184                position_estimation_telemetry_init
 .text.position_estimation_set_new_home_position
                0x800131bc      0x198 Library/sensing/position_estimation_telemetry.o
 .text.position_estimation_telemetry_send_position
                0x80013354      0x200 Library/sensing/position_estimation_telemetry.o
                0x80013354                position_estimation_telemetry_send_position
 .text          0x80013554        0x0 Library/sensing/qfilter.o
 .text.qfilter_init
                0x80013554       0x4c Library/sensing/qfilter.o
                0x80013554                qfilter_init
 .text.qfilter_update
                0x800135a0      0x95c Library/sensing/qfilter.o
                0x800135a0                qfilter_update
 .text          0x80013efc        0x0 Library/sensing/simulation_telemetry.o
 .text.simulation_telemetry_send_state
                0x80013efc      0x3fc Library/sensing/simulation_telemetry.o
                0x80013efc                simulation_telemetry_send_state
 .text.simulation_telemetry_init
                0x800142f8       0x38 Library/sensing/simulation_telemetry.o
                0x800142f8                simulation_telemetry_init
 .text.simulation_telemetry_set_new_home_position
                0x80014330      0x19c Library/sensing/simulation_telemetry.o
 .text.simulation_telemetry_send_quaternions
                0x800144cc      0x480 Library/sensing/simulation_telemetry.o
                0x800144cc                simulation_telemetry_send_quaternions
 .text          0x8001494c        0x0 Library/util/linear_algebra.o
 .text.inv4     0x8001494c      0x4f8 Library/util/linear_algebra.o
                0x8001494c                inv4
 .text.inv3     0x80014e44      0x11c Library/util/linear_algebra.o
                0x80014e44                inv3
 .text.inv2     0x80014f60       0x6c Library/util/linear_algebra.o
                0x80014f60                inv2
 .text          0x80014fcc        0x0 Library/util/matrixlib_float.o
 .text.matf_zeros
                0x80014fcc       0x2c Library/util/matrixlib_float.o
                0x80014fcc                matf_zeros
 .text.matf_diag
                0x80014ff8       0x2c Library/util/matrixlib_float.o
                0x80014ff8                matf_diag
 .text.matf_copy
                0x80015024       0x1c Library/util/matrixlib_float.o
                0x80015024                matf_copy
 .text.matf_cross
                0x80015040       0x52 Library/util/matrixlib_float.o
                0x80015040                matf_cross
 .text.matf_copy_part
                0x80015092       0x64 Library/util/matrixlib_float.o
                0x80015092                matf_copy_part
 .text.matf_sum
                0x800150f6       0x1c Library/util/matrixlib_float.o
                0x800150f6                matf_sum
 .text.matf_add
                0x80015112       0x2e Library/util/matrixlib_float.o
                0x80015112                matf_add
 .text.matf_multiply_factor
                0x80015140       0x24 Library/util/matrixlib_float.o
                0x80015140                matf_multiply_factor
 .text.matf_sub
                0x80015164       0x2e Library/util/matrixlib_float.o
                0x80015164                matf_sub
 .text.matf_tr  0x80015192       0x48 Library/util/matrixlib_float.o
                0x80015192                matf_tr
 .text.matf_multiply
                0x800151da       0xaa Library/util/matrixlib_float.o
                0x800151da                matf_multiply
 .text.matf_multiply_Bt
                0x80015284       0xa2 Library/util/matrixlib_float.o
                0x80015284                matf_multiply_Bt
 *fill*         0x80015326        0x2 d703d703
 .text.matf_norm
                0x80015328       0x30 Library/util/matrixlib_float.o
                0x80015328                matf_norm
 .text.matf_std
                0x80015358       0x3c Library/util/matrixlib_float.o
                0x80015358                matf_std
 .text          0x80015394        0x0 Library/util/quick_trig.o
 .text.quick_trig_atan
                0x80015394      0x114 Library/util/quick_trig.o
                0x80015394                quick_trig_atan
 .text.quick_trig_tan
                0x800154a8       0xd4 Library/util/quick_trig.o
                0x800154a8                quick_trig_tan
 .text.quick_trig_acos
                0x8001557c       0xbc Library/util/quick_trig.o
                0x8001557c                quick_trig_acos
 .text.quick_trig_asin
                0x80015638       0x20 Library/util/quick_trig.o
                0x80015638                quick_trig_asin
 .text.quick_trig_sin
                0x80015658       0xfc Library/util/quick_trig.o
                0x80015658                quick_trig_sin
 .text.quick_trig_cos
                0x80015754       0x20 Library/util/quick_trig.o
                0x80015754                quick_trig_cos
 .text          0x80015774        0x0 src/central_data.o
 .text.central_data_get_pointer_to_struct
                0x80015774       0x18 src/central_data.o
                0x80015774                central_data_get_pointer_to_struct
 .text.central_data_init
                0x8001578c      0x448 src/central_data.o
                0x8001578c                central_data_init
 .text          0x80015bd4        0x0 src/mavlink_telemetry.o
 .text.mavlink_telemetry_init_communication_module
                0x80015bd4       0x54 src/mavlink_telemetry.o
                0x80015bd4                mavlink_telemetry_init_communication_module
 .text.mavlink_telemetry_add_data_logging_parameters
                0x80015c28      0x104 src/mavlink_telemetry.o
                0x80015c28                mavlink_telemetry_add_data_logging_parameters
 .text.mavlink_telemetry_init
                0x80015d2c      0x2f8 src/mavlink_telemetry.o
                0x80015d2c                mavlink_telemetry_init
 .text.mavlink_telemetry_add_onboard_parameters
                0x80016024      0x3e8 src/mavlink_telemetry.o
                0x80016024                mavlink_telemetry_add_onboard_parameters
 .text          0x8001640c        0x0 src/simu_gps_track.o
 .text.simu_gps_track_square_track
                0x8001640c     0x2c6c src/simu_gps_track.o
                0x8001640c                simu_gps_track_square_track
 .text.simu_gps_track_init
                0x80019078       0x20 src/simu_gps_track.o
                0x80019078                simu_gps_track_init
 .text.simu_gps_track_pack_msg
                0x80019098      0x250 src/simu_gps_track.o
                0x80019098                simu_gps_track_pack_msg
 .text.simu_gps_track_send_neighbor_heartbeat
                0x800192e8      0x128 src/simu_gps_track.o
                0x800192e8                simu_gps_track_send_neighbor_heartbeat
 .text.simu_gps_track_send_msg
                0x80019410      0x240 src/simu_gps_track.o
                0x80019410                simu_gps_track_send_msg
 .text          0x80019650        0x0 src/tasks.o
 .text.tasks_get_main_taskset
                0x80019650       0x1c src/tasks.o
                0x80019650                tasks_get_main_taskset
 .text.tasks_create_tasks
                0x8001966c      0x1ac src/tasks.o
                0x8001966c                tasks_create_tasks
 .text.tasks_led_toggle
                0x80019818       0x18 src/tasks.o
                0x80019818                tasks_led_toggle
 .text.tasks_run_barometer_update
                0x80019830       0x34 src/tasks.o
                0x80019830                tasks_run_barometer_update
 .text.tasks_run_gps_update
                0x80019864       0x34 src/tasks.o
                0x80019864                tasks_run_gps_update
 .text.tasks_run_imu_update
                0x80019898       0x78 src/tasks.o
                0x80019898                tasks_run_imu_update
 .text.tasks_run_stabilisation
                0x80019910      0x24c src/tasks.o
                0x80019910                tasks_run_stabilisation
 .text          0x80019b5c        0x0 Library/communication/mavlink_stream.o
 .text.mavlink_stream_init
                0x80019b5c       0x20 Library/communication/mavlink_stream.o
                0x80019b5c                mavlink_stream_init
 .text.mavlink_stream_flush
                0x80019b7c       0x10 Library/communication/mavlink_stream.o
                0x80019b7c                mavlink_stream_flush
 .text.mavlink_stream_receive
                0x80019b8c      0x304 Library/communication/mavlink_stream.o
                0x80019b8c                mavlink_stream_receive
 .text.mavlink_stream_send
                0x80019e90       0x5c Library/communication/mavlink_stream.o
                0x80019e90                mavlink_stream_send
 .text          0x80019eec        0x0 Library/communication/onboard_parameters.o
 .text.onboard_parameters_send_all_parameters
                0x80019eec       0x2e Library/communication/onboard_parameters.o
 *fill*         0x80019f1a        0x2 d703d703
 .text.onboard_parameters_read_parameters_from_flashc
                0x80019f1c       0xd0 Library/communication/onboard_parameters.o
                0x80019f1c                onboard_parameters_read_parameters_from_flashc
 .text.onboard_parameters_write_parameters_to_flashc
                0x80019fec       0xb4 Library/communication/onboard_parameters.o
                0x80019fec                onboard_parameters_write_parameters_to_flashc
 .text.onboard_parameters_preflight_storage
                0x8001a0a0       0x50 Library/communication/onboard_parameters.o
                0x8001a0a0                onboard_parameters_preflight_storage
 .text.onboard_parameters_add_parameter_float
                0x8001a0f0       0x7c Library/communication/onboard_parameters.o
                0x8001a0f0                onboard_parameters_add_parameter_float
 .text.onboard_parameters_add_parameter_int32
                0x8001a16c       0x7c Library/communication/onboard_parameters.o
                0x8001a16c                onboard_parameters_add_parameter_int32
 .text.onboard_parameters_add_parameter_uint32
                0x8001a1e8       0x6c Library/communication/onboard_parameters.o
                0x8001a1e8                onboard_parameters_add_parameter_uint32
 .text.onboard_parameters_init
                0x8001a254       0xfc Library/communication/onboard_parameters.o
                0x8001a254                onboard_parameters_init
 .text.onboard_parameters_receive_parameter
                0x8001a350      0x178 Library/communication/onboard_parameters.o
 .text.onboard_parameters_send_parameter
                0x8001a4c8       0xec Library/communication/onboard_parameters.o
 .text.onboard_parameters_send_scheduled_parameters
                0x8001a5b4      0x1f0 Library/communication/onboard_parameters.o
 .text          0x8001a7a4        0x0 Library/control/navigation.o
 .text.navigation_mode_change
                0x8001a7a4       0x16 Library/control/navigation.o
 *fill*         0x8001a7ba        0x2 d703d703
 .text.navigation_set_auto_landing
                0x8001a7bc       0x4c Library/control/navigation.o
 .text.navigation_set_auto_takeoff
                0x8001a808       0x38 Library/control/navigation.o
 .text.navigation_waypoint_hold_init
                0x8001a840       0xcc Library/control/navigation.o
                0x8001a840                navigation_waypoint_hold_init
 .text.navigation_start_stop_navigation
                0x8001a90c      0x164 Library/control/navigation.o
 .text.navigation_run
                0x8001aa70      0x480 Library/control/navigation.o
 .text.navigation_init
                0x8001aef0      0x168 Library/control/navigation.o
                0x8001aef0                navigation_init
 .text.navigation_waypoint_navigation_handler
                0x8001b058      0x52c Library/control/navigation.o
 .text.navigation_update
                0x8001b584      0xc30 Library/control/navigation.o
                0x8001b584                navigation_update
 .text          0x8001c1b4        0x0 Library/control/stabilisation.o
 .text.stabilisation_run
                0x8001c1b4       0x48 Library/control/stabilisation.o
                0x8001c1b4                stabilisation_run
 .text.stabilisation_init
                0x8001c1fc       0x38 Library/control/stabilisation.o
                0x8001c1fc                stabilisation_init
 .text          0x8001c234        0x0 Library/hal/adc_int.o
 .text.adc_int_clear_sequencer
                0x8001c234       0x24 Library/hal/adc_int.o
                0x8001c234                adc_int_clear_sequencer
 .text.adc_int_sequencer_add
                0x8001c258       0x68 Library/hal/adc_int.o
                0x8001c258                adc_int_sequencer_add
 .text.adc_int_sampling_complete
                0x8001c2c0       0x2c Library/hal/adc_int.o
                0x8001c2c0                adc_int_sampling_complete
 .text.adc_int_get_sample
                0x8001c2ec       0x20 Library/hal/adc_int.o
                0x8001c2ec                adc_int_get_sample
 .text.adc_int_get_buffer
                0x8001c30c       0x18 Library/hal/adc_int.o
                0x8001c30c                adc_int_get_buffer
 .text.adc_int_get_sampling_status
                0x8001c324       0x18 Library/hal/adc_int.o
                0x8001c324                adc_int_get_sampling_status
 .text.adc_int_get_period
                0x8001c33c       0x18 Library/hal/adc_int.o
                0x8001c33c                adc_int_get_period
 .text.adc_int_stop_sampling
                0x8001c354       0x1c Library/hal/adc_int.o
                0x8001c354                adc_int_stop_sampling
 .text.adc_int_start_sampling
                0x8001c370       0x88 Library/hal/adc_int.o
                0x8001c370                adc_int_start_sampling
 .text.adc_int_init
                0x8001c3f8       0x88 Library/hal/adc_int.o
                0x8001c3f8                adc_int_init
 .text.process_data
                0x8001c480      0x190 Library/hal/adc_int.o
 .text          0x8001c610        0x0 Library/hal/ads1274.o
 .text.get_interrupt_counter
                0x8001c610       0x18 Library/hal/ads1274.o
                0x8001c610                get_interrupt_counter
 .text.ads1274_set_DAC_generator_function
                0x8001c628       0x18 Library/hal/ads1274.o
                0x8001c628                ads1274_set_DAC_generator_function
 .text.get_sample
                0x8001c640       0x24 Library/hal/ads1274.o
                0x8001c640                get_sample
 .text.get_sampling_status
                0x8001c664       0x18 Library/hal/ads1274.o
                0x8001c664                get_sampling_status
 .text.ads1274_ADC_switch_channel
                0x8001c67c        0x2 Library/hal/ads1274.o
                0x8001c67c                ads1274_ADC_switch_channel
 .text.ads1274_ADC_set_mode
                0x8001c67e        0x2 Library/hal/ads1274.o
                0x8001c67e                ads1274_ADC_set_mode
 .text.ads1274_ADC_start_oneshot
                0x8001c680       0x1c Library/hal/ads1274.o
                0x8001c680                ads1274_ADC_start_oneshot
 .text.eic_nmi_handler
                0x8001c69c       0x28 Library/hal/ads1274.o
                0x8001c69c                eic_nmi_handler
 .text.ads1274_ADC_switch_clock
                0x8001c6c4       0x48 Library/hal/ads1274.o
                0x8001c6c4                ads1274_ADC_switch_clock
 .text.ads1274_init_DAC
                0x8001c70c       0xc8 Library/hal/ads1274.o
                0x8001c70c                ads1274_init_DAC
 .text.process_data
                0x8001c7d4       0x8c Library/hal/ads1274.o
                0x8001c7d4                process_data
 .text          0x8001c860        0x0 Library/hal/bmp085.o
 .text.bmp085_reset_origin_altitude
                0x8001c860       0x14 Library/hal/bmp085.o
                0x8001c860                bmp085_reset_origin_altitude
 .text.bmp085_read_int
                0x8001c874       0x3c Library/hal/bmp085.o
 .text.bmp085_update
                0x8001c8b0      0x358 Library/hal/bmp085.o
                0x8001c8b0                bmp085_update
 .text.bmp085_init_slow
                0x8001cc08      0x110 Library/hal/bmp085.o
                0x8001cc08                bmp085_init_slow
 .text.bmp085_init
                0x8001cd18       0x20 Library/hal/bmp085.o
                0x8001cd18                bmp085_init
 .text          0x8001cd38        0x0 Library/hal/dac_dma.o
 .text.DAC_pause
                0x8001cd38        0x2 Library/hal/dac_dma.o
                0x8001cd38                DAC_pause
 .text.DAC_resume
                0x8001cd3a        0x2 Library/hal/dac_dma.o
                0x8001cd3a                DAC_resume
 .text.DAC_is_finished
                0x8001cd3c        0x2 Library/hal/dac_dma.o
                0x8001cd3c                DAC_is_finished
 *fill*         0x8001cd3e        0x2 d703d703
 .text.dac_dma_set_value
                0x8001cd40       0x1c Library/hal/dac_dma.o
                0x8001cd40                dac_dma_set_value
 .text.dac_dma_play
                0x8001cd5c       0x44 Library/hal/dac_dma.o
                0x8001cd5c                dac_dma_play
 .text.pdca_int_handler_dac
                0x8001cda0       0x58 Library/hal/dac_dma.o
 .text.dac_dma_init
                0x8001cdf8       0xa0 Library/hal/dac_dma.o
                0x8001cdf8                dac_dma_init
 .text.init_gclk
                0x8001ce98       0x24 Library/hal/dac_dma.o
                0x8001ce98                init_gclk
 .text.init_pevc
                0x8001cebc       0x2c Library/hal/dac_dma.o
                0x8001cebc                init_pevc
 .text.dac_dma_load_buffer
                0x8001cee8       0x6c Library/hal/dac_dma.o
                0x8001cee8                dac_dma_load_buffer
 .text          0x8001cf54        0x0 Library/hal/led.o
 .text.LED_Read_Display
                0x8001cf54       0x18 Library/hal/led.o
                0x8001cf54                LED_Read_Display
 .text.LED_Display
                0x8001cf6c       0x60 Library/hal/led.o
                0x8001cf6c                LED_Display
 .text.LED_Read_Display_Mask
                0x8001cfcc       0x1c Library/hal/led.o
                0x8001cfcc                LED_Read_Display_Mask
 .text.LED_Test
                0x8001cfe8       0x20 Library/hal/led.o
                0x8001cfe8                LED_Test
 .text.LED_Get_Intensity
                0x8001d008        0x2 Library/hal/led.o
                0x8001d008                LED_Get_Intensity
 .text.LED_Set_Intensity
                0x8001d00a        0x2 Library/hal/led.o
                0x8001d00a                LED_Set_Intensity
 .text.LED_Read_Display_Field
                0x8001d00c       0x28 Library/hal/led.o
                0x8001d00c                LED_Read_Display_Field
 .text.LED_Toggle
                0x8001d034       0x5c Library/hal/led.o
                0x8001d034                LED_Toggle
 .text.LED_Off  0x8001d090       0x5c Library/hal/led.o
                0x8001d090                LED_Off
 .text.LED_On   0x8001d0ec       0x60 Library/hal/led.o
                0x8001d0ec                LED_On
 .text.LED_Display_Mask
                0x8001d14c       0x7c Library/hal/led.o
                0x8001d14c                LED_Display_Mask
 .text.LED_Display_Field
                0x8001d1c8       0x20 Library/hal/led.o
                0x8001d1c8                LED_Display_Field
 .text          0x8001d1e8        0x0 Library/hal/spi_buffered.o
 .text.spi_buffered_get_spi_in_buffer
                0x8001d1e8       0x20 Library/hal/spi_buffered.o
                0x8001d1e8                spi_buffered_get_spi_in_buffer
 .text.spi_buffered_set_callback
                0x8001d208       0x20 Library/hal/spi_buffered.o
                0x8001d208                spi_buffered_set_callback
 .text.spi_buffered_pause
                0x8001d228       0x24 Library/hal/spi_buffered.o
                0x8001d228                spi_buffered_pause
 .text.spi_buffered_activate_receive
                0x8001d24c       0x24 Library/hal/spi_buffered.o
                0x8001d24c                spi_buffered_activate_receive
 .text.spi_buffered_deactivate_receive
                0x8001d270       0x24 Library/hal/spi_buffered.o
                0x8001d270                spi_buffered_deactivate_receive
 .text.spi_buffered_clear_read_buffer
                0x8001d294       0x24 Library/hal/spi_buffered.o
                0x8001d294                spi_buffered_clear_read_buffer
 .text.spi_buffered_get_traffic
                0x8001d2b8       0x20 Library/hal/spi_buffered.o
                0x8001d2b8                spi_buffered_get_traffic
 .text.spi_buffered_read
                0x8001d2d8       0x4c Library/hal/spi_buffered.o
                0x8001d2d8                spi_buffered_read
 .text.spi_buffered_is_transfered_finished
                0x8001d324       0x28 Library/hal/spi_buffered.o
                0x8001d324                spi_buffered_is_transfered_finished
 .text.spi_buffered_bytes_available
                0x8001d34c       0x28 Library/hal/spi_buffered.o
                0x8001d34c                spi_buffered_bytes_available
 .text.spi_buffered_transmit
                0x8001d374       0x84 Library/hal/spi_buffered.o
                0x8001d374                spi_buffered_transmit
 .text.spi_handler
                0x8001d3f8       0xb8 Library/hal/spi_buffered.o
                0x8001d3f8                spi_handler
 .text.spi1_int_handler
                0x8001d4b0       0x18 Library/hal/spi_buffered.o
                0x8001d4b0                spi1_int_handler
 .text.spi0_int_handler
                0x8001d4c8       0x18 Library/hal/spi_buffered.o
                0x8001d4c8                spi0_int_handler
 .text.spi_buffered_start
                0x8001d4e0       0x64 Library/hal/spi_buffered.o
                0x8001d4e0                spi_buffered_start
 .text.spi_buffered_write
                0x8001d544       0x44 Library/hal/spi_buffered.o
                0x8001d544                spi_buffered_write
 .text.spi_buffered_resume
                0x8001d588       0x28 Library/hal/spi_buffered.o
                0x8001d588                spi_buffered_resume
 .text.spi_buffered_flush_buffer
                0x8001d5b0       0x30 Library/hal/spi_buffered.o
                0x8001d5b0                spi_buffered_flush_buffer
 .text.spi_buffered_disable
                0x8001d5e0       0x24 Library/hal/spi_buffered.o
                0x8001d5e0                spi_buffered_disable
 .text.spi_buffered_enable
                0x8001d604       0x24 Library/hal/spi_buffered.o
                0x8001d604                spi_buffered_enable
 .text.spi_buffered_trigger_DMA
                0x8001d628       0x60 Library/hal/spi_buffered.o
                0x8001d628                spi_buffered_trigger_DMA
 .text.spi_buffered_init_DMA
                0x8001d688       0x54 Library/hal/spi_buffered.o
                0x8001d688                spi_buffered_init_DMA
 .text.pdca_int_handler_spi0
                0x8001d6dc       0x54 Library/hal/spi_buffered.o
 .text.spi_buffered_init
                0x8001d730       0xec Library/hal/spi_buffered.o
                0x8001d730                spi_buffered_init
 .text          0x8001d81c        0x0 Library/hal/uart_int.o
 .text.uart_int_set_usart_conf
                0x8001d81c       0x84 Library/hal/uart_int.o
                0x8001d81c                uart_int_set_usart_conf
 .text.uart_int_get_uart_handle
                0x8001d8a0       0x20 Library/hal/uart_int.o
                0x8001d8a0                uart_int_get_uart_handle
 .text.uart_int_register_write_stream
                0x8001d8c0       0x2c Library/hal/uart_int.o
                0x8001d8c0                uart_int_register_write_stream
 .text.uart_int_register_read_stream
                0x8001d8ec        0x6 Library/hal/uart_int.o
                0x8001d8ec                uart_int_register_read_stream
 *fill*         0x8001d8f2        0x2 d703d703
 .text.uart_out_buffer_empty
                0x8001d8f4       0x18 Library/hal/uart_int.o
                0x8001d8f4                uart_out_buffer_empty
 .text.uart_int_flush
                0x8001d90c       0x24 Library/hal/uart_int.o
                0x8001d90c                uart_int_flush
 .text.uart_int_send_byte
                0x8001d930       0x30 Library/hal/uart_int.o
                0x8001d930                uart_int_send_byte
 .text.uart_int_bytes_available
                0x8001d960       0x18 Library/hal/uart_int.o
                0x8001d960                uart_int_bytes_available
 .text.uart_int_get_byte
                0x8001d978       0x1c Library/hal/uart_int.o
                0x8001d978                uart_int_get_byte
 .text.register_UART_handler
                0x8001d994       0x94 Library/hal/uart_int.o
                0x8001d994                register_UART_handler
 .text.uart_int_init
                0x8001da28       0xdc Library/hal/uart_int.o
                0x8001da28                uart_int_init
 .text.uart_handler_4
                0x8001db04       0x88 Library/hal/uart_int.o
 .text.uart_handler_3
                0x8001db8c       0x88 Library/hal/uart_int.o
 .text.uart_handler_2
                0x8001dc14       0x88 Library/hal/uart_int.o
 .text.uart_handler_1
                0x8001dc9c       0x88 Library/hal/uart_int.o
 .text.uart_handler_0
                0x8001dd24       0x7c Library/hal/uart_int.o
 .text          0x8001dda0        0x0 Library/runtime/scheduler.o
 .text.scheduler_sort_tasks
                0x8001dda0      0x120 Library/runtime/scheduler.o
                0x8001dda0                scheduler_sort_tasks
 .text.scheduler_get_task_by_id
                0x8001dec0       0x42 Library/runtime/scheduler.o
                0x8001dec0                scheduler_get_task_by_id
 .text.scheduler_get_task_by_index
                0x8001df02       0x18 Library/runtime/scheduler.o
                0x8001df02                scheduler_get_task_by_index
 .text.scheduler_change_run_mode
                0x8001df1a        0x4 Library/runtime/scheduler.o
                0x8001df1a                scheduler_change_run_mode
 *fill*         0x8001df1e        0x2 d703d703
 .text.scheduler_run_task_now
                0x8001df20       0x24 Library/runtime/scheduler.o
                0x8001df20                scheduler_run_task_now
 .text.scheduler_change_task_period
                0x8001df44       0x20 Library/runtime/scheduler.o
                0x8001df44                scheduler_change_task_period
 .text.scheduler_suspend_task
                0x8001df64       0x1c Library/runtime/scheduler.o
                0x8001df64                scheduler_suspend_task
 .text.scheduler_update
                0x8001df80      0x190 Library/runtime/scheduler.o
                0x8001df80                scheduler_update
 .text.scheduler_add_task
                0x8001e110       0xa4 Library/runtime/scheduler.o
                0x8001e110                scheduler_add_task
 .text.scheduler_init
                0x8001e1b4       0x54 Library/runtime/scheduler.o
                0x8001e1b4                scheduler_init
 .text          0x8001e208        0x0 Library/sensing/imu.o
 .text.imu_update
                0x8001e208      0x154 Library/sensing/imu.o
                0x8001e208                imu_update
 .text.imu_calibrate_gyros
                0x8001e35c       0x84 Library/sensing/imu.o
                0x8001e35c                imu_calibrate_gyros
 .text.imu_init
                0x8001e3e0      0x168 Library/sensing/imu.o
                0x8001e3e0                imu_init
 .text          0x8001e548        0x0 Library/sensing/simulation.o
 .text.forces_from_servos_cross_quad
                0x8001e548        0x2 Library/sensing/simulation.o
                0x8001e548                forces_from_servos_cross_quad
 *fill*         0x8001e54a        0x2 d703d703
 .text.simulation_calib_set
                0x8001e54c       0xc4 Library/sensing/simulation.o
                0x8001e54c                simulation_calib_set
 .text.simulation_switch_from_simulation_to_reality
                0x8001e610       0x64 Library/sensing/simulation.o
                0x8001e610                simulation_switch_from_simulation_to_reality
 .text.simulation_reset_simulation
                0x8001e674      0x148 Library/sensing/simulation.o
 .text.simulation_switch_from_reality_to_simulation
                0x8001e7bc       0x30 Library/sensing/simulation.o
                0x8001e7bc                simulation_switch_from_reality_to_simulation
 .text.simulation_fake_gps_fix
                0x8001e7ec       0xc8 Library/sensing/simulation.o
                0x8001e7ec                simulation_fake_gps_fix
 .text.simulation_simulate_gps
                0x8001e8b4       0x9c Library/sensing/simulation.o
                0x8001e8b4                simulation_simulate_gps
 .text.simulation_simulate_barometer
                0x8001e950       0x40 Library/sensing/simulation.o
                0x8001e950                simulation_simulate_barometer
 .text.simulation_init
                0x8001e990      0x100 Library/sensing/simulation.o
                0x8001e990                simulation_init
 .text.forces_from_servos_diag_quad
                0x8001ea90      0x370 Library/sensing/simulation.o
                0x8001ea90                forces_from_servos_diag_quad
 .text.simulation_update
                0x8001ee00      0xc10 Library/sensing/simulation.o
                0x8001ee00                simulation_update
 .text          0x8001fa10        0x0 Library/util/buffer.o
 .text.buffer_full
                0x8001fa10       0x14 Library/util/buffer.o
                0x8001fa10                buffer_full
 .text.buffer_put_lossy
                0x8001fa24       0x48 Library/util/buffer.o
                0x8001fa24                buffer_put_lossy
 .text.buffer_put
                0x8001fa6c       0x50 Library/util/buffer.o
                0x8001fa6c                buffer_put
 .text.buffer_get
                0x8001fabc       0x26 Library/util/buffer.o
                0x8001fabc                buffer_get
 .text.buffer_empty
                0x8001fae2       0x10 Library/util/buffer.o
                0x8001fae2                buffer_empty
 .text.buffer_bytes_available
                0x8001faf2       0x16 Library/util/buffer.o
                0x8001faf2                buffer_bytes_available
 .text.buffer_init
                0x8001fb08       0x10 Library/util/buffer.o
                0x8001fb08                buffer_init
 .text.buffer_clear
                0x8001fb18       0x10 Library/util/buffer.o
                0x8001fb18                buffer_clear
 .text.buffer_make_buffered_stream
                0x8001fb28       0x2c Library/util/buffer.o
                0x8001fb28                buffer_make_buffered_stream
 .text.buffer_make_buffered_stream_lossy
                0x8001fb54       0x2c Library/util/buffer.o
                0x8001fb54                buffer_make_buffered_stream_lossy
 .text          0x8001fb80        0x0 Library/util/coord_conventions.o
 .text.coord_conventions_get_yaw
                0x8001fb80       0x50 Library/util/coord_conventions.o
                0x8001fb80                coord_conventions_get_yaw
 .text.coord_conventions_quaternion_from_aero
                0x8001fbd0       0x98 Library/util/coord_conventions.o
                0x8001fbd0                coord_conventions_quaternion_from_aero
 .text.coord_conventions_quat_to_aero
                0x8001fc68       0xd0 Library/util/coord_conventions.o
                0x8001fc68                coord_conventions_quat_to_aero
 .text.coord_conventions_local_to_global_position
                0x8001fd38       0xe0 Library/util/coord_conventions.o
                0x8001fd38                coord_conventions_local_to_global_position
 .text.coord_conventions_global_to_local_position
                0x8001fe18      0x140 Library/util/coord_conventions.o
                0x8001fe18                coord_conventions_global_to_local_position
 .text          0x8001ff58        0x0 Library/util/generator.o
 .text.generator_init_dac_buffer_triangle
                0x8001ff58       0x64 Library/util/generator.o
                0x8001ff58                generator_init_dac_buffer_triangle
 .text.generator_ramp_generator
                0x8001ffbc       0x12 Library/util/generator.o
                0x8001ffbc                generator_ramp_generator
 *fill*         0x8001ffce        0x2 d703d703
 .text.generator_arbitrary_generator
                0x8001ffd0       0x28 Library/util/generator.o
                0x8001ffd0                generator_arbitrary_generator
 .text.generator_init_dac_buffer_sine
                0x8001fff8       0x80 Library/util/generator.o
                0x8001fff8                generator_init_dac_buffer_sine
 .text          0x80020078        0x0 Library/util/print_util.o
 .text.print_util_get_debug_stream
                0x80020078       0x18 Library/util/print_util.o
                0x80020078                print_util_get_debug_stream
 .text.print_util_dbg_print_init
                0x80020090       0x18 Library/util/print_util.o
                0x80020090                print_util_dbg_print_init
 .text.print_util_putstring
                0x800200a8       0x34 Library/util/print_util.o
                0x800200a8                print_util_putstring
 .text.print_util_putstring_length
                0x800200dc       0x2e Library/util/print_util.o
                0x800200dc                print_util_putstring_length
 *fill*         0x8002010a        0x2 d703d703
 .text.print_util_putdigit
                0x8002010c       0x30 Library/util/print_util.o
                0x8002010c                print_util_putdigit
 .text.print_util_putnum
                0x8002013c       0x7c Library/util/print_util.o
                0x8002013c                print_util_putnum
 .text.print_util_putlong
                0x800201b8       0xb4 Library/util/print_util.o
                0x800201b8                print_util_putlong
 .text.putnum_tight
                0x8002026c       0x74 Library/util/print_util.o
                0x8002026c                putnum_tight
 .text.print_util_putfloat
                0x800202e0       0x90 Library/util/print_util.o
                0x800202e0                print_util_putfloat
 .text.print_util_print_vector
                0x80020370       0x50 Library/util/print_util.o
                0x80020370                print_util_print_vector
 .text.print_util_print_quaternion
                0x800203c0       0x44 Library/util/print_util.o
                0x800203c0                print_util_print_quaternion
 .text.print_util_print_matrix
                0x80020404       0x84 Library/util/print_util.o
                0x80020404                print_util_print_matrix
 .text.print_util_dbg_print
                0x80020488       0x1c Library/util/print_util.o
                0x80020488                print_util_dbg_print
 .text.print_util_dbg_print_num
                0x800204a4       0x20 Library/util/print_util.o
                0x800204a4                print_util_dbg_print_num
 .text.print_util_dbg_putfloat
                0x800204c4       0x20 Library/util/print_util.o
                0x800204c4                print_util_dbg_putfloat
 .text.print_util_dbg_print_vector
                0x800204e4       0x20 Library/util/print_util.o
                0x800204e4                print_util_dbg_print_vector
 .text.print_util_dbg_print_quaternion
                0x80020504       0x20 Library/util/print_util.o
                0x80020504                print_util_dbg_print_quaternion
 .text.print_util_dbg_log_value
                0x80020524       0x34 Library/util/print_util.o
                0x80020524                print_util_dbg_log_value
 .text.print_util_dbg_print_long
                0x80020558       0x1c Library/util/print_util.o
                0x80020558                print_util_dbg_print_long
 .text          0x80020574        0x0 Library/util/sinus.o
 .text          0x80020574        0x0 src/asf/avr32/drivers/adcifa/adcifa.o
 .text.adcifa_get_calibration_data
                0x80020574       0x34 src/asf/avr32/drivers/adcifa/adcifa.o
                0x80020574                adcifa_get_calibration_data
 .text.adcifa_configure
                0x800205a8       0xae src/asf/avr32/drivers/adcifa/adcifa.o
                0x800205a8                adcifa_configure
 *fill*         0x80020656        0x2 d703d703
 .text.adcifa_configure_sequencer
                0x80020658      0x284 src/asf/avr32/drivers/adcifa/adcifa.o
                0x80020658                adcifa_configure_sequencer
 .text.adcifa_configure_window_monitor
                0x800208dc       0x76 src/asf/avr32/drivers/adcifa/adcifa.o
                0x800208dc                adcifa_configure_window_monitor
 .text.adcifa_start_sequencer
                0x80020952       0x34 src/asf/avr32/drivers/adcifa/adcifa.o
                0x80020952                adcifa_start_sequencer
 .text.adcifa_check_eoc
                0x80020986       0x26 src/asf/avr32/drivers/adcifa/adcifa.o
                0x80020986                adcifa_check_eoc
 .text.adcifa_check_eos
                0x800209ac       0x26 src/asf/avr32/drivers/adcifa/adcifa.o
                0x800209ac                adcifa_check_eos
 *fill*         0x800209d2        0x2 d703d703
 .text.adcifa_get_values_from_sequencer
                0x800209d4       0x88 src/asf/avr32/drivers/adcifa/adcifa.o
                0x800209d4                adcifa_get_values_from_sequencer
 .text.adcifa_start_itimer
                0x80020a5c        0xa src/asf/avr32/drivers/adcifa/adcifa.o
                0x80020a5c                adcifa_start_itimer
 .text.adcifa_stop_itimer
                0x80020a66        0x6 src/asf/avr32/drivers/adcifa/adcifa.o
                0x80020a66                adcifa_stop_itimer
 .text.adcifa_enable_interrupt
                0x80020a6c        0x6 src/asf/avr32/drivers/adcifa/adcifa.o
                0x80020a6c                adcifa_enable_interrupt
 .text.adcifa_disable_interrupt
                0x80020a72        0x6 src/asf/avr32/drivers/adcifa/adcifa.o
                0x80020a72                adcifa_disable_interrupt
 .text.adcifa_clear_interrupt
                0x80020a78        0x4 src/asf/avr32/drivers/adcifa/adcifa.o
                0x80020a78                adcifa_clear_interrupt
 .text          0x80020a7c        0x0 src/asf/avr32/drivers/ast/ast.o
 .text.ast_is_busy
                0x80020a7c        0x8 src/asf/avr32/drivers/ast/ast.o
 .text.ast_enable
                0x80020a84       0x28 src/asf/avr32/drivers/ast/ast.o
                0x80020a84                ast_enable
 .text.ast_set_calendar_value
                0x80020aac       0x28 src/asf/avr32/drivers/ast/ast.o
                0x80020aac                ast_set_calendar_value
 .text.ast_init_calendar
                0x80020ad4       0x3c src/asf/avr32/drivers/ast/ast.o
                0x80020ad4                ast_init_calendar
 .text.ast_set_counter_value
                0x80020b10       0x28 src/asf/avr32/drivers/ast/ast.o
                0x80020b10                ast_set_counter_value
 .text.ast_init_counter
                0x80020b38       0x24 src/asf/avr32/drivers/ast/ast.o
                0x80020b38                ast_init_counter
 .text.ast_get_calendar_value
                0x80020b5c        0x4 src/asf/avr32/drivers/ast/ast.o
                0x80020b5c                ast_get_calendar_value
 .text.ast_get_counter_value
                0x80020b60        0x4 src/asf/avr32/drivers/ast/ast.o
                0x80020b60                ast_get_counter_value
 .text.ast_set_alarm0_value
                0x80020b64        0x4 src/asf/avr32/drivers/ast/ast.o
                0x80020b64                ast_set_alarm0_value
 .text.ast_set_alarm1_value
                0x80020b68        0x4 src/asf/avr32/drivers/ast/ast.o
                0x80020b68                ast_set_alarm1_value
 .text.ast_enable_alarm0
                0x80020b6c       0x2c src/asf/avr32/drivers/ast/ast.o
                0x80020b6c                ast_enable_alarm0
 .text.ast_disable_alarm0
                0x80020b98       0x2c src/asf/avr32/drivers/ast/ast.o
                0x80020b98                ast_disable_alarm0
 .text.ast_enable_alarm1
                0x80020bc4       0x2c src/asf/avr32/drivers/ast/ast.o
                0x80020bc4                ast_enable_alarm1
 .text.ast_disable_alarm1
                0x80020bf0       0x2c src/asf/avr32/drivers/ast/ast.o
                0x80020bf0                ast_disable_alarm1
 .text.ast_set_periodic0_value
                0x80020c1c        0x4 src/asf/avr32/drivers/ast/ast.o
                0x80020c1c                ast_set_periodic0_value
 .text.ast_set_periodic1_value
                0x80020c20        0x4 src/asf/avr32/drivers/ast/ast.o
                0x80020c20                ast_set_periodic1_value
 .text.ast_enable_periodic0
                0x80020c24       0x2c src/asf/avr32/drivers/ast/ast.o
                0x80020c24                ast_enable_periodic0
 .text.ast_disable_periodic0
                0x80020c50       0x2c src/asf/avr32/drivers/ast/ast.o
                0x80020c50                ast_disable_periodic0
 .text.ast_enable_periodic1
                0x80020c7c       0x2c src/asf/avr32/drivers/ast/ast.o
                0x80020c7c                ast_enable_periodic1
 .text.ast_disable_periodic1
                0x80020ca8       0x2c src/asf/avr32/drivers/ast/ast.o
                0x80020ca8                ast_disable_periodic1
 .text          0x80020cd4        0x0 src/asf/avr32/drivers/dacifb/dacifb.o
 .text.dacifb_get_calibration_data
                0x80020cd4       0x30 src/asf/avr32/drivers/dacifb/dacifb.o
                0x80020cd4                dacifb_get_calibration_data
 .text.dacifb_check_eoc
                0x80020d04        0x4 src/asf/avr32/drivers/dacifb/dacifb.o
                0x80020d04                dacifb_check_eoc
 .text.dacifb_set_value
                0x80020d08       0x30 src/asf/avr32/drivers/dacifb/dacifb.o
                0x80020d08                dacifb_set_value
 .text.dacifb_reload_timer
                0x80020d38       0x48 src/asf/avr32/drivers/dacifb/dacifb.o
                0x80020d38                dacifb_reload_timer
 .text.dacifb_start_channel
                0x80020d80       0x94 src/asf/avr32/drivers/dacifb/dacifb.o
                0x80020d80                dacifb_start_channel
 .text.dacifb_configure_channel
                0x80020e14      0x254 src/asf/avr32/drivers/dacifb/dacifb.o
                0x80020e14                dacifb_configure_channel
 .text.dacifb_configure
                0x80021068       0xa6 src/asf/avr32/drivers/dacifb/dacifb.o
                0x80021068                dacifb_configure
 .text          0x8002110e        0x0 src/asf/avr32/drivers/eic/eic.o
 .text.eic_init
                0x8002110e       0xd0 src/asf/avr32/drivers/eic/eic.o
                0x8002110e                eic_init
 .text.eic_enable_lines
                0x800211de        0x4 src/asf/avr32/drivers/eic/eic.o
                0x800211de                eic_enable_lines
 .text.eic_enable_line
                0x800211e2        0xa src/asf/avr32/drivers/eic/eic.o
                0x800211e2                eic_enable_line
 .text.eic_disable_lines
                0x800211ec        0x4 src/asf/avr32/drivers/eic/eic.o
                0x800211ec                eic_disable_lines
 .text.eic_disable_line
                0x800211f0        0xa src/asf/avr32/drivers/eic/eic.o
                0x800211f0                eic_disable_line
 .text.eic_is_line_enabled
                0x800211fa       0x10 src/asf/avr32/drivers/eic/eic.o
                0x800211fa                eic_is_line_enabled
 .text.eic_enable_interrupt_lines
                0x8002120a        0x4 src/asf/avr32/drivers/eic/eic.o
                0x8002120a                eic_enable_interrupt_lines
 .text.eic_enable_interrupt_line
                0x8002120e        0xa src/asf/avr32/drivers/eic/eic.o
                0x8002120e                eic_enable_interrupt_line
 .text.eic_is_interrupt_line_enabled
                0x80021218       0x10 src/asf/avr32/drivers/eic/eic.o
                0x80021218                eic_is_interrupt_line_enabled
 .text.eic_is_interrupt_line_pending
                0x80021228       0x10 src/asf/avr32/drivers/eic/eic.o
                0x80021228                eic_is_interrupt_line_pending
 .text.eic_clear_interrupt_line
                0x80021238       0x16 src/asf/avr32/drivers/eic/eic.o
                0x80021238                eic_clear_interrupt_line
 .text.eic_clear_interrupt_lines
                0x8002124e       0x10 src/asf/avr32/drivers/eic/eic.o
                0x8002124e                eic_clear_interrupt_lines
 .text.eic_disable_interrupt_line
                0x8002125e       0x16 src/asf/avr32/drivers/eic/eic.o
                0x8002125e                eic_disable_interrupt_line
 .text.eic_disable_interrupt_lines
                0x80021274       0x10 src/asf/avr32/drivers/eic/eic.o
                0x80021274                eic_disable_interrupt_lines
 .text          0x80021284        0x0 src/asf/avr32/drivers/flashc/flashc.o
 .text.flashc_get_flash_size
                0x80021284       0x24 src/asf/avr32/drivers/flashc/flashc.o
                0x80021284                flashc_get_flash_size
 .text.flashc_get_page_count
                0x800212a8       0x18 src/asf/avr32/drivers/flashc/flashc.o
                0x800212a8                flashc_get_page_count
 .text.flashc_get_page_count_per_region
                0x800212c0       0x18 src/asf/avr32/drivers/flashc/flashc.o
                0x800212c0                flashc_get_page_count_per_region
 .text.flashc_get_region_first_page_number
                0x800212d8       0x18 src/asf/avr32/drivers/flashc/flashc.o
                0x800212d8                flashc_get_region_first_page_number
 .text.flashc_get_wait_state
                0x800212f0        0xc src/asf/avr32/drivers/flashc/flashc.o
                0x800212f0                flashc_get_wait_state
 .text.flashc_set_wait_state
                0x800212fc        0xe src/asf/avr32/drivers/flashc/flashc.o
                0x800212fc                flashc_set_wait_state
 *fill*         0x8002130a        0x2 d703d703
 .text.flashc_set_bus_freq
                0x8002130c       0x30 src/asf/avr32/drivers/flashc/flashc.o
                0x8002130c                flashc_set_bus_freq
 .text.flashc_is_ready_int_enabled
                0x8002133c        0xc src/asf/avr32/drivers/flashc/flashc.o
                0x8002133c                flashc_is_ready_int_enabled
 .text.flashc_enable_ready_int
                0x80021348        0xe src/asf/avr32/drivers/flashc/flashc.o
                0x80021348                flashc_enable_ready_int
 .text.flashc_is_lock_error_int_enabled
                0x80021356        0xc src/asf/avr32/drivers/flashc/flashc.o
                0x80021356                flashc_is_lock_error_int_enabled
 .text.flashc_enable_lock_error_int
                0x80021362        0xe src/asf/avr32/drivers/flashc/flashc.o
                0x80021362                flashc_enable_lock_error_int
 .text.flashc_is_prog_error_int_enabled
                0x80021370        0xc src/asf/avr32/drivers/flashc/flashc.o
                0x80021370                flashc_is_prog_error_int_enabled
 .text.flashc_enable_prog_error_int
                0x8002137c        0xe src/asf/avr32/drivers/flashc/flashc.o
                0x8002137c                flashc_enable_prog_error_int
 .text.flashc_is_ready
                0x8002138a        0xc src/asf/avr32/drivers/flashc/flashc.o
                0x8002138a                flashc_is_ready
 *fill*         0x80021396        0x2 d703d703
 .text.flashc_default_wait_until_ready
                0x80021398       0x18 src/asf/avr32/drivers/flashc/flashc.o
                0x80021398                flashc_default_wait_until_ready
 .text.flashc_is_lock_error
                0x800213b0       0x1c src/asf/avr32/drivers/flashc/flashc.o
                0x800213b0                flashc_is_lock_error
 .text.flashc_is_programming_error
                0x800213cc       0x1c src/asf/avr32/drivers/flashc/flashc.o
                0x800213cc                flashc_is_programming_error
 .text.flashc_get_command
                0x800213e8        0xc src/asf/avr32/drivers/flashc/flashc.o
                0x800213e8                flashc_get_command
 .text.flashc_get_page_number
                0x800213f4        0xc src/asf/avr32/drivers/flashc/flashc.o
                0x800213f4                flashc_get_page_number
 .text.flashc_get_page_region
                0x80021400       0x28 src/asf/avr32/drivers/flashc/flashc.o
                0x80021400                flashc_get_page_region
 .text.flashc_issue_command
                0x80021428       0x50 src/asf/avr32/drivers/flashc/flashc.o
                0x80021428                flashc_issue_command
 .text.flashc_no_operation
                0x80021478       0x18 src/asf/avr32/drivers/flashc/flashc.o
                0x80021478                flashc_no_operation
 .text.flashc_erase_all
                0x80021490       0x18 src/asf/avr32/drivers/flashc/flashc.o
                0x80021490                flashc_erase_all
 .text.flashc_is_security_bit_active
                0x800214a8        0xc src/asf/avr32/drivers/flashc/flashc.o
                0x800214a8                flashc_is_security_bit_active
 .text.flashc_activate_security_bit
                0x800214b4       0x18 src/asf/avr32/drivers/flashc/flashc.o
                0x800214b4                flashc_activate_security_bit
 .text.flashc_is_region_locked
                0x800214cc       0x1a src/asf/avr32/drivers/flashc/flashc.o
                0x800214cc                flashc_is_region_locked
 *fill*         0x800214e6        0x2 d703d703
 .text.flashc_is_page_region_locked
                0x800214e8       0x18 src/asf/avr32/drivers/flashc/flashc.o
                0x800214e8                flashc_is_page_region_locked
 .text.flashc_lock_page_region
                0x80021500       0x24 src/asf/avr32/drivers/flashc/flashc.o
                0x80021500                flashc_lock_page_region
 .text.flashc_lock_region
                0x80021524       0x1c src/asf/avr32/drivers/flashc/flashc.o
                0x80021524                flashc_lock_region
 .text.flashc_lock_all_regions
                0x80021540       0x34 src/asf/avr32/drivers/flashc/flashc.o
                0x80021540                flashc_lock_all_regions
 .text.flashc_read_all_gp_fuses
                0x80021574       0x26 src/asf/avr32/drivers/flashc/flashc.o
                0x80021574                flashc_read_all_gp_fuses
 *fill*         0x8002159a        0x2 d703d703
 .text.flashc_read_gp_fuse_byte
                0x8002159c       0x48 src/asf/avr32/drivers/flashc/flashc.o
                0x8002159c                flashc_read_gp_fuse_byte
 .text.flashc_read_gp_fuse_bitfield
                0x800215e4       0x7c src/asf/avr32/drivers/flashc/flashc.o
                0x800215e4                flashc_read_gp_fuse_bitfield
 .text.flashc_get_bootloader_protected_size
                0x80021660       0x2c src/asf/avr32/drivers/flashc/flashc.o
                0x80021660                flashc_get_bootloader_protected_size
 .text.flashc_read_gp_fuse_bit
                0x8002168c       0x40 src/asf/avr32/drivers/flashc/flashc.o
                0x8002168c                flashc_read_gp_fuse_bit
 .text.flashc_is_external_privileged_fetch_locked
                0x800216cc       0x1c src/asf/avr32/drivers/flashc/flashc.o
                0x800216cc                flashc_is_external_privileged_fetch_locked
 .text.flashc_erase_gp_fuse_bit
                0x800216e8       0x2c src/asf/avr32/drivers/flashc/flashc.o
                0x800216e8                flashc_erase_gp_fuse_bit
 .text.flashc_erase_gp_fuse_bitfield
                0x80021714       0x90 src/asf/avr32/drivers/flashc/flashc.o
                0x80021714                flashc_erase_gp_fuse_bitfield
 .text.flashc_erase_all_gp_fuses
                0x800217a4       0x30 src/asf/avr32/drivers/flashc/flashc.o
                0x800217a4                flashc_erase_all_gp_fuses
 .text.flashc_write_gp_fuse_bit
                0x800217d4       0x20 src/asf/avr32/drivers/flashc/flashc.o
                0x800217d4                flashc_write_gp_fuse_bit
 .text.flashc_write_gp_fuse_bitfield
                0x800217f4       0x50 src/asf/avr32/drivers/flashc/flashc.o
                0x800217f4                flashc_write_gp_fuse_bitfield
 .text.flashc_write_gp_fuse_byte
                0x80021844       0x20 src/asf/avr32/drivers/flashc/flashc.o
                0x80021844                flashc_write_gp_fuse_byte
 .text.flashc_erase_gp_fuse_byte
                0x80021864       0x64 src/asf/avr32/drivers/flashc/flashc.o
                0x80021864                flashc_erase_gp_fuse_byte
 .text.flashc_write_all_gp_fuses
                0x800218c8       0x40 src/asf/avr32/drivers/flashc/flashc.o
                0x800218c8                flashc_write_all_gp_fuses
 .text.flashc_set_gp_fuse_bit
                0x80021908       0x24 src/asf/avr32/drivers/flashc/flashc.o
                0x80021908                flashc_set_gp_fuse_bit
 .text.flashc_lock_external_privileged_fetch
                0x8002192c       0x20 src/asf/avr32/drivers/flashc/flashc.o
                0x8002192c                flashc_lock_external_privileged_fetch
 .text.flashc_set_gp_fuse_bitfield
                0x8002194c       0x50 src/asf/avr32/drivers/flashc/flashc.o
                0x8002194c                flashc_set_gp_fuse_bitfield
 .text.flashc_set_gp_fuse_byte
                0x8002199c       0x50 src/asf/avr32/drivers/flashc/flashc.o
                0x8002199c                flashc_set_gp_fuse_byte
 .text.flashc_set_all_gp_fuses
                0x800219ec       0x58 src/asf/avr32/drivers/flashc/flashc.o
                0x800219ec                flashc_set_all_gp_fuses
 .text.flashc_clear_page_buffer
                0x80021a44       0x18 src/asf/avr32/drivers/flashc/flashc.o
                0x80021a44                flashc_clear_page_buffer
 .text.flashc_is_page_erased
                0x80021a5c        0xc src/asf/avr32/drivers/flashc/flashc.o
                0x80021a5c                flashc_is_page_erased
 .text.flashc_quick_page_read
                0x80021a68       0x1c src/asf/avr32/drivers/flashc/flashc.o
                0x80021a68                flashc_quick_page_read
 .text.flashc_erase_page
                0x80021a84       0x38 src/asf/avr32/drivers/flashc/flashc.o
                0x80021a84                flashc_erase_page
 .text.flashc_erase_all_pages
                0x80021abc       0x48 src/asf/avr32/drivers/flashc/flashc.o
                0x80021abc                flashc_erase_all_pages
 .text.flashc_write_page
                0x80021b04       0x18 src/asf/avr32/drivers/flashc/flashc.o
                0x80021b04                flashc_write_page
 .text.flashc_quick_user_page_read
                0x80021b1c       0x1c src/asf/avr32/drivers/flashc/flashc.o
                0x80021b1c                flashc_quick_user_page_read
 .text.flashc_erase_user_page
                0x80021b38       0x28 src/asf/avr32/drivers/flashc/flashc.o
                0x80021b38                flashc_erase_user_page
 .text.flashc_write_user_page
                0x80021b60       0x18 src/asf/avr32/drivers/flashc/flashc.o
                0x80021b60                flashc_write_user_page
 .text.flashc_memset64
                0x80021b78      0x234 src/asf/avr32/drivers/flashc/flashc.o
                0x80021b78                flashc_memset64
 .text.flashc_memset32
                0x80021dac       0x28 src/asf/avr32/drivers/flashc/flashc.o
                0x80021dac                flashc_memset32
 .text.flashc_memset16
                0x80021dd4       0x18 src/asf/avr32/drivers/flashc/flashc.o
                0x80021dd4                flashc_memset16
 .text.flashc_memset8
                0x80021dec       0x1c src/asf/avr32/drivers/flashc/flashc.o
                0x80021dec                flashc_memset8
 .text.flashc_memcpy
                0x80021e08      0x30c src/asf/avr32/drivers/flashc/flashc.o
                0x80021e08                flashc_memcpy
 .text.flashc_set_flash_waitstate_and_readmode
                0x80022114       0x5c src/asf/avr32/drivers/flashc/flashc.o
                0x80022114                flashc_set_flash_waitstate_and_readmode
 .text.flashc_set_bootloader_protected_size
                0x80022170       0x58 src/asf/avr32/drivers/flashc/flashc.o
                0x80022170                flashc_set_bootloader_protected_size
 .text          0x800221c8        0x0 src/asf/avr32/drivers/gpio/gpio.o
 .text.gpio_enable_module_pin
                0x800221c8       0xa8 src/asf/avr32/drivers/gpio/gpio.o
                0x800221c8                gpio_enable_module_pin
 .text.gpio_enable_module
                0x80022270       0x38 src/asf/avr32/drivers/gpio/gpio.o
                0x80022270                gpio_enable_module
 .text.gpio_enable_gpio_pin
                0x800222a8       0x18 src/asf/avr32/drivers/gpio/gpio.o
                0x800222a8                gpio_enable_gpio_pin
 .text.gpio_enable_gpio
                0x800222c0       0x28 src/asf/avr32/drivers/gpio/gpio.o
                0x800222c0                gpio_enable_gpio
 .text.gpio_enable_pin_pull_up
                0x800222e8       0x1a src/asf/avr32/drivers/gpio/gpio.o
                0x800222e8                gpio_enable_pin_pull_up
 .text.gpio_disable_pin_pull_up
                0x80022302       0x16 src/asf/avr32/drivers/gpio/gpio.o
                0x80022302                gpio_disable_pin_pull_up
 .text.gpio_enable_pin_pull_down
                0x80022318       0x1a src/asf/avr32/drivers/gpio/gpio.o
                0x80022318                gpio_enable_pin_pull_down
 .text.gpio_disable_pin_pull_down
                0x80022332       0x16 src/asf/avr32/drivers/gpio/gpio.o
                0x80022332                gpio_disable_pin_pull_down
 .text.gpio_enable_pin_buskeeper
                0x80022348       0x1a src/asf/avr32/drivers/gpio/gpio.o
                0x80022348                gpio_enable_pin_buskeeper
 .text.gpio_disable_pin_buskeeper
                0x80022362       0x1a src/asf/avr32/drivers/gpio/gpio.o
                0x80022362                gpio_disable_pin_buskeeper
 .text.gpio_configure_pin
                0x8002237c      0x138 src/asf/avr32/drivers/gpio/gpio.o
                0x8002237c                gpio_configure_pin
 .text.gpio_configure_group
                0x800224b4       0xae src/asf/avr32/drivers/gpio/gpio.o
                0x800224b4                gpio_configure_group
 .text.gpio_get_pin_value
                0x80022562       0x16 src/asf/avr32/drivers/gpio/gpio.o
                0x80022562                gpio_get_pin_value
 .text.gpio_get_gpio_pin_output_value
                0x80022578       0x16 src/asf/avr32/drivers/gpio/gpio.o
                0x80022578                gpio_get_gpio_pin_output_value
 .text.gpio_get_gpio_open_drain_pin_output_value
                0x8002258e       0x1a src/asf/avr32/drivers/gpio/gpio.o
                0x8002258e                gpio_get_gpio_open_drain_pin_output_value
 .text.gpio_set_gpio_pin
                0x800225a8       0x1c src/asf/avr32/drivers/gpio/gpio.o
                0x800225a8                gpio_set_gpio_pin
 .text.gpio_set_pin_high
                0x800225c4       0x16 src/asf/avr32/drivers/gpio/gpio.o
                0x800225c4                gpio_set_pin_high
 .text.gpio_set_group_high
                0x800225da        0xc src/asf/avr32/drivers/gpio/gpio.o
                0x800225da                gpio_set_group_high
 .text.gpio_set_pin_low
                0x800225e6       0x16 src/asf/avr32/drivers/gpio/gpio.o
                0x800225e6                gpio_set_pin_low
 .text.gpio_clr_gpio_pin
                0x800225fc       0x1c src/asf/avr32/drivers/gpio/gpio.o
                0x800225fc                gpio_clr_gpio_pin
 .text.gpio_set_group_low
                0x80022618        0xc src/asf/avr32/drivers/gpio/gpio.o
                0x80022618                gpio_set_group_low
 .text.gpio_tgl_gpio_pin
                0x80022624       0x1c src/asf/avr32/drivers/gpio/gpio.o
                0x80022624                gpio_tgl_gpio_pin
 .text.gpio_toggle_pin
                0x80022640       0x16 src/asf/avr32/drivers/gpio/gpio.o
                0x80022640                gpio_toggle_pin
 .text.gpio_toggle_group
                0x80022656        0xc src/asf/avr32/drivers/gpio/gpio.o
                0x80022656                gpio_toggle_group
 .text.gpio_set_gpio_open_drain_pin
                0x80022662       0x18 src/asf/avr32/drivers/gpio/gpio.o
                0x80022662                gpio_set_gpio_open_drain_pin
 .text.gpio_clr_gpio_open_drain_pin
                0x8002267a       0x1c src/asf/avr32/drivers/gpio/gpio.o
                0x8002267a                gpio_clr_gpio_open_drain_pin
 .text.gpio_tgl_gpio_open_drain_pin
                0x80022696       0x1c src/asf/avr32/drivers/gpio/gpio.o
                0x80022696                gpio_tgl_gpio_open_drain_pin
 .text.gpio_enable_pin_glitch_filter
                0x800226b2       0x16 src/asf/avr32/drivers/gpio/gpio.o
                0x800226b2                gpio_enable_pin_glitch_filter
 .text.gpio_disable_pin_glitch_filter
                0x800226c8       0x16 src/asf/avr32/drivers/gpio/gpio.o
                0x800226c8                gpio_disable_pin_glitch_filter
 .text.gpio_enable_pin_interrupt
                0x800226de       0x46 src/asf/avr32/drivers/gpio/gpio.o
                0x800226de                gpio_enable_pin_interrupt
 .text.gpio_disable_pin_interrupt
                0x80022724       0x16 src/asf/avr32/drivers/gpio/gpio.o
                0x80022724                gpio_disable_pin_interrupt
 .text.gpio_get_pin_interrupt_flag
                0x8002273a       0x18 src/asf/avr32/drivers/gpio/gpio.o
                0x8002273a                gpio_get_pin_interrupt_flag
 .text.gpio_clear_pin_interrupt_flag
                0x80022752       0x16 src/asf/avr32/drivers/gpio/gpio.o
                0x80022752                gpio_clear_pin_interrupt_flag
 .text          0x80022768        0x0 src/asf/avr32/drivers/intc/exception.o
 .text          0x80022768        0x0 src/asf/avr32/drivers/intc/intc.o
 .text._unhandled_interrupt
                0x80022768        0x2 src/asf/avr32/drivers/intc/intc.o
 *fill*         0x8002276a        0x2 d703d703
 .text.INTC_register_interrupt
                0x8002276c       0x3c src/asf/avr32/drivers/intc/intc.o
                0x8002276c                INTC_register_interrupt
 .text.INTC_init_interrupts
                0x800227a8       0x58 src/asf/avr32/drivers/intc/intc.o
                0x800227a8                INTC_init_interrupts
 .text._get_interrupt_handler
                0x80022800       0x48 src/asf/avr32/drivers/intc/intc.o
                0x80022800                _get_interrupt_handler
 .text          0x80022848        0x0 src/asf/avr32/drivers/pdca/pdca.o
 .text.pdca_get_handler
                0x80022848       0x10 src/asf/avr32/drivers/pdca/pdca.o
                0x80022848                pdca_get_handler
 .text.pdca_get_channel_status
                0x80022858       0x1c src/asf/avr32/drivers/pdca/pdca.o
                0x80022858                pdca_get_channel_status
 .text.pdca_disable
                0x80022874       0x18 src/asf/avr32/drivers/pdca/pdca.o
                0x80022874                pdca_disable
 .text.pdca_enable
                0x8002288c       0x18 src/asf/avr32/drivers/pdca/pdca.o
                0x8002288c                pdca_enable
 .text.pdca_get_load_size
                0x800228a4       0x18 src/asf/avr32/drivers/pdca/pdca.o
                0x800228a4                pdca_get_load_size
 .text.pdca_get_reload_size
                0x800228bc       0x18 src/asf/avr32/drivers/pdca/pdca.o
                0x800228bc                pdca_get_reload_size
 .text.pdca_set_peripheral_select
                0x800228d4       0x18 src/asf/avr32/drivers/pdca/pdca.o
                0x800228d4                pdca_set_peripheral_select
 .text.pdca_set_transfer_size
                0x800228ec       0x20 src/asf/avr32/drivers/pdca/pdca.o
                0x800228ec                pdca_set_transfer_size
 .text.pdca_disable_event_trigger
                0x8002290c       0x1c src/asf/avr32/drivers/pdca/pdca.o
                0x8002290c                pdca_disable_event_trigger
 .text.pdca_enable_event_trigger
                0x80022928       0x1c src/asf/avr32/drivers/pdca/pdca.o
                0x80022928                pdca_enable_event_trigger
 .text.pdca_enable_interrupt_transfer_error
                0x80022944       0x18 src/asf/avr32/drivers/pdca/pdca.o
                0x80022944                pdca_enable_interrupt_transfer_error
 .text.pdca_enable_interrupt_transfer_complete
                0x8002295c       0x18 src/asf/avr32/drivers/pdca/pdca.o
                0x8002295c                pdca_enable_interrupt_transfer_complete
 .text.pdca_enable_interrupt_reload_counter_zero
                0x80022974       0x18 src/asf/avr32/drivers/pdca/pdca.o
                0x80022974                pdca_enable_interrupt_reload_counter_zero
 .text.pdca_get_transfer_status
                0x8002298c       0x18 src/asf/avr32/drivers/pdca/pdca.o
                0x8002298c                pdca_get_transfer_status
 .text.pdca_disable_interrupt_reload_counter_zero
                0x800229a4       0x34 src/asf/avr32/drivers/pdca/pdca.o
                0x800229a4                pdca_disable_interrupt_reload_counter_zero
 .text.pdca_disable_interrupt_transfer_complete
                0x800229d8       0x34 src/asf/avr32/drivers/pdca/pdca.o
                0x800229d8                pdca_disable_interrupt_transfer_complete
 .text.pdca_disable_interrupt_transfer_error
                0x80022a0c       0x34 src/asf/avr32/drivers/pdca/pdca.o
                0x80022a0c                pdca_disable_interrupt_transfer_error
 .text.pdca_reload_channel
                0x80022a40       0x44 src/asf/avr32/drivers/pdca/pdca.o
                0x80022a40                pdca_reload_channel
 .text.pdca_load_channel
                0x80022a84       0x44 src/asf/avr32/drivers/pdca/pdca.o
                0x80022a84                pdca_load_channel
 .text.pdca_init_channel
                0x80022ac8       0x60 src/asf/avr32/drivers/pdca/pdca.o
                0x80022ac8                pdca_init_channel
 .text          0x80022b28        0x0 src/asf/avr32/drivers/pevc/pevc.o
 .text.pevc_channel_configure
                0x80022b28       0x82 src/asf/avr32/drivers/pevc/pevc.o
                0x80022b28                pevc_channel_configure
 .text.pevc_igfd_set
                0x80022baa        0x8 src/asf/avr32/drivers/pevc/pevc.o
                0x80022baa                pevc_igfd_set
 .text.pevc_channels_enable
                0x80022bb2       0x16 src/asf/avr32/drivers/pevc/pevc.o
                0x80022bb2                pevc_channels_enable
 .text.pevc_channels_disable
                0x80022bc8       0x16 src/asf/avr32/drivers/pevc/pevc.o
                0x80022bc8                pevc_channels_disable
 .text.pevc_get_channel_status
                0x80022bde       0x34 src/asf/avr32/drivers/pevc/pevc.o
                0x80022bde                pevc_get_channel_status
 .text.pevc_get_channel_state
                0x80022c12       0x34 src/asf/avr32/drivers/pevc/pevc.o
                0x80022c12                pevc_get_channel_state
 .text.pevc_channel_sev_enable
                0x80022c46       0x14 src/asf/avr32/drivers/pevc/pevc.o
                0x80022c46                pevc_channel_sev_enable
 .text.pevc_channels_trigger_sev
                0x80022c5a       0x16 src/asf/avr32/drivers/pevc/pevc.o
                0x80022c5a                pevc_channels_trigger_sev
 .text.pevc_channel_sev_disable
                0x80022c70       0x14 src/asf/avr32/drivers/pevc/pevc.o
                0x80022c70                pevc_channel_sev_disable
 .text.pevc_channels_enable_trigger_interrupt
                0x80022c84       0x16 src/asf/avr32/drivers/pevc/pevc.o
                0x80022c84                pevc_channels_enable_trigger_interrupt
 .text.pevc_channels_disable_trigger_interrupt
                0x80022c9a       0x16 src/asf/avr32/drivers/pevc/pevc.o
                0x80022c9a                pevc_channels_disable_trigger_interrupt
 .text.pevc_channel_is_trigger_interrupt_enabled
                0x80022cb0       0x38 src/asf/avr32/drivers/pevc/pevc.o
                0x80022cb0                pevc_channel_is_trigger_interrupt_enabled
 .text.pevc_channel_is_trigger_interrupt_raised
                0x80022ce8       0x34 src/asf/avr32/drivers/pevc/pevc.o
                0x80022ce8                pevc_channel_is_trigger_interrupt_raised
 .text.pevc_channel_clear_trigger_interrupt
                0x80022d1c       0x22 src/asf/avr32/drivers/pevc/pevc.o
                0x80022d1c                pevc_channel_clear_trigger_interrupt
 .text.pevc_channels_enable_overrun_interrupt
                0x80022d3e       0x16 src/asf/avr32/drivers/pevc/pevc.o
                0x80022d3e                pevc_channels_enable_overrun_interrupt
 .text.pevc_channels_disable_overrun_interrupt
                0x80022d54       0x16 src/asf/avr32/drivers/pevc/pevc.o
                0x80022d54                pevc_channels_disable_overrun_interrupt
 .text.pevc_channel_is_overrun_interrupt_enabled
                0x80022d6a       0x38 src/asf/avr32/drivers/pevc/pevc.o
                0x80022d6a                pevc_channel_is_overrun_interrupt_enabled
 .text.pevc_channel_is_overrun_interrupt_raised
                0x80022da2       0x38 src/asf/avr32/drivers/pevc/pevc.o
                0x80022da2                pevc_channel_is_overrun_interrupt_raised
 .text.pevc_channel_clear_overrun_interrupt
                0x80022dda       0x22 src/asf/avr32/drivers/pevc/pevc.o
                0x80022dda                pevc_channel_clear_overrun_interrupt
 .text          0x80022dfc        0x0 src/asf/avr32/drivers/pm/pm_uc3c.o
 .text.pm_wait_for_clk_ready
                0x80022dfc       0x1c src/asf/avr32/drivers/pm/pm_uc3c.o
                0x80022dfc                pm_wait_for_clk_ready
 .text.pm_disable_module
                0x80022e18       0x3c src/asf/avr32/drivers/pm/pm_uc3c.o
                0x80022e18                pm_disable_module
 .text.pm_enable_module
                0x80022e54       0x3c src/asf/avr32/drivers/pm/pm_uc3c.o
                0x80022e54                pm_enable_module
 .text.pm_disable_clk_domain_div
                0x80022e90       0x44 src/asf/avr32/drivers/pm/pm_uc3c.o
                0x80022e90                pm_disable_clk_domain_div
 .text.pm_set_clk_domain_div
                0x80022ed4       0x4c src/asf/avr32/drivers/pm/pm_uc3c.o
                0x80022ed4                pm_set_clk_domain_div
 .text.pm_config_mainclk_safety
                0x80022f20       0x40 src/asf/avr32/drivers/pm/pm_uc3c.o
                0x80022f20                pm_config_mainclk_safety
 .text.pm_set_mclk_source
                0x80022f60       0x20 src/asf/avr32/drivers/pm/pm_uc3c.o
                0x80022f60                pm_set_mclk_source
 .text          0x80022f80        0x0 src/asf/avr32/drivers/pm/power_clocks_lib.o
 .text.pcl_read_gplp
                0x80022f80       0x14 src/asf/avr32/drivers/pm/power_clocks_lib.o
                0x80022f80                pcl_read_gplp
 .text.pcl_write_gplp
                0x80022f94       0x14 src/asf/avr32/drivers/pm/power_clocks_lib.o
                0x80022f94                pcl_write_gplp
 .text.pcl_configure_usb_clock
                0x80022fa8       0x50 src/asf/avr32/drivers/pm/power_clocks_lib.o
                0x80022fa8                pcl_configure_usb_clock
 .text.pcl_switch_to_osc
                0x80022ff8       0x3c src/asf/avr32/drivers/pm/power_clocks_lib.o
                0x80022ff8                pcl_switch_to_osc
 .text.pcl_configure_clocks
                0x80023034      0x1dc src/asf/avr32/drivers/pm/power_clocks_lib.o
                0x80023034                pcl_configure_clocks
 .text          0x80023210        0x0 src/asf/avr32/drivers/pwm/pwm4.o
 .text.pwm_write_protect_hw_lock
                0x80023210       0xc8 src/asf/avr32/drivers/pwm/pwm4.o
                0x80023210                pwm_write_protect_hw_lock
 .text.pwm_write_protect_sw_lock
                0x800232d8       0xbe src/asf/avr32/drivers/pwm/pwm4.o
                0x800232d8                pwm_write_protect_sw_lock
 .text.pwm_write_protect_sw_unlock
                0x80023396       0xbc src/asf/avr32/drivers/pwm/pwm4.o
                0x80023396                pwm_write_protect_sw_unlock
 .text.pwm_write_protect_status
                0x80023452       0x14 src/asf/avr32/drivers/pwm/pwm4.o
                0x80023452                pwm_write_protect_status
 .text.pwm_channel_init
                0x80023466       0x3e src/asf/avr32/drivers/pwm/pwm4.o
                0x80023466                pwm_channel_init
 .text.pwm_start_channels
                0x800234a4       0x12 src/asf/avr32/drivers/pwm/pwm4.o
                0x800234a4                pwm_start_channels
 .text.pwm_stop_channels
                0x800234b6       0x12 src/asf/avr32/drivers/pwm/pwm4.o
                0x800234b6                pwm_stop_channels
 .text.pwm_update_channel
                0x800234c8       0x40 src/asf/avr32/drivers/pwm/pwm4.o
                0x800234c8                pwm_update_channel
 .text.pwm_interrupt_update_channel
                0x80023508       0x28 src/asf/avr32/drivers/pwm/pwm4.o
                0x80023508                pwm_interrupt_update_channel
 .text.pwm_output_override_setup
                0x80023530       0x48 src/asf/avr32/drivers/pwm/pwm4.o
                0x80023530                pwm_output_override_setup
 .text.pwm_output_override_write
                0x80023578       0x60 src/asf/avr32/drivers/pwm/pwm4.o
                0x80023578                pwm_output_override_write
 .text.pwm_update_period_value
                0x800235d8        0x8 src/asf/avr32/drivers/pwm/pwm4.o
                0x800235d8                pwm_update_period_value
 .text.pwm_synchronous_prepare_update
                0x800235e0       0x38 src/asf/avr32/drivers/pwm/pwm4.o
                0x800235e0                pwm_synchronous_prepare_update
 .text.pwm_update_manual_write_manual_update
                0x80023618        0xa src/asf/avr32/drivers/pwm/pwm4.o
                0x80023618                pwm_update_manual_write_manual_update
 .text.pwm_update_manual_write_auto_update
                0x80023622        0xe src/asf/avr32/drivers/pwm/pwm4.o
                0x80023622                pwm_update_manual_write_auto_update
 .text.pwm_update_auto_write_auto_update_check_ready
                0x80023630        0xe src/asf/avr32/drivers/pwm/pwm4.o
                0x80023630                pwm_update_auto_write_auto_update_check_ready
 .text.pwm_update_auto_write_auto_update_check_eot
                0x8002363e        0xe src/asf/avr32/drivers/pwm/pwm4.o
                0x8002363e                pwm_update_auto_write_auto_update_check_eot
 .text.pwm_fault_lines_polarity_setup
                0x8002364c       0xb4 src/asf/avr32/drivers/pwm/pwm4.o
                0x8002364c                pwm_fault_lines_polarity_setup
 .text.pwm_fault_lines_level_setup
                0x80023700       0x74 src/asf/avr32/drivers/pwm/pwm4.o
                0x80023700                pwm_fault_lines_level_setup
 .text.pwm_fault_lines_enable
                0x80023774       0x38 src/asf/avr32/drivers/pwm/pwm4.o
                0x80023774                pwm_fault_lines_enable
 .text.pwm_get_fault_status
                0x800237ac        0x8 src/asf/avr32/drivers/pwm/pwm4.o
                0x800237ac                pwm_get_fault_status
 .text.pwm_clr_fault_status
                0x800237b4        0xe src/asf/avr32/drivers/pwm/pwm4.o
                0x800237b4                pwm_clr_fault_status
 .text.pwm_compare_match_setup
                0x800237c2       0x48 src/asf/avr32/drivers/pwm/pwm4.o
                0x800237c2                pwm_compare_match_setup
 .text.pwm_compare_match_reload_setup
                0x8002380a       0x3e src/asf/avr32/drivers/pwm/pwm4.o
                0x8002380a                pwm_compare_match_reload_setup
 .text.pwm_compare_event_enable
                0x80023848       0x16 src/asf/avr32/drivers/pwm/pwm4.o
                0x80023848                pwm_compare_event_enable
 .text.pwm_compare_event_disable
                0x8002385e       0x1c src/asf/avr32/drivers/pwm/pwm4.o
                0x8002385e                pwm_compare_event_disable
 *fill*         0x8002387a        0x2 d703d703
 .text.pwm_init
                0x8002387c      0x100 src/asf/avr32/drivers/pwm/pwm4.o
                0x8002387c                pwm_init
 .text          0x8002397c        0x0 src/asf/avr32/drivers/scif/scif_uc3c.o
 .text.scif_pclksr_statushigh_wait
                0x8002397c       0x1a src/asf/avr32/drivers/scif/scif_uc3c.o
 .text.scif_read_gplp
                0x80023996        0xc src/asf/avr32/drivers/scif/scif_uc3c.o
                0x80023996                scif_read_gplp
 .text.scif_write_gplp
                0x800239a2       0x16 src/asf/avr32/drivers/scif/scif_uc3c.o
                0x800239a2                scif_write_gplp
 .text.scif_is_osc_ready
                0x800239b8       0x1c src/asf/avr32/drivers/scif/scif_uc3c.o
                0x800239b8                scif_is_osc_ready
 .text.scif_wait_for_pll_locked
                0x800239d4       0x20 src/asf/avr32/drivers/scif/scif_uc3c.o
                0x800239d4                scif_wait_for_pll_locked
 .text.scif_start_gclk
                0x800239f4       0x3e src/asf/avr32/drivers/scif/scif_uc3c.o
                0x800239f4                scif_start_gclk
 .text.scif_stop_gclk
                0x80023a32       0x30 src/asf/avr32/drivers/scif/scif_uc3c.o
                0x80023a32                scif_stop_gclk
 *fill*         0x80023a62        0x2 d703d703
 .text.scif_gc_setup
                0x80023a64       0x90 src/asf/avr32/drivers/scif/scif_uc3c.o
                0x80023a64                scif_gc_setup
 .text.scif_gc_enable
                0x80023af4       0x24 src/asf/avr32/drivers/scif/scif_uc3c.o
                0x80023af4                scif_gc_enable
 .text.scif_bod18_enable_irq
                0x80023b18        0xa src/asf/avr32/drivers/scif/scif_uc3c.o
                0x80023b18                scif_bod18_enable_irq
 .text.scif_bod18_clear_irq
                0x80023b22        0xa src/asf/avr32/drivers/scif/scif_uc3c.o
                0x80023b22                scif_bod18_clear_irq
 .text.scif_bod18_get_irq_status
                0x80023b2c        0xc src/asf/avr32/drivers/scif/scif_uc3c.o
                0x80023b2c                scif_bod18_get_irq_status
 .text.scif_bod18_get_irq_enable_bit
                0x80023b38        0xc src/asf/avr32/drivers/scif/scif_uc3c.o
                0x80023b38                scif_bod18_get_irq_enable_bit
 .text.scif_bod18_get_level
                0x80023b44        0xc src/asf/avr32/drivers/scif/scif_uc3c.o
                0x80023b44                scif_bod18_get_level
 .text.scif_bod33_enable_irq
                0x80023b50        0xc src/asf/avr32/drivers/scif/scif_uc3c.o
                0x80023b50                scif_bod33_enable_irq
 .text.scif_bod33_clear_irq
                0x80023b5c        0xc src/asf/avr32/drivers/scif/scif_uc3c.o
                0x80023b5c                scif_bod33_clear_irq
 .text.scif_bod33_get_irq_status
                0x80023b68        0xc src/asf/avr32/drivers/scif/scif_uc3c.o
                0x80023b68                scif_bod33_get_irq_status
 .text.scif_bod33_get_irq_enable_bit
                0x80023b74        0xc src/asf/avr32/drivers/scif/scif_uc3c.o
                0x80023b74                scif_bod33_get_irq_enable_bit
 .text.scif_bod33_get_level
                0x80023b80        0xc src/asf/avr32/drivers/scif/scif_uc3c.o
                0x80023b80                scif_bod33_get_level
 .text.scif_bod50_enable_irq
                0x80023b8c        0xc src/asf/avr32/drivers/scif/scif_uc3c.o
                0x80023b8c                scif_bod50_enable_irq
 .text.scif_bod50_clear_irq
                0x80023b98        0xc src/asf/avr32/drivers/scif/scif_uc3c.o
                0x80023b98                scif_bod50_clear_irq
 .text.scif_bod50_get_irq_status
                0x80023ba4        0xc src/asf/avr32/drivers/scif/scif_uc3c.o
                0x80023ba4                scif_bod50_get_irq_status
 .text.scif_bod50_get_irq_enable_bit
                0x80023bb0        0xc src/asf/avr32/drivers/scif/scif_uc3c.o
                0x80023bb0                scif_bod50_get_irq_enable_bit
 .text.scif_bod50_get_level
                0x80023bbc        0xc src/asf/avr32/drivers/scif/scif_uc3c.o
                0x80023bbc                scif_bod50_get_level
 .text.scif_bod50_disable_irq
                0x80023bc8       0x2a src/asf/avr32/drivers/scif/scif_uc3c.o
                0x80023bc8                scif_bod50_disable_irq
 .text.scif_bod33_disable_irq
                0x80023bf2       0x2a src/asf/avr32/drivers/scif/scif_uc3c.o
                0x80023bf2                scif_bod33_disable_irq
 .text.scif_bod18_disable_irq
                0x80023c1c       0x26 src/asf/avr32/drivers/scif/scif_uc3c.o
                0x80023c1c                scif_bod18_disable_irq
 .text.scif_stop_rc120M
                0x80023c42       0x26 src/asf/avr32/drivers/scif/scif_uc3c.o
                0x80023c42                scif_stop_rc120M
 .text.scif_start_rc120M
                0x80023c68       0x24 src/asf/avr32/drivers/scif/scif_uc3c.o
                0x80023c68                scif_start_rc120M
 .text.scif_stop_rc8M
                0x80023c8c       0x26 src/asf/avr32/drivers/scif/scif_uc3c.o
                0x80023c8c                scif_stop_rc8M
 .text.scif_start_rc8M
                0x80023cb2       0x2e src/asf/avr32/drivers/scif/scif_uc3c.o
                0x80023cb2                scif_start_rc8M
 .text.scif_stop_osc32
                0x80023ce0       0x26 src/asf/avr32/drivers/scif/scif_uc3c.o
                0x80023ce0                scif_stop_osc32
 *fill*         0x80023d06        0x2 d703d703
 .text.scif_start_osc32
                0x80023d08       0x58 src/asf/avr32/drivers/scif/scif_uc3c.o
                0x80023d08                scif_start_osc32
 .text.scif_pll_disable
                0x80023d60       0x44 src/asf/avr32/drivers/scif/scif_uc3c.o
                0x80023d60                scif_pll_disable
 .text.scif_pll_enable
                0x80023da4       0x44 src/asf/avr32/drivers/scif/scif_uc3c.o
                0x80023da4                scif_pll_enable
 .text.scif_pll_setup
                0x80023de8       0x76 src/asf/avr32/drivers/scif/scif_uc3c.o
                0x80023de8                scif_pll_setup
 .text.scif_enable_extosc
                0x80023e5e       0x44 src/asf/avr32/drivers/scif/scif_uc3c.o
                0x80023e5e                scif_enable_extosc
 *fill*         0x80023ea2        0x2 d703d703
 .text.scif_enable_osc
                0x80023ea4       0x68 src/asf/avr32/drivers/scif/scif_uc3c.o
                0x80023ea4                scif_enable_osc
 .text.scif_configure_osc_extmode
                0x80023f0c       0x44 src/asf/avr32/drivers/scif/scif_uc3c.o
                0x80023f0c                scif_configure_osc_extmode
 .text.scif_configure_osc_crystalmode
                0x80023f50       0xc4 src/asf/avr32/drivers/scif/scif_uc3c.o
                0x80023f50                scif_configure_osc_crystalmode
 .text.scif_stop_osc
                0x80024014       0x2c src/asf/avr32/drivers/scif/scif_uc3c.o
                0x80024014                scif_stop_osc
 .text.scif_start_osc
                0x80024040       0x88 src/asf/avr32/drivers/scif/scif_uc3c.o
                0x80024040                scif_start_osc
 .text          0x800240c8        0x0 src/asf/avr32/drivers/spi/spi.o
 .text.getBaudDiv
                0x800240c8       0x1a src/asf/avr32/drivers/spi/spi.o
                0x800240c8                getBaudDiv
 .text.spi_initSlave
                0x800240e2       0x56 src/asf/avr32/drivers/spi/spi.o
                0x800240e2                spi_initSlave
 .text.spi_initTest
                0x80024138       0x10 src/asf/avr32/drivers/spi/spi.o
                0x80024138                spi_initTest
 .text.spi_initMaster
                0x80024148       0x38 src/asf/avr32/drivers/spi/spi.o
                0x80024148                spi_initMaster
 .text.spi_selectionMode
                0x80024180       0x3e src/asf/avr32/drivers/spi/spi.o
                0x80024180                spi_selectionMode
 .text.spi_selectChip
                0x800241be       0x4c src/asf/avr32/drivers/spi/spi.o
                0x800241be                spi_selectChip
 .text.spi_unselectChip
                0x8002420a       0x26 src/asf/avr32/drivers/spi/spi.o
                0x8002420a                spi_unselectChip
 .text.spi_setupChipReg
                0x80024230       0xc8 src/asf/avr32/drivers/spi/spi.o
                0x80024230                spi_setupChipReg
 .text.spi_enable
                0x800242f8        0x6 src/asf/avr32/drivers/spi/spi.o
                0x800242f8                spi_enable
 .text.spi_disable
                0x800242fe        0x6 src/asf/avr32/drivers/spi/spi.o
                0x800242fe                spi_disable
 .text.spi_is_enabled
                0x80024304        0x8 src/asf/avr32/drivers/spi/spi.o
                0x80024304                spi_is_enabled
 .text.spi_writeRegisterEmptyCheck
                0x8002430c        0x8 src/asf/avr32/drivers/spi/spi.o
                0x8002430c                spi_writeRegisterEmptyCheck
 .text.spi_write
                0x80024314       0x1c src/asf/avr32/drivers/spi/spi.o
                0x80024314                spi_write
 .text.spi_variableSlaveWrite
                0x80024330       0x54 src/asf/avr32/drivers/spi/spi.o
                0x80024330                spi_variableSlaveWrite
 .text.spi_writeEndCheck
                0x80024384        0x8 src/asf/avr32/drivers/spi/spi.o
                0x80024384                spi_writeEndCheck
 .text.spi_readRegisterFullCheck
                0x8002438c        0x8 src/asf/avr32/drivers/spi/spi.o
                0x8002438c                spi_readRegisterFullCheck
 .text.spi_read
                0x80024394       0x20 src/asf/avr32/drivers/spi/spi.o
                0x80024394                spi_read
 .text.spi_getStatus
                0x800243b4       0x20 src/asf/avr32/drivers/spi/spi.o
                0x800243b4                spi_getStatus
 .text          0x800243d4        0x0 src/asf/avr32/drivers/tc/tc.o
 .text.tc_get_interrupt_settings
                0x800243d4       0x12 src/asf/avr32/drivers/tc/tc.o
                0x800243d4                tc_get_interrupt_settings
 .text.tc_select_external_clock
                0x800243e6       0x3e src/asf/avr32/drivers/tc/tc.o
                0x800243e6                tc_select_external_clock
 .text.tc_init_capture
                0x80024424       0x58 src/asf/avr32/drivers/tc/tc.o
                0x80024424                tc_init_capture
 .text.tc_init_waveform
                0x8002447c       0x9c src/asf/avr32/drivers/tc/tc.o
                0x8002447c                tc_init_waveform
 .text.tc_start
                0x80024518       0x1c src/asf/avr32/drivers/tc/tc.o
                0x80024518                tc_start
 .text.tc_stop  0x80024534       0x1c src/asf/avr32/drivers/tc/tc.o
                0x80024534                tc_stop
 .text.tc_software_trigger
                0x80024550       0x1c src/asf/avr32/drivers/tc/tc.o
                0x80024550                tc_software_trigger
 .text.tc_sync_trigger
                0x8002456c        0x8 src/asf/avr32/drivers/tc/tc.o
                0x8002456c                tc_sync_trigger
 .text.tc_sync_start
                0x80024574       0x12 src/asf/avr32/drivers/tc/tc.o
                0x80024574                tc_sync_start
 .text.tc_read_sr
                0x80024586       0x12 src/asf/avr32/drivers/tc/tc.o
                0x80024586                tc_read_sr
 .text.tc_read_tc
                0x80024598       0x16 src/asf/avr32/drivers/tc/tc.o
                0x80024598                tc_read_tc
 .text.tc_read_ra
                0x800245ae       0x16 src/asf/avr32/drivers/tc/tc.o
                0x800245ae                tc_read_ra
 .text.tc_read_rb
                0x800245c4       0x16 src/asf/avr32/drivers/tc/tc.o
                0x800245c4                tc_read_rb
 .text.tc_read_rc
                0x800245da       0x16 src/asf/avr32/drivers/tc/tc.o
                0x800245da                tc_read_rc
 .text.tc_write_ra
                0x800245f0       0x34 src/asf/avr32/drivers/tc/tc.o
                0x800245f0                tc_write_ra
 .text.tc_write_rb
                0x80024624       0x34 src/asf/avr32/drivers/tc/tc.o
                0x80024624                tc_write_rb
 .text.tc_write_rc
                0x80024658       0x34 src/asf/avr32/drivers/tc/tc.o
                0x80024658                tc_write_rc
 .text.tc_configure_interrupts
                0x8002468c      0x108 src/asf/avr32/drivers/tc/tc.o
                0x8002468c                tc_configure_interrupts
 .text          0x80024794        0x0 src/asf/avr32/drivers/twim/twim.o
 .text.twim_master_interrupt_handler
                0x80024794       0xf0 src/asf/avr32/drivers/twim/twim.o
 .text.twim_master_interrupt_handler2
                0x80024884       0xe8 src/asf/avr32/drivers/twim/twim.o
 .text.twim_set_speed
                0x8002496c       0x70 src/asf/avr32/drivers/twim/twim.o
                0x8002496c                twim_set_speed
 .text.twim_status
                0x800249dc       0x20 src/asf/avr32/drivers/twim/twim.o
                0x800249dc                twim_status
 .text.twim_disable_interrupt
                0x800249fc       0x14 src/asf/avr32/drivers/twim/twim.o
                0x800249fc                twim_disable_interrupt
 .text.twim_chained_transfer
                0x80024a10      0x1e4 src/asf/avr32/drivers/twim/twim.o
                0x80024a10                twim_chained_transfer
 .text.twim_write
                0x80024bf4       0xa8 src/asf/avr32/drivers/twim/twim.o
                0x80024bf4                twim_write
 .text.twim_probe
                0x80024c9c       0x24 src/asf/avr32/drivers/twim/twim.o
                0x80024c9c                twim_probe
 .text.twim_write_packet
                0x80024cc0      0x138 src/asf/avr32/drivers/twim/twim.o
                0x80024cc0                twim_write_packet
 .text.twim_read
                0x80024df8       0xdc src/asf/avr32/drivers/twim/twim.o
                0x80024df8                twim_read
 .text.twim_read_packet
                0x80024ed4      0x118 src/asf/avr32/drivers/twim/twim.o
                0x80024ed4                twim_read_packet
 .text.twim_master_init
                0x80024fec       0xb8 src/asf/avr32/drivers/twim/twim.o
                0x80024fec                twim_master_init
 .text          0x800250a4        0x0 src/asf/avr32/drivers/usart/usart.o
 .text.usart_set_async_baudrate
                0x800250a4       0x5a src/asf/avr32/drivers/usart/usart.o
 .text.usart_set_sync_master_baudrate
                0x800250fe       0x28 src/asf/avr32/drivers/usart/usart.o
 .text.usart_spi_selectChip
                0x80025126        0x8 src/asf/avr32/drivers/usart/usart.o
                0x80025126                usart_spi_selectChip
 .text.usart_spi_unselectChip
                0x8002512e       0x1e src/asf/avr32/drivers/usart/usart.o
                0x8002512e                usart_spi_unselectChip
 .text.usart_write_char
                0x8002514c       0x18 src/asf/avr32/drivers/usart/usart.o
                0x8002514c                usart_write_char
 .text.usart_send_address
                0x80025164       0x38 src/asf/avr32/drivers/usart/usart.o
                0x80025164                usart_send_address
 .text.usart_putchar
                0x8002519c       0x28 src/asf/avr32/drivers/usart/usart.o
                0x8002519c                usart_putchar
 .text.usart_read_char
                0x800251c4       0x22 src/asf/avr32/drivers/usart/usart.o
                0x800251c4                usart_read_char
 *fill*         0x800251e6        0x2 d703d703
 .text.usart_getchar
                0x800251e8       0x30 src/asf/avr32/drivers/usart/usart.o
                0x800251e8                usart_getchar
 .text.usart_write_line
                0x80025218       0x28 src/asf/avr32/drivers/usart/usart.o
                0x80025218                usart_write_line
 .text.usart_get_echo_line
                0x80025240       0x48 src/asf/avr32/drivers/usart/usart.o
                0x80025240                usart_get_echo_line
 .text.usart_reset
                0x80025288       0x2c src/asf/avr32/drivers/usart/usart.o
                0x80025288                usart_reset
 .text.usart_init_spi_slave
                0x800252b4       0x98 src/asf/avr32/drivers/usart/usart.o
                0x800252b4                usart_init_spi_slave
 .text.usart_init_spi_master
                0x8002534c       0xb8 src/asf/avr32/drivers/usart/usart.o
                0x8002534c                usart_init_spi_master
 .text.usart_init_lin_slave
                0x80025404       0x34 src/asf/avr32/drivers/usart/usart.o
                0x80025404                usart_init_lin_slave
 .text.usart_init_lin_master
                0x80025438       0x34 src/asf/avr32/drivers/usart/usart.o
                0x80025438                usart_init_lin_master
 .text.usart_init_iso7816
                0x8002546c       0xac src/asf/avr32/drivers/usart/usart.o
                0x8002546c                usart_init_iso7816
 .text.usart_init_sync_slave
                0x80025518       0xcc src/asf/avr32/drivers/usart/usart.o
                0x80025518                usart_init_sync_slave
 .text.usart_init_sync_master
                0x800255e4       0xd4 src/asf/avr32/drivers/usart/usart.o
                0x800255e4                usart_init_sync_master
 .text.usart_init_rs232_tx_only
                0x800256b8       0xd0 src/asf/avr32/drivers/usart/usart.o
                0x800256b8                usart_init_rs232_tx_only
 .text.usart_init_rs232
                0x80025788       0xc8 src/asf/avr32/drivers/usart/usart.o
                0x80025788                usart_init_rs232
 .text.usart_init_IrDA
                0x80025850       0x38 src/asf/avr32/drivers/usart/usart.o
                0x80025850                usart_init_IrDA
 .text.usart_init_rs485
                0x80025888       0x28 src/asf/avr32/drivers/usart/usart.o
                0x80025888                usart_init_rs485
 .text.usart_init_modem
                0x800258b0       0x28 src/asf/avr32/drivers/usart/usart.o
                0x800258b0                usart_init_modem
 .text.usart_init_hw_handshaking
                0x800258d8       0x28 src/asf/avr32/drivers/usart/usart.o
                0x800258d8                usart_init_hw_handshaking
 .text          0x80025900        0x0 src/asf/avr32/drivers/usbc/usbc_device.o
 .text.udd_include_vbus_monitoring
                0x80025900        0x2 src/asf/avr32/drivers/usbc/usbc_device.o
                0x80025900                udd_include_vbus_monitoring
 .text.udd_is_high_speed
                0x80025902        0x2 src/asf/avr32/drivers/usbc/usbc_device.o
                0x80025902                udd_is_high_speed
 .text.udd_set_address
                0x80025904       0x22 src/asf/avr32/drivers/usbc/usbc_device.o
                0x80025904                udd_set_address
 .text.udd_getaddress
                0x80025926        0xc src/asf/avr32/drivers/usbc/usbc_device.o
                0x80025926                udd_getaddress
 .text.udd_get_frame_number
                0x80025932        0xc src/asf/avr32/drivers/usbc/usbc_device.o
                0x80025932                udd_get_frame_number
 .text.udd_get_micro_frame_number
                0x8002593e        0x2 src/asf/avr32/drivers/usbc/usbc_device.o
                0x8002593e                udd_get_micro_frame_number
 .text.udd_set_setup_payload
                0x80025940       0x1c src/asf/avr32/drivers/usbc/usbc_device.o
                0x80025940                udd_set_setup_payload
 .text.udd_ep_is_halted
                0x8002595c       0x12 src/asf/avr32/drivers/usbc/usbc_device.o
                0x8002595c                udd_ep_is_halted
 *fill*         0x8002596e        0x2 d703d703
 .text.udd_ep_clear_halt
                0x80025970       0x64 src/asf/avr32/drivers/usbc/usbc_device.o
                0x80025970                udd_ep_clear_halt
 .text.udd_ep_wait_stall_clear
                0x800259d4       0x68 src/asf/avr32/drivers/usbc/usbc_device.o
                0x800259d4                udd_ep_wait_stall_clear
 .text.udd_ctrl_init
                0x80025a3c       0x34 src/asf/avr32/drivers/usbc/usbc_device.o
 .text.udd_ctrl_stall_data
                0x80025a70       0x24 src/asf/avr32/drivers/usbc/usbc_device.o
 .text.udd_ctrl_endofrequest
                0x80025a94       0x1c src/asf/avr32/drivers/usbc/usbc_device.o
 .text.udd_ep_alloc
                0x80025ab0       0x8c src/asf/avr32/drivers/usbc/usbc_device.o
                0x80025ab0                udd_ep_alloc
 .text.udd_ep_finish_job
                0x80025b3c      0x1c4 src/asf/avr32/drivers/usbc/usbc_device.o
 .text.udd_ep_abort
                0x80025d00       0x28 src/asf/avr32/drivers/usbc/usbc_device.o
                0x80025d00                udd_ep_abort
 .text.udd_ep_set_halt
                0x80025d28       0x38 src/asf/avr32/drivers/usbc/usbc_device.o
                0x80025d28                udd_ep_set_halt
 .text.udd_ep_free
                0x80025d60       0x28 src/asf/avr32/drivers/usbc/usbc_device.o
                0x80025d60                udd_ep_free
 .text.udd_ep_run
                0x80025d88      0x204 src/asf/avr32/drivers/usbc/usbc_device.o
                0x80025d88                udd_ep_run
 .text.udd_sleep_mode
                0x80025f8c       0x64 src/asf/avr32/drivers/usbc/usbc_device.o
 .text.udd_send_wake_up
                0x80025ff0       0x38 src/asf/avr32/drivers/usbc/usbc_device.o
                0x80025ff0                udd_send_wake_up
 .text.udd_detach
                0x80026028       0x2c src/asf/avr32/drivers/usbc/usbc_device.o
                0x80026028                udd_detach
 .text.udd_reset_ep_ctrl
                0x80026054       0x94 src/asf/avr32/drivers/usbc/usbc_device.o
 .text.udd_ctrl_send_zlp_in
                0x800260e8       0x48 src/asf/avr32/drivers/usbc/usbc_device.o
 .text.udd_ctrl_in_sent
                0x80026130      0x134 src/asf/avr32/drivers/usbc/usbc_device.o
 .text.udd_attach
                0x80026264       0x70 src/asf/avr32/drivers/usbc/usbc_device.o
                0x80026264                udd_attach
 .text.udd_disable
                0x800262d4       0x50 src/asf/avr32/drivers/usbc/usbc_device.o
                0x800262d4                udd_disable
 .text.udd_enable
                0x80026324      0x110 src/asf/avr32/drivers/usbc/usbc_device.o
                0x80026324                udd_enable
 .text.udd_interrupt
                0x80026434      0x458 src/asf/avr32/drivers/usbc/usbc_device.o
 .text          0x8002688c        0x0 src/asf/avr32/services/delay/delay.o
 .text.delay_init
                0x8002688c       0x18 src/asf/avr32/services/delay/delay.o
                0x8002688c                delay_init
 .text.delay_ms
                0x800268a4       0x5c src/asf/avr32/services/delay/delay.o
                0x800268a4                delay_ms
 .text          0x80026900        0x0 src/asf/avr32/utils/startup/startup_uc3.o
 .text._stext   0x80026900       0x50 src/asf/avr32/utils/startup/startup_uc3.o
                0x80026900                _stext
 .text          0x80026950        0x0 src/asf/avr32/utils/startup/trampoline_uc3.o
 .text          0x80026950        0x0 src/asf/common/boards/user_board/init.o
 .text.board_init
                0x80026950       0x20 src/asf/common/boards/user_board/init.o
                0x80026950                board_init
 .text          0x80026970        0x0 src/asf/common/services/clock/uc3c/osc.o
 .text.osc_priv_disable_rc120m
                0x80026970       0x1e src/asf/common/services/clock/uc3c/osc.o
                0x80026970                osc_priv_disable_rc120m
 .text.osc_priv_enable_rc120m
                0x8002698e       0x1e src/asf/common/services/clock/uc3c/osc.o
                0x8002698e                osc_priv_enable_rc120m
 .text.osc_priv_disable_rc8m
                0x800269ac       0x26 src/asf/common/services/clock/uc3c/osc.o
                0x800269ac                osc_priv_disable_rc8m
 .text.osc_priv_enable_rc8m
                0x800269d2       0x3a src/asf/common/services/clock/uc3c/osc.o
                0x800269d2                osc_priv_enable_rc8m
 .text.osc_priv_disable_osc32
                0x80026a0c       0x1e src/asf/common/services/clock/uc3c/osc.o
                0x80026a0c                osc_priv_disable_osc32
 .text.osc_priv_enable_osc32
                0x80026a2a       0x20 src/asf/common/services/clock/uc3c/osc.o
                0x80026a2a                osc_priv_enable_osc32
 .text.osc_priv_disable_osc0
                0x80026a4a       0x1c src/asf/common/services/clock/uc3c/osc.o
                0x80026a4a                osc_priv_disable_osc0
 .text.osc_priv_enable_osc0
                0x80026a66       0x1e src/asf/common/services/clock/uc3c/osc.o
                0x80026a66                osc_priv_enable_osc0
 .text          0x80026a84        0x0 src/asf/common/services/clock/uc3c/pll.o
 .text.pll_disable
                0x80026a84       0x22 src/asf/common/services/clock/uc3c/pll.o
                0x80026a84                pll_disable
 .text.pll_enable
                0x80026aa6       0x24 src/asf/common/services/clock/uc3c/pll.o
                0x80026aa6                pll_enable
 .text.pll_config_write
                0x80026aca       0x22 src/asf/common/services/clock/uc3c/pll.o
                0x80026aca                pll_config_write
 .text          0x80026aec        0x0 src/asf/common/services/clock/uc3c/sysclk.o
 .text.sysclk_disable_usb
                0x80026aec        0xc src/asf/common/services/clock/uc3c/sysclk.o
                0x80026aec                sysclk_disable_usb
 .text.sysclk_set_source
                0x80026af8       0x1a src/asf/common/services/clock/uc3c/sysclk.o
                0x80026af8                sysclk_set_source
 .text.sysclk_set_prescalers
                0x80026b12       0x6e src/asf/common/services/clock/uc3c/sysclk.o
                0x80026b12                sysclk_set_prescalers
 .text.sysclk_priv_disable_module
                0x80026b80       0x36 src/asf/common/services/clock/uc3c/sysclk.o
                0x80026b80                sysclk_priv_disable_module
 .text.sysclk_priv_enable_module
                0x80026bb6       0x34 src/asf/common/services/clock/uc3c/sysclk.o
                0x80026bb6                sysclk_priv_enable_module
 *fill*         0x80026bea        0x2 d703d703
 .text.sysclk_enable_usb
                0x80026bec       0x64 src/asf/common/services/clock/uc3c/sysclk.o
                0x80026bec                sysclk_enable_usb
 .text.sysclk_init
                0x80026c50       0xc8 src/asf/common/services/clock/uc3c/sysclk.o
                0x80026c50                sysclk_init
 .text          0x80026d18        0x0 src/asf/common/services/sleepmgr/uc3/sleepmgr.o
 .text          0x80026d18        0x0 src/asf/common/services/spi/uc3_spi/spi_master.o
 .text.spi_read_packet
                0x80026d18       0x58 src/asf/common/services/spi/uc3_spi/spi_master.o
                0x80026d18                spi_read_packet
 .text.spi_write_packet
                0x80026d70       0x2c src/asf/common/services/spi/uc3_spi/spi_master.o
                0x80026d70                spi_write_packet
 .text.spi_master_setup_device
                0x80026d9c      0x220 src/asf/common/services/spi/uc3_spi/spi_master.o
                0x80026d9c                spi_master_setup_device
 .text          0x80026fbc        0x0 src/asf/common/services/usb/class/cdc/device/udi_cdc.o
 .text.udi_cdc_data_disable
                0x80026fbc        0x2 src/asf/common/services/usb/class/cdc/device/udi_cdc.o
                0x80026fbc                udi_cdc_data_disable
 *fill*         0x80026fbe        0x2 d703d703
 .text.udi_cdc_comm_setup
                0x80026fc0       0xa4 src/asf/common/services/usb/class/cdc/device/udi_cdc.o
                0x80026fc0                udi_cdc_comm_setup
 .text.udi_cdc_data_setup
                0x80027064        0x2 src/asf/common/services/usb/class/cdc/device/udi_cdc.o
                0x80027064                udi_cdc_data_setup
 .text.udi_cdc_getsetting
                0x80027066        0x2 src/asf/common/services/usb/class/cdc/device/udi_cdc.o
                0x80027066                udi_cdc_getsetting
 .text.udi_cdc_line_coding_received
                0x80027068        0x2 src/asf/common/services/usb/class/cdc/device/udi_cdc.o
                0x80027068                udi_cdc_line_coding_received
 *fill*         0x8002706a        0x2 d703d703
 .text.udi_cdc_is_rx_ready
                0x8002706c       0x34 src/asf/common/services/usb/class/cdc/device/udi_cdc.o
                0x8002706c                udi_cdc_is_rx_ready
 .text.udi_cdc_is_tx_ready
                0x800270a0       0x74 src/asf/common/services/usb/class/cdc/device/udi_cdc.o
                0x800270a0                udi_cdc_is_tx_ready
 .text.udi_cdc_write_buf
                0x80027114       0x90 src/asf/common/services/usb/class/cdc/device/udi_cdc.o
                0x80027114                udi_cdc_write_buf
 .text.udi_cdc_putc
                0x800271a4       0x70 src/asf/common/services/usb/class/cdc/device/udi_cdc.o
                0x800271a4                udi_cdc_putc
 .text.udi_cdc_rx_start
                0x80027214       0x7c src/asf/common/services/usb/class/cdc/device/udi_cdc.o
 .text.udi_cdc_read_buf
                0x80027290       0x80 src/asf/common/services/usb/class/cdc/device/udi_cdc.o
                0x80027290                udi_cdc_read_buf
 .text.udi_cdc_getc
                0x80027310       0x70 src/asf/common/services/usb/class/cdc/device/udi_cdc.o
                0x80027310                udi_cdc_getc
 .text.udi_cdc_data_recevied
                0x80027380       0x38 src/asf/common/services/usb/class/cdc/device/udi_cdc.o
                0x80027380                udi_cdc_data_recevied
 .text.udi_cdc_ctrl_state_notify
                0x800273b8       0x54 src/asf/common/services/usb/class/cdc/device/udi_cdc.o
 .text.udi_cdc_ctrl_state_change
                0x8002740c       0x3c src/asf/common/services/usb/class/cdc/device/udi_cdc.o
 .text.udi_cdc_signal_overrun
                0x80027448       0x1c src/asf/common/services/usb/class/cdc/device/udi_cdc.o
                0x80027448                udi_cdc_signal_overrun
 .text.udi_cdc_signal_parity_error
                0x80027464       0x1c src/asf/common/services/usb/class/cdc/device/udi_cdc.o
                0x80027464                udi_cdc_signal_parity_error
 .text.udi_cdc_signal_framing_error
                0x80027480       0x1c src/asf/common/services/usb/class/cdc/device/udi_cdc.o
                0x80027480                udi_cdc_signal_framing_error
 .text.udi_cdc_ctrl_signal_dsr
                0x8002749c       0x18 src/asf/common/services/usb/class/cdc/device/udi_cdc.o
                0x8002749c                udi_cdc_ctrl_signal_dsr
 .text.udi_cdc_ctrl_signal_dcd
                0x800274b4       0x18 src/asf/common/services/usb/class/cdc/device/udi_cdc.o
                0x800274b4                udi_cdc_ctrl_signal_dcd
 .text.udi_cdc_serial_state_msg_sent
                0x800274cc       0x34 src/asf/common/services/usb/class/cdc/device/udi_cdc.o
                0x800274cc                udi_cdc_serial_state_msg_sent
 .text.udi_cdc_tx_send
                0x80027500       0xcc src/asf/common/services/usb/class/cdc/device/udi_cdc.o
 .text.udi_cdc_data_sent
                0x800275cc       0x40 src/asf/common/services/usb/class/cdc/device/udi_cdc.o
                0x800275cc                udi_cdc_data_sent
 .text.udi_cdc_data_sof_notify
                0x8002760c       0x14 src/asf/common/services/usb/class/cdc/device/udi_cdc.o
                0x8002760c                udi_cdc_data_sof_notify
 .text.udi_cdc_data_enable
                0x80027620       0x5c src/asf/common/services/usb/class/cdc/device/udi_cdc.o
                0x80027620                udi_cdc_data_enable
 .text.udi_cdc_comm_disable
                0x8002767c       0x1c src/asf/common/services/usb/class/cdc/device/udi_cdc.o
                0x8002767c                udi_cdc_comm_disable
 .text.udi_cdc_comm_enable
                0x80027698       0x3c src/asf/common/services/usb/class/cdc/device/udi_cdc.o
                0x80027698                udi_cdc_comm_enable
 .text          0x800276d4        0x0 src/asf/common/services/usb/class/cdc/device/udi_cdc_desc.o
 .text          0x800276d4        0x0 src/asf/common/services/usb/udc/udc.o
 .text.udc_get_interface_desc
                0x800276d4       0x18 src/asf/common/services/usb/udc/udc.o
                0x800276d4                udc_get_interface_desc
 .text.udc_sof_notify
                0x800276ec       0x58 src/asf/common/services/usb/udc/udc.o
                0x800276ec                udc_sof_notify
 .text.udc_get_eof_conf
                0x80027744       0x2c src/asf/common/services/usb/udc/udc.o
 .text.udc_update_iface_desc
                0x80027770       0x80 src/asf/common/services/usb/udc/udc.o
 .text.udc_next_desc_in_iface
                0x800277f0       0x54 src/asf/common/services/usb/udc/udc.o
 .text.udc_valid_address
                0x80027844       0x20 src/asf/common/services/usb/udc/udc.o
 .text.udc_iface_enable
                0x80027864       0x54 src/asf/common/services/usb/udc/udc.o
 .text.udc_iface_disable
                0x800278b8       0x54 src/asf/common/services/usb/udc/udc.o
 .text.udc_reset
                0x8002790c       0x60 src/asf/common/services/usb/udc/udc.o
                0x8002790c                udc_reset
 .text.udc_process_setup
                0x8002796c      0x484 src/asf/common/services/usb/udc/udc.o
                0x8002796c                udc_process_setup
 .text          0x80027df0        0x0 src/asf/common/utils/stdio/read.o
 .text._read    0x80027df0       0x58 src/asf/common/utils/stdio/read.o
                0x80027df0                _read
 .text          0x80027e48        0x0 src/asf/common/utils/stdio/stdio_usb/stdio_usb.o
 .text.stdio_usb_enable
                0x80027e48       0x1c src/asf/common/utils/stdio/stdio_usb/stdio_usb.o
                0x80027e48                stdio_usb_enable
 .text.stdio_usb_disable
                0x80027e64       0x1c src/asf/common/utils/stdio/stdio_usb/stdio_usb.o
                0x80027e64                stdio_usb_disable
 .text.stdio_usb_vbus_event
                0x80027e80       0x20 src/asf/common/utils/stdio/stdio_usb/stdio_usb.o
                0x80027e80                stdio_usb_vbus_event
 .text.stdio_usb_init
                0x80027ea0       0x3c src/asf/common/utils/stdio/stdio_usb/stdio_usb.o
                0x80027ea0                stdio_usb_init
 .text.stdio_usb_getchar
                0x80027edc       0x30 src/asf/common/utils/stdio/stdio_usb/stdio_usb.o
                0x80027edc                stdio_usb_getchar
 .text.stdio_usb_putchar
                0x80027f0c       0x2c src/asf/common/utils/stdio/stdio_usb/stdio_usb.o
                0x80027f0c                stdio_usb_putchar
 .text          0x80027f38        0x0 src/asf/common/utils/stdio/write.o
 .text._write   0x80027f38       0x48 src/asf/common/utils/stdio/write.o
                0x80027f38                _write
 .text          0x80027f80        0x0 src/boardsupport.o
 .text.boardsupport_init
                0x80027f80      0x138 src/boardsupport.o
                0x80027f80                boardsupport_init
 .text          0x800280b8        0x0 src/main.o
 .text._Z14initialisationv
                0x800280b8       0x68 src/main.o
                0x800280b8                initialisation()
 .text.main     0x80028120       0x20 src/main.o
                0x80028120                main
 .text          0x80028140        0x0 c:/program files (x86)/atmel/atmel toolchain/avr32 gcc/native/3.4.1067/avr32-gnu-toolchain/bin/../lib/gcc/avr32/4.4.7/../../../../avr32/lib/ucr3fp\libm.a(lib_a-s_cos.o)
 .text.cos      0x80028140       0x9c c:/program files (x86)/atmel/atmel toolchain/avr32 gcc/native/3.4.1067/avr32-gnu-toolchain/bin/../lib/gcc/avr32/4.4.7/../../../../avr32/lib/ucr3fp\libm.a(lib_a-s_cos.o)
                0x80028140                cos
 .text          0x800281dc        0x0 c:/program files (x86)/atmel/atmel toolchain/avr32 gcc/native/3.4.1067/avr32-gnu-toolchain/bin/../lib/gcc/avr32/4.4.7/../../../../avr32/lib/ucr3fp\libm.a(lib_a-s_floor.o)
 .text.floor    0x800281dc      0x128 c:/program files (x86)/atmel/atmel toolchain/avr32 gcc/native/3.4.1067/avr32-gnu-toolchain/bin/../lib/gcc/avr32/4.4.7/../../../../avr32/lib/ucr3fp\libm.a(lib_a-s_floor.o)
                0x800281dc                floor
 .text          0x80028304        0x0 c:/program files (x86)/atmel/atmel toolchain/avr32 gcc/native/3.4.1067/avr32-gnu-toolchain/bin/../lib/gcc/avr32/4.4.7/../../../../avr32/lib/ucr3fp\libm.a(lib_a-s_sin.o)
 .text.sin      0x80028304       0xa0 c:/program files (x86)/atmel/atmel toolchain/avr32 gcc/native/3.4.1067/avr32-gnu-toolchain/bin/../lib/gcc/avr32/4.4.7/../../../../avr32/lib/ucr3fp\libm.a(lib_a-s_sin.o)
                0x80028304                sin
 .text          0x800283a4        0x0 c:/program files (x86)/atmel/atmel toolchain/avr32 gcc/native/3.4.1067/avr32-gnu-toolchain/bin/../lib/gcc/avr32/4.4.7/../../../../avr32/lib/ucr3fp\libm.a(lib_a-w_asin.o)
 .text.asin     0x800283a4       0xb0 c:/program files (x86)/atmel/atmel toolchain/avr32 gcc/native/3.4.1067/avr32-gnu-toolchain/bin/../lib/gcc/avr32/4.4.7/../../../../avr32/lib/ucr3fp\libm.a(lib_a-w_asin.o)
                0x800283a4                asin
 .text          0x80028454        0x0 c:/program files (x86)/atmel/atmel toolchain/avr32 gcc/native/3.4.1067/avr32-gnu-toolchain/bin/../lib/gcc/avr32/4.4.7/../../../../avr32/lib/ucr3fp\libm.a(lib_a-w_atan2.o)
 .text.atan2    0x80028454        0xc c:/program files (x86)/atmel/atmel toolchain/avr32 gcc/native/3.4.1067/avr32-gnu-toolchain/bin/../lib/gcc/avr32/4.4.7/../../../../avr32/lib/ucr3fp\libm.a(lib_a-w_atan2.o)
                0x80028454                atan2
 .text          0x80028460        0x0 c:/program files (x86)/atmel/atmel toolchain/avr32 gcc/native/3.4.1067/avr32-gnu-toolchain/bin/../lib/gcc/avr32/4.4.7/../../../../avr32/lib/ucr3fp\libm.a(lib_a-w_fmod.o)
 .text.fmod     0x80028460       0xbc c:/program files (x86)/atmel/atmel toolchain/avr32 gcc/native/3.4.1067/avr32-gnu-toolchain/bin/../lib/gcc/avr32/4.4.7/../../../../avr32/lib/ucr3fp\libm.a(lib_a-w_fmod.o)
                0x80028460                fmod
 .text          0x8002851c        0x0 c:/program files (x86)/atmel/atmel toolchain/avr32 gcc/native/3.4.1067/avr32-gnu-toolchain/bin/../lib/gcc/avr32/4.4.7/../../../../avr32/lib/ucr3fp\libm.a(lib_a-w_pow.o)
 .text.pow      0x8002851c      0x300 c:/program files (x86)/atmel/atmel toolchain/avr32 gcc/native/3.4.1067/avr32-gnu-toolchain/bin/../lib/gcc/avr32/4.4.7/../../../../avr32/lib/ucr3fp\libm.a(lib_a-w_pow.o)
                0x8002851c                pow
 .text          0x8002881c        0x0 c:/program files (x86)/atmel/atmel toolchain/avr32 gcc/native/3.4.1067/avr32-gnu-toolchain/bin/../lib/gcc/avr32/4.4.7/../../../../avr32/lib/ucr3fp\libm.a(lib_a-w_sqrt.o)
 .text.sqrt     0x8002881c       0xb4 c:/program files (x86)/atmel/atmel toolchain/avr32 gcc/native/3.4.1067/avr32-gnu-toolchain/bin/../lib/gcc/avr32/4.4.7/../../../../avr32/lib/ucr3fp\libm.a(lib_a-w_sqrt.o)
                0x8002881c                sqrt
 .text          0x800288d0        0x0 c:/program files (x86)/atmel/atmel toolchain/avr32 gcc/native/3.4.1067/avr32-gnu-toolchain/bin/../lib/gcc/avr32/4.4.7/../../../../avr32/lib/ucr3fp\libm.a(lib_a-wf_sqrt.o)
 .text.sqrtf    0x800288d0       0xbc c:/program files (x86)/atmel/atmel toolchain/avr32 gcc/native/3.4.1067/avr32-gnu-toolchain/bin/../lib/gcc/avr32/4.4.7/../../../../avr32/lib/ucr3fp\libm.a(lib_a-wf_sqrt.o)
                0x800288d0                sqrtf
 .text          0x8002898c        0x0 c:/program files (x86)/atmel/atmel toolchain/avr32 gcc/native/3.4.1067/avr32-gnu-toolchain/bin/../lib/gcc/avr32/4.4.7/../../../../avr32/lib/ucr3fp\libm.a(lib_a-e_asin.o)
 .text.__ieee754_asin
                0x8002898c      0x50c c:/program files (x86)/atmel/atmel toolchain/avr32 gcc/native/3.4.1067/avr32-gnu-toolchain/bin/../lib/gcc/avr32/4.4.7/../../../../avr32/lib/ucr3fp\libm.a(lib_a-e_asin.o)
                0x8002898c                __ieee754_asin
 .text          0x80028e98        0x0 c:/program files (x86)/atmel/atmel toolchain/avr32 gcc/native/3.4.1067/avr32-gnu-toolchain/bin/../lib/gcc/avr32/4.4.7/../../../../avr32/lib/ucr3fp\libm.a(lib_a-e_atan2.o)
 .text.__ieee754_atan2
                0x80028e98      0x240 c:/program files (x86)/atmel/atmel toolchain/avr32 gcc/native/3.4.1067/avr32-gnu-toolchain/bin/../lib/gcc/avr32/4.4.7/../../../../avr32/lib/ucr3fp\libm.a(lib_a-e_atan2.o)
                0x80028e98                __ieee754_atan2
 .text          0x800290d8        0x0 c:/program files (x86)/atmel/atmel toolchain/avr32 gcc/native/3.4.1067/avr32-gnu-toolchain/bin/../lib/gcc/avr32/4.4.7/../../../../avr32/lib/ucr3fp\libm.a(lib_a-e_fmod.o)
 .text.__ieee754_fmod
                0x800290d8      0x240 c:/program files (x86)/atmel/atmel toolchain/avr32 gcc/native/3.4.1067/avr32-gnu-toolchain/bin/../lib/gcc/avr32/4.4.7/../../../../avr32/lib/ucr3fp\libm.a(lib_a-e_fmod.o)
                0x800290d8                __ieee754_fmod
 .text          0x80029318        0x0 c:/program files (x86)/atmel/atmel toolchain/avr32 gcc/native/3.4.1067/avr32-gnu-toolchain/bin/../lib/gcc/avr32/4.4.7/../../../../avr32/lib/ucr3fp\libm.a(lib_a-e_pow.o)
 .text.__ieee754_pow
                0x80029318      0xaf0 c:/program files (x86)/atmel/atmel toolchain/avr32 gcc/native/3.4.1067/avr32-gnu-toolchain/bin/../lib/gcc/avr32/4.4.7/../../../../avr32/lib/ucr3fp\libm.a(lib_a-e_pow.o)
                0x80029318                __ieee754_pow
 .text          0x80029e08        0x0 c:/program files (x86)/atmel/atmel toolchain/avr32 gcc/native/3.4.1067/avr32-gnu-toolchain/bin/../lib/gcc/avr32/4.4.7/../../../../avr32/lib/ucr3fp\libm.a(lib_a-e_rem_pio2.o)
 .text.__ieee754_rem_pio2
                0x80029e08      0x4a0 c:/program files (x86)/atmel/atmel toolchain/avr32 gcc/native/3.4.1067/avr32-gnu-toolchain/bin/../lib/gcc/avr32/4.4.7/../../../../avr32/lib/ucr3fp\libm.a(lib_a-e_rem_pio2.o)
                0x80029e08                __ieee754_rem_pio2
 .text          0x8002a2a8        0x0 c:/program files (x86)/atmel/atmel toolchain/avr32 gcc/native/3.4.1067/avr32-gnu-toolchain/bin/../lib/gcc/avr32/4.4.7/../../../../avr32/lib/ucr3fp\libm.a(lib_a-e_sqrt.o)
 .text.__ieee754_sqrt
                0x8002a2a8      0x19c c:/program files (x86)/atmel/atmel toolchain/avr32 gcc/native/3.4.1067/avr32-gnu-toolchain/bin/../lib/gcc/avr32/4.4.7/../../../../avr32/lib/ucr3fp\libm.a(lib_a-e_sqrt.o)
                0x8002a2a8                __ieee754_sqrt
 .text          0x8002a444        0x0 c:/program files (x86)/atmel/atmel toolchain/avr32 gcc/native/3.4.1067/avr32-gnu-toolchain/bin/../lib/gcc/avr32/4.4.7/../../../../avr32/lib/ucr3fp\libm.a(lib_a-ef_sqrt.o)
 .text.__ieee754_sqrtf
                0x8002a444       0xd4 c:/program files (x86)/atmel/atmel toolchain/avr32 gcc/native/3.4.1067/avr32-gnu-toolchain/bin/../lib/gcc/avr32/4.4.7/../../../../avr32/lib/ucr3fp\libm.a(lib_a-ef_sqrt.o)
                0x8002a444                __ieee754_sqrtf
 .text          0x8002a518        0x0 c:/program files (x86)/atmel/atmel toolchain/avr32 gcc/native/3.4.1067/avr32-gnu-toolchain/bin/../lib/gcc/avr32/4.4.7/../../../../avr32/lib/ucr3fp\libm.a(lib_a-k_cos.o)
 .text.__kernel_cos
                0x8002a518      0x1f8 c:/program files (x86)/atmel/atmel toolchain/avr32 gcc/native/3.4.1067/avr32-gnu-toolchain/bin/../lib/gcc/avr32/4.4.7/../../../../avr32/lib/ucr3fp\libm.a(lib_a-k_cos.o)
                0x8002a518                __kernel_cos
 .text          0x8002a710        0x0 c:/program files (x86)/atmel/atmel toolchain/avr32 gcc/native/3.4.1067/avr32-gnu-toolchain/bin/../lib/gcc/avr32/4.4.7/../../../../avr32/lib/ucr3fp\libm.a(lib_a-k_rem_pio2.o)
 .text.__kernel_rem_pio2
                0x8002a710      0x718 c:/program files (x86)/atmel/atmel toolchain/avr32 gcc/native/3.4.1067/avr32-gnu-toolchain/bin/../lib/gcc/avr32/4.4.7/../../../../avr32/lib/ucr3fp\libm.a(lib_a-k_rem_pio2.o)
                0x8002a710                __kernel_rem_pio2
 .text          0x8002ae28        0x0 c:/program files (x86)/atmel/atmel toolchain/avr32 gcc/native/3.4.1067/avr32-gnu-toolchain/bin/../lib/gcc/avr32/4.4.7/../../../../avr32/lib/ucr3fp\libm.a(lib_a-k_sin.o)
 .text.__kernel_sin
                0x8002ae28      0x1a4 c:/program files (x86)/atmel/atmel toolchain/avr32 gcc/native/3.4.1067/avr32-gnu-toolchain/bin/../lib/gcc/avr32/4.4.7/../../../../avr32/lib/ucr3fp\libm.a(lib_a-k_sin.o)
                0x8002ae28                __kernel_sin
 .text          0x8002afcc        0x0 c:/program files (x86)/atmel/atmel toolchain/avr32 gcc/native/3.4.1067/avr32-gnu-toolchain/bin/../lib/gcc/avr32/4.4.7/../../../../avr32/lib/ucr3fp\libm.a(lib_a-s_atan.o)
 .text.atan     0x8002afcc      0x368 c:/program files (x86)/atmel/atmel toolchain/avr32 gcc/native/3.4.1067/avr32-gnu-toolchain/bin/../lib/gcc/avr32/4.4.7/../../../../avr32/lib/ucr3fp\libm.a(lib_a-s_atan.o)
                0x8002afcc                atan
 .text          0x8002b334        0x0 c:/program files (x86)/atmel/atmel toolchain/avr32 gcc/native/3.4.1067/avr32-gnu-toolchain/bin/../lib/gcc/avr32/4.4.7/../../../../avr32/lib/ucr3fp\libm.a(lib_a-s_fabs.o)
 .text.fabs     0x8002b334        0x8 c:/program files (x86)/atmel/atmel toolchain/avr32 gcc/native/3.4.1067/avr32-gnu-toolchain/bin/../lib/gcc/avr32/4.4.7/../../../../avr32/lib/ucr3fp\libm.a(lib_a-s_fabs.o)
                0x8002b334                fabs
 .text          0x8002b33c        0x0 c:/program files (x86)/atmel/atmel toolchain/avr32 gcc/native/3.4.1067/avr32-gnu-toolchain/bin/../lib/gcc/avr32/4.4.7/../../../../avr32/lib/ucr3fp\libm.a(lib_a-s_finite.o)
 .text.finite   0x8002b33c       0x10 c:/program files (x86)/atmel/atmel toolchain/avr32 gcc/native/3.4.1067/avr32-gnu-toolchain/bin/../lib/gcc/avr32/4.4.7/../../../../avr32/lib/ucr3fp\libm.a(lib_a-s_finite.o)
                0x8002b33c                finite
 .text          0x8002b34c        0x0 c:/program files (x86)/atmel/atmel toolchain/avr32 gcc/native/3.4.1067/avr32-gnu-toolchain/bin/../lib/gcc/avr32/4.4.7/../../../../avr32/lib/ucr3fp\libm.a(lib_a-s_isnand.o)
 .text.__isnand
                0x8002b34c       0x1c c:/program files (x86)/atmel/atmel toolchain/avr32 gcc/native/3.4.1067/avr32-gnu-toolchain/bin/../lib/gcc/avr32/4.4.7/../../../../avr32/lib/ucr3fp\libm.a(lib_a-s_isnand.o)
                0x8002b34c                __isnand
 .text          0x8002b368        0x0 c:/program files (x86)/atmel/atmel toolchain/avr32 gcc/native/3.4.1067/avr32-gnu-toolchain/bin/../lib/gcc/avr32/4.4.7/../../../../avr32/lib/ucr3fp\libm.a(lib_a-s_lib_ver.o)
 .text          0x8002b368        0x0 c:/program files (x86)/atmel/atmel toolchain/avr32 gcc/native/3.4.1067/avr32-gnu-toolchain/bin/../lib/gcc/avr32/4.4.7/../../../../avr32/lib/ucr3fp\libm.a(lib_a-s_matherr.o)
 .text.matherr  0x8002b368        0x2 c:/program files (x86)/atmel/atmel toolchain/avr32 gcc/native/3.4.1067/avr32-gnu-toolchain/bin/../lib/gcc/avr32/4.4.7/../../../../avr32/lib/ucr3fp\libm.a(lib_a-s_matherr.o)
                0x8002b368                matherr
 .text          0x8002b36a        0x0 c:/program files (x86)/atmel/atmel toolchain/avr32 gcc/native/3.4.1067/avr32-gnu-toolchain/bin/../lib/gcc/avr32/4.4.7/../../../../avr32/lib/ucr3fp\libm.a(lib_a-s_nan.o)
 .text.nan      0x8002b36a        0x8 c:/program files (x86)/atmel/atmel toolchain/avr32 gcc/native/3.4.1067/avr32-gnu-toolchain/bin/../lib/gcc/avr32/4.4.7/../../../../avr32/lib/ucr3fp\libm.a(lib_a-s_nan.o)
                0x8002b36a                nan
 .text          0x8002b372        0x0 c:/program files (x86)/atmel/atmel toolchain/avr32 gcc/native/3.4.1067/avr32-gnu-toolchain/bin/../lib/gcc/avr32/4.4.7/../../../../avr32/lib/ucr3fp\libm.a(lib_a-s_rint.o)
 *fill*         0x8002b372        0x2 d703d703
 .text.rint     0x8002b374      0x124 c:/program files (x86)/atmel/atmel toolchain/avr32 gcc/native/3.4.1067/avr32-gnu-toolchain/bin/../lib/gcc/avr32/4.4.7/../../../../avr32/lib/ucr3fp\libm.a(lib_a-s_rint.o)
                0x8002b374                rint
 .text          0x8002b498        0x0 c:/program files (x86)/atmel/atmel toolchain/avr32 gcc/native/3.4.1067/avr32-gnu-toolchain/bin/../lib/gcc/avr32/4.4.7/../../../../avr32/lib/ucr3fp\libm.a(lib_a-s_scalbn.o)
 .text.scalbn   0x8002b498       0xf0 c:/program files (x86)/atmel/atmel toolchain/avr32 gcc/native/3.4.1067/avr32-gnu-toolchain/bin/../lib/gcc/avr32/4.4.7/../../../../avr32/lib/ucr3fp\libm.a(lib_a-s_scalbn.o)
                0x8002b498                scalbn
 .text          0x8002b588        0x0 c:/program files (x86)/atmel/atmel toolchain/avr32 gcc/native/3.4.1067/avr32-gnu-toolchain/bin/../lib/gcc/avr32/4.4.7/../../../../avr32/lib/ucr3fp\libm.a(lib_a-sf_isnan.o)
 .text.isnanf   0x8002b588        0xe c:/program files (x86)/atmel/atmel toolchain/avr32 gcc/native/3.4.1067/avr32-gnu-toolchain/bin/../lib/gcc/avr32/4.4.7/../../../../avr32/lib/ucr3fp\libm.a(lib_a-sf_isnan.o)
                0x8002b588                isnanf
 .text          0x8002b596        0x0 c:/program files (x86)/atmel/atmel toolchain/avr32 gcc/native/3.4.1067/avr32-gnu-toolchain/bin/../lib/gcc/avr32/4.4.7/../../../../avr32/lib/ucr3fp\libm.a(lib_a-s_copysign.o)
 .text.copysign
                0x8002b596       0x18 c:/program files (x86)/atmel/atmel toolchain/avr32 gcc/native/3.4.1067/avr32-gnu-toolchain/bin/../lib/gcc/avr32/4.4.7/../../../../avr32/lib/ucr3fp\libm.a(lib_a-s_copysign.o)
                0x8002b596                copysign
 *fill*         0x8002b5ae        0x2 d703d703
 .text          0x8002b5b0      0x1d4 c:/program files (x86)/atmel/atmel toolchain/avr32 gcc/native/3.4.1067/avr32-gnu-toolchain/bin/../lib/gcc/avr32/4.4.7/ucr3fp\libgcc.a(_avr32_f64_mul.o)
                0x8002b5b0                __avr32_f64_mul
 .text          0x8002b784      0x2b0 c:/program files (x86)/atmel/atmel toolchain/avr32 gcc/native/3.4.1067/avr32-gnu-toolchain/bin/../lib/gcc/avr32/4.4.7/ucr3fp\libgcc.a(_avr32_f64_addsub.o)
                0x8002b788                __avr32_f64_sub
                0x8002b924                __avr32_f64_add
 .text          0x8002ba34       0x2a c:/program files (x86)/atmel/atmel toolchain/avr32 gcc/native/3.4.1067/avr32-gnu-toolchain/bin/../lib/gcc/avr32/4.4.7/ucr3fp\libgcc.a(_avr32_f64_to_s32.o)
                0x8002ba34                __avr32_f64_to_u32
                0x8002ba38                __avr32_f64_to_s32
 .text          0x8002ba5e       0x60 c:/program files (x86)/atmel/atmel toolchain/avr32 gcc/native/3.4.1067/avr32-gnu-toolchain/bin/../lib/gcc/avr32/4.4.7/ucr3fp\libgcc.a(_avr32_f64_to_s64.o)
                0x8002ba5e                __avr32_f64_to_u64
                0x8002ba6a                __avr32_f64_to_s64
 .text          0x8002babe       0xe8 c:/program files (x86)/atmel/atmel toolchain/avr32 gcc/native/3.4.1067/avr32-gnu-toolchain/bin/../lib/gcc/avr32/4.4.7/ucr3fp\libgcc.a(_avr32_s32_to_f64.o)
                0x8002babe                __avr32_u32_to_f64
                0x8002bac6                __avr32_s32_to_f64
 .text          0x8002bba6       0x26 c:/program files (x86)/atmel/atmel toolchain/avr32 gcc/native/3.4.1067/avr32-gnu-toolchain/bin/../lib/gcc/avr32/4.4.7/ucr3fp\libgcc.a(_avr32_f64_cmp_eq.o)
                0x8002bba6                __avr32_f64_cmp_eq
 .text          0x8002bbcc       0x68 c:/program files (x86)/atmel/atmel toolchain/avr32 gcc/native/3.4.1067/avr32-gnu-toolchain/bin/../lib/gcc/avr32/4.4.7/ucr3fp\libgcc.a(_avr32_f64_cmp_ge.o)
                0x8002bbcc                __avr32_f64_cmp_ge
 .text          0x8002bc34       0x68 c:/program files (x86)/atmel/atmel toolchain/avr32 gcc/native/3.4.1067/avr32-gnu-toolchain/bin/../lib/gcc/avr32/4.4.7/ucr3fp\libgcc.a(_avr32_f64_cmp_lt.o)
                0x8002bc34                __avr32_f64_cmp_lt
 .text          0x8002bc9c       0x34 c:/program files (x86)/atmel/atmel toolchain/avr32 gcc/native/3.4.1067/avr32-gnu-toolchain/bin/../lib/gcc/avr32/4.4.7/ucr3fp\libgcc.a(_avr32_f32_cmp_lt.o)
                0x8002bc9c                __avr32_f32_cmp_lt
 .text          0x8002bcd0      0x318 c:/program files (x86)/atmel/atmel toolchain/avr32 gcc/native/3.4.1067/avr32-gnu-toolchain/bin/../lib/gcc/avr32/4.4.7/ucr3fp\libgcc.a(_avr32_f64_div.o)
                0x8002bcd0                __avr32_f64_div
 .text          0x8002bfe8      0x160 c:/program files (x86)/atmel/atmel toolchain/avr32 gcc/native/3.4.1067/avr32-gnu-toolchain/bin/../lib/gcc/avr32/4.4.7/ucr3fp\libgcc.a(_avr32_f32_div.o)
                0x8002bfe8                __avr32_f32_div
 .text          0x8002c148      0x180 c:/program files (x86)/atmel/atmel toolchain/avr32 gcc/native/3.4.1067/avr32-gnu-toolchain/bin/../lib/gcc/avr32/4.4.7/ucr3fp\libgcc.a(_avr32_f32_addsub.o)
                0x8002c14c                __avr32_f32_sub
                0x8002c21c                __avr32_f32_add
 .text          0x8002c2c8       0xe2 c:/program files (x86)/atmel/atmel toolchain/avr32 gcc/native/3.4.1067/avr32-gnu-toolchain/bin/../lib/gcc/avr32/4.4.7/ucr3fp\libgcc.a(_avr32_f32_mul.o)
                0x8002c2c8                __avr32_f32_mul
 .text          0x8002c3aa       0x60 c:/program files (x86)/atmel/atmel toolchain/avr32 gcc/native/3.4.1067/avr32-gnu-toolchain/bin/../lib/gcc/avr32/4.4.7/ucr3fp\libgcc.a(_avr32_f32_to_f64.o)
                0x8002c3aa                __avr32_f32_to_f64
 .text          0x8002c40a       0x8a c:/program files (x86)/atmel/atmel toolchain/avr32 gcc/native/3.4.1067/avr32-gnu-toolchain/bin/../lib/gcc/avr32/4.4.7/ucr3fp\libgcc.a(_avr32_f64_to_f32.o)
                0x8002c40a                __avr32_f64_to_f32
 .text          0x8002c494       0x3c c:/program files (x86)/atmel/atmel toolchain/avr32 gcc/native/3.4.1067/avr32-gnu-toolchain/bin/../lib/gcc/avr32/4.4.7/ucr3fp\libgcc.a(_floatdidf.o)
                0x8002c494                __avr32_s64_to_f64
                0x8002c494                __floatdidf
 .text          0x8002c4d0      0x2b4 c:/program files (x86)/atmel/atmel toolchain/avr32 gcc/native/3.4.1067/avr32-gnu-toolchain/bin/../lib/gcc/avr32/4.4.7/ucr3fp\libgcc.a(_divdi3.o)
                0x8002c4d0                __avr32_sdiv64
                0x8002c4d0                __divdi3
 .text          0x8002c784      0x280 c:/program files (x86)/atmel/atmel toolchain/avr32 gcc/native/3.4.1067/avr32-gnu-toolchain/bin/../lib/gcc/avr32/4.4.7/ucr3fp\libgcc.a(_moddi3.o)
                0x8002c784                __moddi3
                0x8002c784                __avr32_smod64
 .text          0x8002ca04      0x264 c:/program files (x86)/atmel/atmel toolchain/avr32 gcc/native/3.4.1067/avr32-gnu-toolchain/bin/../lib/gcc/avr32/4.4.7/ucr3fp\libgcc.a(_udivdi3.o)
                0x8002ca04                __avr32_udiv64
                0x8002ca04                __udivdi3
 .text          0x8002cc68      0x20c c:/program files (x86)/atmel/atmel toolchain/avr32 gcc/native/3.4.1067/avr32-gnu-toolchain/bin/../lib/gcc/avr32/4.4.7/ucr3fp\libgcc.a(_umoddi3.o)
                0x8002cc68                __avr32_umod64
                0x8002cc68                __umoddi3
 .text          0x8002ce74        0x0 c:/program files (x86)/atmel/atmel toolchain/avr32 gcc/native/3.4.1067/avr32-gnu-toolchain/bin/../lib/gcc/avr32/4.4.7/../../../../avr32/lib/ucr3fp\libc.a(lib_a-errno.o)
 .text.__errno  0x8002ce74        0xc c:/program files (x86)/atmel/atmel toolchain/avr32 gcc/native/3.4.1067/avr32-gnu-toolchain/bin/../lib/gcc/avr32/4.4.7/../../../../avr32/lib/ucr3fp\libc.a(lib_a-errno.o)
                0x8002ce74                __errno
 .text          0x8002ce80        0x0 c:/program files (x86)/atmel/atmel toolchain/avr32 gcc/native/3.4.1067/avr32-gnu-toolchain/bin/../lib/gcc/avr32/4.4.7/../../../../avr32/lib/ucr3fp\libc.a(lib_a-impure.o)
 .text          0x8002ce80        0x0 c:/program files (x86)/atmel/atmel toolchain/avr32 gcc/native/3.4.1067/avr32-gnu-toolchain/bin/../lib/gcc/avr32/4.4.7/../../../../avr32/lib/ucr3fp\libc.a(lib_a-malloc.o)
 .text.free     0x8002ce80       0x18 c:/program files (x86)/atmel/atmel toolchain/avr32 gcc/native/3.4.1067/avr32-gnu-toolchain/bin/../lib/gcc/avr32/4.4.7/../../../../avr32/lib/ucr3fp\libc.a(lib_a-malloc.o)
                0x8002ce80                free
 .text.malloc   0x8002ce98       0x18 c:/program files (x86)/atmel/atmel toolchain/avr32 gcc/native/3.4.1067/avr32-gnu-toolchain/bin/../lib/gcc/avr32/4.4.7/../../../../avr32/lib/ucr3fp\libc.a(lib_a-malloc.o)
                0x8002ce98                malloc
 .text          0x8002ceb0        0x0 c:/program files (x86)/atmel/atmel toolchain/avr32 gcc/native/3.4.1067/avr32-gnu-toolchain/bin/../lib/gcc/avr32/4.4.7/../../../../avr32/lib/ucr3fp\libc.a(lib_a-mallocr.o)
 .text._malloc_r
                0x8002ceb0      0x450 c:/program files (x86)/atmel/atmel toolchain/avr32 gcc/native/3.4.1067/avr32-gnu-toolchain/bin/../lib/gcc/avr32/4.4.7/../../../../avr32/lib/ucr3fp\libc.a(lib_a-mallocr.o)
                0x8002ceb0                _malloc_r
 .text          0x8002d300      0x148 c:/program files (x86)/atmel/atmel toolchain/avr32 gcc/native/3.4.1067/avr32-gnu-toolchain/bin/../lib/gcc/avr32/4.4.7/../../../../avr32/lib/ucr3fp\libc.a(lib_a-memcpy.o)
                0x8002d300                memcpy
 .text          0x8002d448        0x0 c:/program files (x86)/atmel/atmel toolchain/avr32 gcc/native/3.4.1067/avr32-gnu-toolchain/bin/../lib/gcc/avr32/4.4.7/../../../../avr32/lib/ucr3fp\libc.a(lib_a-memset.o)
 .text.memset   0x8002d448        0xe c:/program files (x86)/atmel/atmel toolchain/avr32 gcc/native/3.4.1067/avr32-gnu-toolchain/bin/../lib/gcc/avr32/4.4.7/../../../../avr32/lib/ucr3fp\libc.a(lib_a-memset.o)
                0x8002d448                memset
 .text          0x8002d456        0x0 c:/program files (x86)/atmel/atmel toolchain/avr32 gcc/native/3.4.1067/avr32-gnu-toolchain/bin/../lib/gcc/avr32/4.4.7/../../../../avr32/lib/ucr3fp\libc.a(lib_a-mlock.o)
 .text.__malloc_lock
                0x8002d456        0x2 c:/program files (x86)/atmel/atmel toolchain/avr32 gcc/native/3.4.1067/avr32-gnu-toolchain/bin/../lib/gcc/avr32/4.4.7/../../../../avr32/lib/ucr3fp\libc.a(lib_a-mlock.o)
                0x8002d456                __malloc_lock
 .text.__malloc_unlock
                0x8002d458        0x2 c:/program files (x86)/atmel/atmel toolchain/avr32 gcc/native/3.4.1067/avr32-gnu-toolchain/bin/../lib/gcc/avr32/4.4.7/../../../../avr32/lib/ucr3fp\libc.a(lib_a-mlock.o)
                0x8002d458                __malloc_unlock
 .text          0x8002d45a        0x0 c:/program files (x86)/atmel/atmel toolchain/avr32 gcc/native/3.4.1067/avr32-gnu-toolchain/bin/../lib/gcc/avr32/4.4.7/../../../../avr32/lib/ucr3fp\libc.a(lib_a-rand.o)
 *fill*         0x8002d45a        0x2 d703d703
 .text.rand     0x8002d45c       0x84 c:/program files (x86)/atmel/atmel toolchain/avr32 gcc/native/3.4.1067/avr32-gnu-toolchain/bin/../lib/gcc/avr32/4.4.7/../../../../avr32/lib/ucr3fp\libc.a(lib_a-rand.o)
                0x8002d45c                rand
 .text.srand    0x8002d4e0       0x58 c:/program files (x86)/atmel/atmel toolchain/avr32 gcc/native/3.4.1067/avr32-gnu-toolchain/bin/../lib/gcc/avr32/4.4.7/../../../../avr32/lib/ucr3fp\libc.a(lib_a-rand.o)
                0x8002d4e0                srand
 .text          0x8002d538        0x0 c:/program files (x86)/atmel/atmel toolchain/avr32 gcc/native/3.4.1067/avr32-gnu-toolchain/bin/../lib/gcc/avr32/4.4.7/../../../../avr32/lib/ucr3fp\libc.a(lib_a-sbrkr.o)
 .text._sbrk_r  0x8002d538       0x28 c:/program files (x86)/atmel/atmel toolchain/avr32 gcc/native/3.4.1067/avr32-gnu-toolchain/bin/../lib/gcc/avr32/4.4.7/../../../../avr32/lib/ucr3fp\libc.a(lib_a-sbrkr.o)
                0x8002d538                _sbrk_r
 .text          0x8002d560        0x0 c:/program files (x86)/atmel/atmel toolchain/avr32 gcc/native/3.4.1067/avr32-gnu-toolchain/bin/../lib/gcc/avr32/4.4.7/../../../../avr32/lib/ucr3fp\libc.a(lib_a-snprintf.o)
 .text.snprintf
                0x8002d560       0x64 c:/program files (x86)/atmel/atmel toolchain/avr32 gcc/native/3.4.1067/avr32-gnu-toolchain/bin/../lib/gcc/avr32/4.4.7/../../../../avr32/lib/ucr3fp\libc.a(lib_a-snprintf.o)
                0x8002d560                snprintf
 .text._snprintf_r
                0x8002d5c4       0x60 c:/program files (x86)/atmel/atmel toolchain/avr32 gcc/native/3.4.1067/avr32-gnu-toolchain/bin/../lib/gcc/avr32/4.4.7/../../../../avr32/lib/ucr3fp\libc.a(lib_a-snprintf.o)
                0x8002d5c4                _snprintf_r
 .text          0x8002d624        0x0 c:/program files (x86)/atmel/atmel toolchain/avr32 gcc/native/3.4.1067/avr32-gnu-toolchain/bin/../lib/gcc/avr32/4.4.7/../../../../avr32/lib/ucr3fp\libc.a(lib_a-strcpy.o)
 .text.strcpy   0x8002d624       0x12 c:/program files (x86)/atmel/atmel toolchain/avr32 gcc/native/3.4.1067/avr32-gnu-toolchain/bin/../lib/gcc/avr32/4.4.7/../../../../avr32/lib/ucr3fp\libc.a(lib_a-strcpy.o)
                0x8002d624                strcpy
 .text          0x8002d636        0x0 c:/program files (x86)/atmel/atmel toolchain/avr32 gcc/native/3.4.1067/avr32-gnu-toolchain/bin/../lib/gcc/avr32/4.4.7/../../../../avr32/lib/ucr3fp\libc.a(lib_a-strlen.o)
 .text.strlen   0x8002d636       0x16 c:/program files (x86)/atmel/atmel toolchain/avr32 gcc/native/3.4.1067/avr32-gnu-toolchain/bin/../lib/gcc/avr32/4.4.7/../../../../avr32/lib/ucr3fp\libc.a(lib_a-strlen.o)
                0x8002d636                strlen
 .text          0x8002d64c        0x0 c:/program files (x86)/atmel/atmel toolchain/avr32 gcc/native/3.4.1067/avr32-gnu-toolchain/bin/../lib/gcc/avr32/4.4.7/../../../../avr32/lib/ucr3fp\libc.a(lib_a-syscalls.o)
 .text._init_startup
                0x8002d64c        0x2 c:/program files (x86)/atmel/atmel toolchain/avr32 gcc/native/3.4.1067/avr32-gnu-toolchain/bin/../lib/gcc/avr32/4.4.7/../../../../avr32/lib/ucr3fp\libc.a(lib_a-syscalls.o)
                0x8002d64c                _init_startup
 .text._init_argv
                0x8002d64e        0xa c:/program files (x86)/atmel/atmel toolchain/avr32 gcc/native/3.4.1067/avr32-gnu-toolchain/bin/../lib/gcc/avr32/4.4.7/../../../../avr32/lib/ucr3fp\libc.a(lib_a-syscalls.o)
                0x8002d64e                _init_argv
 .text._exit    0x8002d658        0xa c:/program files (x86)/atmel/atmel toolchain/avr32 gcc/native/3.4.1067/avr32-gnu-toolchain/bin/../lib/gcc/avr32/4.4.7/../../../../avr32/lib/ucr3fp\libc.a(lib_a-syscalls.o)
                0x8002d658                _exit
 *fill*         0x8002d662        0x2 d703d703
 .text._open    0x8002d664       0x18 c:/program files (x86)/atmel/atmel toolchain/avr32 gcc/native/3.4.1067/avr32-gnu-toolchain/bin/../lib/gcc/avr32/4.4.7/../../../../avr32/lib/ucr3fp\libc.a(lib_a-syscalls.o)
                0x8002d664                _open
 .text._close   0x8002d67c       0x18 c:/program files (x86)/atmel/atmel toolchain/avr32 gcc/native/3.4.1067/avr32-gnu-toolchain/bin/../lib/gcc/avr32/4.4.7/../../../../avr32/lib/ucr3fp\libc.a(lib_a-syscalls.o)
                0x8002d67c                _close
 .text._lseek   0x8002d694       0x18 c:/program files (x86)/atmel/atmel toolchain/avr32 gcc/native/3.4.1067/avr32-gnu-toolchain/bin/../lib/gcc/avr32/4.4.7/../../../../avr32/lib/ucr3fp\libc.a(lib_a-syscalls.o)
                0x8002d694                _lseek
 .text._read    0x8002d6ac       0x18 c:/program files (x86)/atmel/atmel toolchain/avr32 gcc/native/3.4.1067/avr32-gnu-toolchain/bin/../lib/gcc/avr32/4.4.7/../../../../avr32/lib/ucr3fp\libc.a(lib_a-syscalls.o)
 .text._write   0x8002d6c4       0x18 c:/program files (x86)/atmel/atmel toolchain/avr32 gcc/native/3.4.1067/avr32-gnu-toolchain/bin/../lib/gcc/avr32/4.4.7/../../../../avr32/lib/ucr3fp\libc.a(lib_a-syscalls.o)
 .text.isatty   0x8002d6dc       0x18 c:/program files (x86)/atmel/atmel toolchain/avr32 gcc/native/3.4.1067/avr32-gnu-toolchain/bin/../lib/gcc/avr32/4.4.7/../../../../avr32/lib/ucr3fp\libc.a(lib_a-syscalls.o)
                0x8002d6dc                isatty
 .text._fstat_host
                0x8002d6f4       0x18 c:/program files (x86)/atmel/atmel toolchain/avr32 gcc/native/3.4.1067/avr32-gnu-toolchain/bin/../lib/gcc/avr32/4.4.7/../../../../avr32/lib/ucr3fp\libc.a(lib_a-syscalls.o)
                0x8002d6f4                _fstat_host
 .text._stat_host
                0x8002d70c       0x18 c:/program files (x86)/atmel/atmel toolchain/avr32 gcc/native/3.4.1067/avr32-gnu-toolchain/bin/../lib/gcc/avr32/4.4.7/../../../../avr32/lib/ucr3fp\libc.a(lib_a-syscalls.o)
                0x8002d70c                _stat_host
 .text._fstat   0x8002d724       0x50 c:/program files (x86)/atmel/atmel toolchain/avr32 gcc/native/3.4.1067/avr32-gnu-toolchain/bin/../lib/gcc/avr32/4.4.7/../../../../avr32/lib/ucr3fp\libc.a(lib_a-syscalls.o)
                0x8002d724                _fstat
 .text._stat    0x8002d774       0x50 c:/program files (x86)/atmel/atmel toolchain/avr32 gcc/native/3.4.1067/avr32-gnu-toolchain/bin/../lib/gcc/avr32/4.4.7/../../../../avr32/lib/ucr3fp\libc.a(lib_a-syscalls.o)
                0x8002d774                _stat
 .text._gettimeofday_host
                0x8002d7c4       0x18 c:/program files (x86)/atmel/atmel toolchain/avr32 gcc/native/3.4.1067/avr32-gnu-toolchain/bin/../lib/gcc/avr32/4.4.7/../../../../avr32/lib/ucr3fp\libc.a(lib_a-syscalls.o)
                0x8002d7c4                _gettimeofday_host
 .text._gettimeofday
                0x8002d7dc       0x24 c:/program files (x86)/atmel/atmel toolchain/avr32 gcc/native/3.4.1067/avr32-gnu-toolchain/bin/../lib/gcc/avr32/4.4.7/../../../../avr32/lib/ucr3fp\libc.a(lib_a-syscalls.o)
                0x8002d7dc                _gettimeofday
 .text._unlink  0x8002d800       0x18 c:/program files (x86)/atmel/atmel toolchain/avr32 gcc/native/3.4.1067/avr32-gnu-toolchain/bin/../lib/gcc/avr32/4.4.7/../../../../avr32/lib/ucr3fp\libc.a(lib_a-syscalls.o)
                0x8002d800                _unlink
 .text._system  0x8002d818       0x18 c:/program files (x86)/atmel/atmel toolchain/avr32 gcc/native/3.4.1067/avr32-gnu-toolchain/bin/../lib/gcc/avr32/4.4.7/../../../../avr32/lib/ucr3fp\libc.a(lib_a-syscalls.o)
                0x8002d818                _system
 .text._execve  0x8002d830        0x2 c:/program files (x86)/atmel/atmel toolchain/avr32 gcc/native/3.4.1067/avr32-gnu-toolchain/bin/../lib/gcc/avr32/4.4.7/../../../../avr32/lib/ucr3fp\libc.a(lib_a-syscalls.o)
                0x8002d830                _execve
 .text._fork    0x8002d832        0x2 c:/program files (x86)/atmel/atmel toolchain/avr32 gcc/native/3.4.1067/avr32-gnu-toolchain/bin/../lib/gcc/avr32/4.4.7/../../../../avr32/lib/ucr3fp\libc.a(lib_a-syscalls.o)
                0x8002d832                _fork
 .text._wait    0x8002d834        0x2 c:/program files (x86)/atmel/atmel toolchain/avr32 gcc/native/3.4.1067/avr32-gnu-toolchain/bin/../lib/gcc/avr32/4.4.7/../../../../avr32/lib/ucr3fp\libc.a(lib_a-syscalls.o)
                0x8002d834                _wait
 .text.sigfillset
                0x8002d836        0x2 c:/program files (x86)/atmel/atmel toolchain/avr32 gcc/native/3.4.1067/avr32-gnu-toolchain/bin/../lib/gcc/avr32/4.4.7/../../../../avr32/lib/ucr3fp\libc.a(lib_a-syscalls.o)
                0x8002d836                sigfillset
 .text.sigprocmask
                0x8002d838        0x2 c:/program files (x86)/atmel/atmel toolchain/avr32 gcc/native/3.4.1067/avr32-gnu-toolchain/bin/../lib/gcc/avr32/4.4.7/../../../../avr32/lib/ucr3fp\libc.a(lib_a-syscalls.o)
                0x8002d838                sigprocmask
 .text._fcntl   0x8002d83a        0x2 c:/program files (x86)/atmel/atmel toolchain/avr32 gcc/native/3.4.1067/avr32-gnu-toolchain/bin/../lib/gcc/avr32/4.4.7/../../../../avr32/lib/ucr3fp\libc.a(lib_a-syscalls.o)
                0x8002d83a                _fcntl
 .text._link    0x8002d83c        0x2 c:/program files (x86)/atmel/atmel toolchain/avr32 gcc/native/3.4.1067/avr32-gnu-toolchain/bin/../lib/gcc/avr32/4.4.7/../../../../avr32/lib/ucr3fp\libc.a(lib_a-syscalls.o)
                0x8002d83c                _link
 .text._kill    0x8002d83e        0x2 c:/program files (x86)/atmel/atmel toolchain/avr32 gcc/native/3.4.1067/avr32-gnu-toolchain/bin/../lib/gcc/avr32/4.4.7/../../../../avr32/lib/ucr3fp\libc.a(lib_a-syscalls.o)
                0x8002d83e                _kill
 .text._getpid  0x8002d840        0x2 c:/program files (x86)/atmel/atmel toolchain/avr32 gcc/native/3.4.1067/avr32-gnu-toolchain/bin/../lib/gcc/avr32/4.4.7/../../../../avr32/lib/ucr3fp\libc.a(lib_a-syscalls.o)
                0x8002d840                _getpid
 *fill*         0x8002d842        0x2 d703d703
 .text._sbrk    0x8002d844       0x40 c:/program files (x86)/atmel/atmel toolchain/avr32 gcc/native/3.4.1067/avr32-gnu-toolchain/bin/../lib/gcc/avr32/4.4.7/../../../../avr32/lib/ucr3fp\libc.a(lib_a-syscalls.o)
                0x8002d844                _sbrk
 .text._times   0x8002d884       0x12 c:/program files (x86)/atmel/atmel toolchain/avr32 gcc/native/3.4.1067/avr32-gnu-toolchain/bin/../lib/gcc/avr32/4.4.7/../../../../avr32/lib/ucr3fp\libc.a(lib_a-syscalls.o)
                0x8002d884                _times
 .text          0x8002d896        0x0 c:/program files (x86)/atmel/atmel toolchain/avr32 gcc/native/3.4.1067/avr32-gnu-toolchain/bin/../lib/gcc/avr32/4.4.7/../../../../avr32/lib/ucr3fp\libc.a(lib_a-vfprintf.o)
 *fill*         0x8002d896        0x2 d703d703
 .text.get_arg  0x8002d898      0x324 c:/program files (x86)/atmel/atmel toolchain/avr32 gcc/native/3.4.1067/avr32-gnu-toolchain/bin/../lib/gcc/avr32/4.4.7/../../../../avr32/lib/ucr3fp\libc.a(lib_a-vfprintf.o)
 .text.__sprint_r
                0x8002dbbc       0x20 c:/program files (x86)/atmel/atmel toolchain/avr32 gcc/native/3.4.1067/avr32-gnu-toolchain/bin/../lib/gcc/avr32/4.4.7/../../../../avr32/lib/ucr3fp\libc.a(lib_a-vfprintf.o)
 .text._vfprintf_r
                0x8002dbdc     0x1f9c c:/program files (x86)/atmel/atmel toolchain/avr32 gcc/native/3.4.1067/avr32-gnu-toolchain/bin/../lib/gcc/avr32/4.4.7/../../../../avr32/lib/ucr3fp\libc.a(lib_a-vfprintf.o)
                0x8002dbdc                _vfprintf_r
 .text.vfprintf
                0x8002fb78       0x1c c:/program files (x86)/atmel/atmel toolchain/avr32 gcc/native/3.4.1067/avr32-gnu-toolchain/bin/../lib/gcc/avr32/4.4.7/../../../../avr32/lib/ucr3fp\libc.a(lib_a-vfprintf.o)
                0x8002fb78                vfprintf
 .text          0x8002fb94        0x0 c:/program files (x86)/atmel/atmel toolchain/avr32 gcc/native/3.4.1067/avr32-gnu-toolchain/bin/../lib/gcc/avr32/4.4.7/../../../../avr32/lib/ucr3fp\libc.a(lib_a-wsetup.o)
 .text.__swsetup_r
                0x8002fb94       0xe8 c:/program files (x86)/atmel/atmel toolchain/avr32 gcc/native/3.4.1067/avr32-gnu-toolchain/bin/../lib/gcc/avr32/4.4.7/../../../../avr32/lib/ucr3fp\libc.a(lib_a-wsetup.o)
                0x8002fb94                __swsetup_r
 .text          0x8002fc7c        0x0 c:/program files (x86)/atmel/atmel toolchain/avr32 gcc/native/3.4.1067/avr32-gnu-toolchain/bin/../lib/gcc/avr32/4.4.7/../../../../avr32/lib/ucr3fp\libc.a(lib_a-dtoa.o)
 .text.quorem   0x8002fc7c      0x124 c:/program files (x86)/atmel/atmel toolchain/avr32 gcc/native/3.4.1067/avr32-gnu-toolchain/bin/../lib/gcc/avr32/4.4.7/../../../../avr32/lib/ucr3fp\libc.a(lib_a-dtoa.o)
 .text._dtoa_r  0x8002fda0      0xc90 c:/program files (x86)/atmel/atmel toolchain/avr32 gcc/native/3.4.1067/avr32-gnu-toolchain/bin/../lib/gcc/avr32/4.4.7/../../../../avr32/lib/ucr3fp\libc.a(lib_a-dtoa.o)
                0x8002fda0                _dtoa_r
 .text          0x80030a30        0x0 c:/program files (x86)/atmel/atmel toolchain/avr32 gcc/native/3.4.1067/avr32-gnu-toolchain/bin/../lib/gcc/avr32/4.4.7/../../../../avr32/lib/ucr3fp\libc.a(lib_a-fflush.o)
 .text._fflush_r
                0x80030a30      0x118 c:/program files (x86)/atmel/atmel toolchain/avr32 gcc/native/3.4.1067/avr32-gnu-toolchain/bin/../lib/gcc/avr32/4.4.7/../../../../avr32/lib/ucr3fp\libc.a(lib_a-fflush.o)
                0x80030a30                _fflush_r
 .text.fflush   0x80030b48       0x30 c:/program files (x86)/atmel/atmel toolchain/avr32 gcc/native/3.4.1067/avr32-gnu-toolchain/bin/../lib/gcc/avr32/4.4.7/../../../../avr32/lib/ucr3fp\libc.a(lib_a-fflush.o)
                0x80030b48                fflush
 .text          0x80030b78        0x0 c:/program files (x86)/atmel/atmel toolchain/avr32 gcc/native/3.4.1067/avr32-gnu-toolchain/bin/../lib/gcc/avr32/4.4.7/../../../../avr32/lib/ucr3fp\libc.a(lib_a-findfp.o)
 .text.__sfp_lock_acquire
                0x80030b78        0x2 c:/program files (x86)/atmel/atmel toolchain/avr32 gcc/native/3.4.1067/avr32-gnu-toolchain/bin/../lib/gcc/avr32/4.4.7/../../../../avr32/lib/ucr3fp\libc.a(lib_a-findfp.o)
                0x80030b78                __sfp_lock_acquire
 .text.__sfp_lock_release
                0x80030b7a        0x2 c:/program files (x86)/atmel/atmel toolchain/avr32 gcc/native/3.4.1067/avr32-gnu-toolchain/bin/../lib/gcc/avr32/4.4.7/../../../../avr32/lib/ucr3fp\libc.a(lib_a-findfp.o)
                0x80030b7a                __sfp_lock_release
 .text.__sinit_lock_acquire
                0x80030b7c        0x2 c:/program files (x86)/atmel/atmel toolchain/avr32 gcc/native/3.4.1067/avr32-gnu-toolchain/bin/../lib/gcc/avr32/4.4.7/../../../../avr32/lib/ucr3fp\libc.a(lib_a-findfp.o)
                0x80030b7c                __sinit_lock_acquire
 .text.__sinit_lock_release
                0x80030b7e        0x2 c:/program files (x86)/atmel/atmel toolchain/avr32 gcc/native/3.4.1067/avr32-gnu-toolchain/bin/../lib/gcc/avr32/4.4.7/../../../../avr32/lib/ucr3fp\libc.a(lib_a-findfp.o)
                0x80030b7e                __sinit_lock_release
 .text.__fp_lock
                0x80030b80        0x2 c:/program files (x86)/atmel/atmel toolchain/avr32 gcc/native/3.4.1067/avr32-gnu-toolchain/bin/../lib/gcc/avr32/4.4.7/../../../../avr32/lib/ucr3fp\libc.a(lib_a-findfp.o)
 .text.__fp_unlock
                0x80030b82        0x2 c:/program files (x86)/atmel/atmel toolchain/avr32 gcc/native/3.4.1067/avr32-gnu-toolchain/bin/../lib/gcc/avr32/4.4.7/../../../../avr32/lib/ucr3fp\libc.a(lib_a-findfp.o)
 .text.__fp_unlock_all
                0x80030b84       0x1c c:/program files (x86)/atmel/atmel toolchain/avr32 gcc/native/3.4.1067/avr32-gnu-toolchain/bin/../lib/gcc/avr32/4.4.7/../../../../avr32/lib/ucr3fp\libc.a(lib_a-findfp.o)
                0x80030b84                __fp_unlock_all
 .text.__fp_lock_all
                0x80030ba0       0x1c c:/program files (x86)/atmel/atmel toolchain/avr32 gcc/native/3.4.1067/avr32-gnu-toolchain/bin/../lib/gcc/avr32/4.4.7/../../../../avr32/lib/ucr3fp\libc.a(lib_a-findfp.o)
                0x80030ba0                __fp_lock_all
 .text._cleanup_r
                0x80030bbc       0x14 c:/program files (x86)/atmel/atmel toolchain/avr32 gcc/native/3.4.1067/avr32-gnu-toolchain/bin/../lib/gcc/avr32/4.4.7/../../../../avr32/lib/ucr3fp\libc.a(lib_a-findfp.o)
                0x80030bbc                _cleanup_r
 .text._cleanup
                0x80030bd0       0x14 c:/program files (x86)/atmel/atmel toolchain/avr32 gcc/native/3.4.1067/avr32-gnu-toolchain/bin/../lib/gcc/avr32/4.4.7/../../../../avr32/lib/ucr3fp\libc.a(lib_a-findfp.o)
                0x80030bd0                _cleanup
 .text.__sfmoreglue
                0x80030be4       0x30 c:/program files (x86)/atmel/atmel toolchain/avr32 gcc/native/3.4.1067/avr32-gnu-toolchain/bin/../lib/gcc/avr32/4.4.7/../../../../avr32/lib/ucr3fp\libc.a(lib_a-findfp.o)
                0x80030be4                __sfmoreglue
 .text.__sfp    0x80030c14       0x7c c:/program files (x86)/atmel/atmel toolchain/avr32 gcc/native/3.4.1067/avr32-gnu-toolchain/bin/../lib/gcc/avr32/4.4.7/../../../../avr32/lib/ucr3fp\libc.a(lib_a-findfp.o)
                0x80030c14                __sfp
 .text.__sinit  0x80030c90       0xb0 c:/program files (x86)/atmel/atmel toolchain/avr32 gcc/native/3.4.1067/avr32-gnu-toolchain/bin/../lib/gcc/avr32/4.4.7/../../../../avr32/lib/ucr3fp\libc.a(lib_a-findfp.o)
                0x80030c90                __sinit
 .text          0x80030d40        0x0 c:/program files (x86)/atmel/atmel toolchain/avr32 gcc/native/3.4.1067/avr32-gnu-toolchain/bin/../lib/gcc/avr32/4.4.7/../../../../avr32/lib/ucr3fp\libc.a(lib_a-freer.o)
 .text._malloc_trim_r
                0x80030d40       0xa8 c:/program files (x86)/atmel/atmel toolchain/avr32 gcc/native/3.4.1067/avr32-gnu-toolchain/bin/../lib/gcc/avr32/4.4.7/../../../../avr32/lib/ucr3fp\libc.a(lib_a-freer.o)
                0x80030d40                _malloc_trim_r
 .text._free_r  0x80030de8      0x1a0 c:/program files (x86)/atmel/atmel toolchain/avr32 gcc/native/3.4.1067/avr32-gnu-toolchain/bin/../lib/gcc/avr32/4.4.7/../../../../avr32/lib/ucr3fp\libc.a(lib_a-freer.o)
                0x80030de8                _free_r
 .text          0x80030f88        0x0 c:/program files (x86)/atmel/atmel toolchain/avr32 gcc/native/3.4.1067/avr32-gnu-toolchain/bin/../lib/gcc/avr32/4.4.7/../../../../avr32/lib/ucr3fp\libc.a(lib_a-fvwrite.o)
 .text.__sfvwrite_r
                0x80030f88      0x2c4 c:/program files (x86)/atmel/atmel toolchain/avr32 gcc/native/3.4.1067/avr32-gnu-toolchain/bin/../lib/gcc/avr32/4.4.7/../../../../avr32/lib/ucr3fp\libc.a(lib_a-fvwrite.o)
                0x80030f88                __sfvwrite_r
 .text          0x8003124c        0x0 c:/program files (x86)/atmel/atmel toolchain/avr32 gcc/native/3.4.1067/avr32-gnu-toolchain/bin/../lib/gcc/avr32/4.4.7/../../../../avr32/lib/ucr3fp\libc.a(lib_a-fwalk.o)
 .text._fwalk_reent
                0x8003124c       0x58 c:/program files (x86)/atmel/atmel toolchain/avr32 gcc/native/3.4.1067/avr32-gnu-toolchain/bin/../lib/gcc/avr32/4.4.7/../../../../avr32/lib/ucr3fp\libc.a(lib_a-fwalk.o)
                0x8003124c                _fwalk_reent
 .text._fwalk   0x800312a4       0x54 c:/program files (x86)/atmel/atmel toolchain/avr32 gcc/native/3.4.1067/avr32-gnu-toolchain/bin/../lib/gcc/avr32/4.4.7/../../../../avr32/lib/ucr3fp\libc.a(lib_a-fwalk.o)
                0x800312a4                _fwalk
 .text          0x800312f8        0x0 c:/program files (x86)/atmel/atmel toolchain/avr32 gcc/native/3.4.1067/avr32-gnu-toolchain/bin/../lib/gcc/avr32/4.4.7/../../../../avr32/lib/ucr3fp\libc.a(lib_a-locale.o)
 .text.__locale_charset
                0x800312f8        0xc c:/program files (x86)/atmel/atmel toolchain/avr32 gcc/native/3.4.1067/avr32-gnu-toolchain/bin/../lib/gcc/avr32/4.4.7/../../../../avr32/lib/ucr3fp\libc.a(lib_a-locale.o)
                0x800312f8                __locale_charset
 .text._localeconv_r
                0x80031304        0x8 c:/program files (x86)/atmel/atmel toolchain/avr32 gcc/native/3.4.1067/avr32-gnu-toolchain/bin/../lib/gcc/avr32/4.4.7/../../../../avr32/lib/ucr3fp\libc.a(lib_a-locale.o)
                0x80031304                _localeconv_r
 .text.localeconv
                0x8003130c        0x8 c:/program files (x86)/atmel/atmel toolchain/avr32 gcc/native/3.4.1067/avr32-gnu-toolchain/bin/../lib/gcc/avr32/4.4.7/../../../../avr32/lib/ucr3fp\libc.a(lib_a-locale.o)
                0x8003130c                localeconv
 .text._setlocale_r
                0x80031314       0x3c c:/program files (x86)/atmel/atmel toolchain/avr32 gcc/native/3.4.1067/avr32-gnu-toolchain/bin/../lib/gcc/avr32/4.4.7/../../../../avr32/lib/ucr3fp\libc.a(lib_a-locale.o)
                0x80031314                _setlocale_r
 .text.setlocale
                0x80031350       0x18 c:/program files (x86)/atmel/atmel toolchain/avr32 gcc/native/3.4.1067/avr32-gnu-toolchain/bin/../lib/gcc/avr32/4.4.7/../../../../avr32/lib/ucr3fp\libc.a(lib_a-locale.o)
                0x80031350                setlocale
 .text          0x80031368        0x0 c:/program files (x86)/atmel/atmel toolchain/avr32 gcc/native/3.4.1067/avr32-gnu-toolchain/bin/../lib/gcc/avr32/4.4.7/../../../../avr32/lib/ucr3fp\libc.a(lib_a-makebuf.o)
 .text.__smakebuf_r
                0x80031368       0xcc c:/program files (x86)/atmel/atmel toolchain/avr32 gcc/native/3.4.1067/avr32-gnu-toolchain/bin/../lib/gcc/avr32/4.4.7/../../../../avr32/lib/ucr3fp\libc.a(lib_a-makebuf.o)
                0x80031368                __smakebuf_r
 .text          0x80031434        0x0 c:/program files (x86)/atmel/atmel toolchain/avr32 gcc/native/3.4.1067/avr32-gnu-toolchain/bin/../lib/gcc/avr32/4.4.7/../../../../avr32/lib/ucr3fp\libc.a(lib_a-memchr.o)
 .text.memchr   0x80031434       0x16 c:/program files (x86)/atmel/atmel toolchain/avr32 gcc/native/3.4.1067/avr32-gnu-toolchain/bin/../lib/gcc/avr32/4.4.7/../../../../avr32/lib/ucr3fp\libc.a(lib_a-memchr.o)
                0x80031434                memchr
 .text          0x8003144a        0x0 c:/program files (x86)/atmel/atmel toolchain/avr32 gcc/native/3.4.1067/avr32-gnu-toolchain/bin/../lib/gcc/avr32/4.4.7/../../../../avr32/lib/ucr3fp\libc.a(lib_a-memmove.o)
 .text.memmove  0x8003144a       0x3e c:/program files (x86)/atmel/atmel toolchain/avr32 gcc/native/3.4.1067/avr32-gnu-toolchain/bin/../lib/gcc/avr32/4.4.7/../../../../avr32/lib/ucr3fp\libc.a(lib_a-memmove.o)
                0x8003144a                memmove
 .text          0x80031488        0x0 c:/program files (x86)/atmel/atmel toolchain/avr32 gcc/native/3.4.1067/avr32-gnu-toolchain/bin/../lib/gcc/avr32/4.4.7/../../../../avr32/lib/ucr3fp\libc.a(lib_a-mprec.o)
 .text.__hi0bits
                0x80031488       0x60 c:/program files (x86)/atmel/atmel toolchain/avr32 gcc/native/3.4.1067/avr32-gnu-toolchain/bin/../lib/gcc/avr32/4.4.7/../../../../avr32/lib/ucr3fp\libc.a(lib_a-mprec.o)
                0x80031488                __hi0bits
 .text.__lo0bits
                0x800314e8       0x8e c:/program files (x86)/atmel/atmel toolchain/avr32 gcc/native/3.4.1067/avr32-gnu-toolchain/bin/../lib/gcc/avr32/4.4.7/../../../../avr32/lib/ucr3fp\libc.a(lib_a-mprec.o)
                0x800314e8                __lo0bits
 .text.__mcmp   0x80031576       0x32 c:/program files (x86)/atmel/atmel toolchain/avr32 gcc/native/3.4.1067/avr32-gnu-toolchain/bin/../lib/gcc/avr32/4.4.7/../../../../avr32/lib/ucr3fp\libc.a(lib_a-mprec.o)
                0x80031576                __mcmp
 .text.__ulp    0x800315a8       0x48 c:/program files (x86)/atmel/atmel toolchain/avr32 gcc/native/3.4.1067/avr32-gnu-toolchain/bin/../lib/gcc/avr32/4.4.7/../../../../avr32/lib/ucr3fp\libc.a(lib_a-mprec.o)
                0x800315a8                __ulp
 .text.__b2d    0x800315f0       0xa0 c:/program files (x86)/atmel/atmel toolchain/avr32 gcc/native/3.4.1067/avr32-gnu-toolchain/bin/../lib/gcc/avr32/4.4.7/../../../../avr32/lib/ucr3fp\libc.a(lib_a-mprec.o)
                0x800315f0                __b2d
 .text.__ratio  0x80031690       0x5c c:/program files (x86)/atmel/atmel toolchain/avr32 gcc/native/3.4.1067/avr32-gnu-toolchain/bin/../lib/gcc/avr32/4.4.7/../../../../avr32/lib/ucr3fp\libc.a(lib_a-mprec.o)
                0x80031690                __ratio
 .text._mprec_log10
                0x800316ec       0x34 c:/program files (x86)/atmel/atmel toolchain/avr32 gcc/native/3.4.1067/avr32-gnu-toolchain/bin/../lib/gcc/avr32/4.4.7/../../../../avr32/lib/ucr3fp\libc.a(lib_a-mprec.o)
                0x800316ec                _mprec_log10
 .text.__copybits
                0x80031720       0x2e c:/program files (x86)/atmel/atmel toolchain/avr32 gcc/native/3.4.1067/avr32-gnu-toolchain/bin/../lib/gcc/avr32/4.4.7/../../../../avr32/lib/ucr3fp\libc.a(lib_a-mprec.o)
                0x80031720                __copybits
 .text.__any_on
                0x8003174e       0x4c c:/program files (x86)/atmel/atmel toolchain/avr32 gcc/native/3.4.1067/avr32-gnu-toolchain/bin/../lib/gcc/avr32/4.4.7/../../../../avr32/lib/ucr3fp\libc.a(lib_a-mprec.o)
                0x8003174e                __any_on
 *fill*         0x8003179a        0x2 d703d703
 .text._Bfree   0x8003179c       0x38 c:/program files (x86)/atmel/atmel toolchain/avr32 gcc/native/3.4.1067/avr32-gnu-toolchain/bin/../lib/gcc/avr32/4.4.7/../../../../avr32/lib/ucr3fp\libc.a(lib_a-mprec.o)
                0x8003179c                _Bfree
 .text._Balloc  0x800317d4       0x78 c:/program files (x86)/atmel/atmel toolchain/avr32 gcc/native/3.4.1067/avr32-gnu-toolchain/bin/../lib/gcc/avr32/4.4.7/../../../../avr32/lib/ucr3fp\libc.a(lib_a-mprec.o)
                0x800317d4                _Balloc
 .text.__d2b    0x8003184c       0xb4 c:/program files (x86)/atmel/atmel toolchain/avr32 gcc/native/3.4.1067/avr32-gnu-toolchain/bin/../lib/gcc/avr32/4.4.7/../../../../avr32/lib/ucr3fp\libc.a(lib_a-mprec.o)
                0x8003184c                __d2b
 .text.__mdiff  0x80031900       0xd8 c:/program files (x86)/atmel/atmel toolchain/avr32 gcc/native/3.4.1067/avr32-gnu-toolchain/bin/../lib/gcc/avr32/4.4.7/../../../../avr32/lib/ucr3fp\libc.a(lib_a-mprec.o)
                0x80031900                __mdiff
 .text.__lshift
                0x800319d8       0x94 c:/program files (x86)/atmel/atmel toolchain/avr32 gcc/native/3.4.1067/avr32-gnu-toolchain/bin/../lib/gcc/avr32/4.4.7/../../../../avr32/lib/ucr3fp\libc.a(lib_a-mprec.o)
                0x800319d8                __lshift
 .text.__multiply
                0x80031a6c      0x108 c:/program files (x86)/atmel/atmel toolchain/avr32 gcc/native/3.4.1067/avr32-gnu-toolchain/bin/../lib/gcc/avr32/4.4.7/../../../../avr32/lib/ucr3fp\libc.a(lib_a-mprec.o)
                0x80031a6c                __multiply
 .text.__i2b    0x80031b74       0x18 c:/program files (x86)/atmel/atmel toolchain/avr32 gcc/native/3.4.1067/avr32-gnu-toolchain/bin/../lib/gcc/avr32/4.4.7/../../../../avr32/lib/ucr3fp\libc.a(lib_a-mprec.o)
                0x80031b74                __i2b
 .text.__multadd
                0x80031b8c       0x88 c:/program files (x86)/atmel/atmel toolchain/avr32 gcc/native/3.4.1067/avr32-gnu-toolchain/bin/../lib/gcc/avr32/4.4.7/../../../../avr32/lib/ucr3fp\libc.a(lib_a-mprec.o)
                0x80031b8c                __multadd
 .text.__pow5mult
                0x80031c14       0xac c:/program files (x86)/atmel/atmel toolchain/avr32 gcc/native/3.4.1067/avr32-gnu-toolchain/bin/../lib/gcc/avr32/4.4.7/../../../../avr32/lib/ucr3fp\libc.a(lib_a-mprec.o)
                0x80031c14                __pow5mult
 .text.__s2b    0x80031cc0       0x84 c:/program files (x86)/atmel/atmel toolchain/avr32 gcc/native/3.4.1067/avr32-gnu-toolchain/bin/../lib/gcc/avr32/4.4.7/../../../../avr32/lib/ucr3fp\libc.a(lib_a-mprec.o)
                0x80031cc0                __s2b
 .text          0x80031d44        0x0 c:/program files (x86)/atmel/atmel toolchain/avr32 gcc/native/3.4.1067/avr32-gnu-toolchain/bin/../lib/gcc/avr32/4.4.7/../../../../avr32/lib/ucr3fp\libc.a(lib_a-reallocr.o)
 .text._realloc_r
                0x80031d44      0x2e0 c:/program files (x86)/atmel/atmel toolchain/avr32 gcc/native/3.4.1067/avr32-gnu-toolchain/bin/../lib/gcc/avr32/4.4.7/../../../../avr32/lib/ucr3fp\libc.a(lib_a-reallocr.o)
                0x80031d44                _realloc_r
 .text          0x80032024        0x0 c:/program files (x86)/atmel/atmel toolchain/avr32 gcc/native/3.4.1067/avr32-gnu-toolchain/bin/../lib/gcc/avr32/4.4.7/../../../../avr32/lib/ucr3fp\libc.a(lib_a-reent.o)
 .text._wrapup_reent
                0x80032024       0x3c c:/program files (x86)/atmel/atmel toolchain/avr32 gcc/native/3.4.1067/avr32-gnu-toolchain/bin/../lib/gcc/avr32/4.4.7/../../../../avr32/lib/ucr3fp\libc.a(lib_a-reent.o)
                0x80032024                _wrapup_reent
 .text.cleanup_glue
                0x80032060       0x24 c:/program files (x86)/atmel/atmel toolchain/avr32 gcc/native/3.4.1067/avr32-gnu-toolchain/bin/../lib/gcc/avr32/4.4.7/../../../../avr32/lib/ucr3fp\libc.a(lib_a-reent.o)
                0x80032060                cleanup_glue
 .text._reclaim_reent
                0x80032084       0xd4 c:/program files (x86)/atmel/atmel toolchain/avr32 gcc/native/3.4.1067/avr32-gnu-toolchain/bin/../lib/gcc/avr32/4.4.7/../../../../avr32/lib/ucr3fp\libc.a(lib_a-reent.o)
                0x80032084                _reclaim_reent
 .text          0x80032158        0x0 c:/program files (x86)/atmel/atmel toolchain/avr32 gcc/native/3.4.1067/avr32-gnu-toolchain/bin/../lib/gcc/avr32/4.4.7/../../../../avr32/lib/ucr3fp\libc.a(lib_a-s_isinfd.o)
 .text.__isinfd
                0x80032158       0x2a c:/program files (x86)/atmel/atmel toolchain/avr32 gcc/native/3.4.1067/avr32-gnu-toolchain/bin/../lib/gcc/avr32/4.4.7/../../../../avr32/lib/ucr3fp\libc.a(lib_a-s_isinfd.o)
                0x80032158                __isinfd
 .text          0x80032182        0x0 c:/program files (x86)/atmel/atmel toolchain/avr32 gcc/native/3.4.1067/avr32-gnu-toolchain/bin/../lib/gcc/avr32/4.4.7/../../../../avr32/lib/ucr3fp\libc.a(lib_a-stdio.o)
 *fill*         0x80032182        0x2 d703d703
 .text.__sclose
                0x80032184       0x10 c:/program files (x86)/atmel/atmel toolchain/avr32 gcc/native/3.4.1067/avr32-gnu-toolchain/bin/../lib/gcc/avr32/4.4.7/../../../../avr32/lib/ucr3fp\libc.a(lib_a-stdio.o)
                0x80032184                __sclose
 .text.__sseek  0x80032194       0x28 c:/program files (x86)/atmel/atmel toolchain/avr32 gcc/native/3.4.1067/avr32-gnu-toolchain/bin/../lib/gcc/avr32/4.4.7/../../../../avr32/lib/ucr3fp\libc.a(lib_a-stdio.o)
                0x80032194                __sseek
 .text.__swrite
                0x800321bc       0x38 c:/program files (x86)/atmel/atmel toolchain/avr32 gcc/native/3.4.1067/avr32-gnu-toolchain/bin/../lib/gcc/avr32/4.4.7/../../../../avr32/lib/ucr3fp\libc.a(lib_a-stdio.o)
                0x800321bc                __swrite
 .text.__sread  0x800321f4       0x24 c:/program files (x86)/atmel/atmel toolchain/avr32 gcc/native/3.4.1067/avr32-gnu-toolchain/bin/../lib/gcc/avr32/4.4.7/../../../../avr32/lib/ucr3fp\libc.a(lib_a-stdio.o)
                0x800321f4                __sread
 .text          0x80032218       0xa8 c:/program files (x86)/atmel/atmel toolchain/avr32 gcc/native/3.4.1067/avr32-gnu-toolchain/bin/../lib/gcc/avr32/4.4.7/../../../../avr32/lib/ucr3fp\libc.a(lib_a-strcmp.o)
                0x80032218                strcmp
 .text          0x800322c0        0x0 c:/program files (x86)/atmel/atmel toolchain/avr32 gcc/native/3.4.1067/avr32-gnu-toolchain/bin/../lib/gcc/avr32/4.4.7/../../../../avr32/lib/ucr3fp\libc.a(lib_a-writer.o)
 .text._write_r
                0x800322c0       0x2c c:/program files (x86)/atmel/atmel toolchain/avr32 gcc/native/3.4.1067/avr32-gnu-toolchain/bin/../lib/gcc/avr32/4.4.7/../../../../avr32/lib/ucr3fp\libc.a(lib_a-writer.o)
                0x800322c0                _write_r
 .text          0x800322ec        0x0 c:/program files (x86)/atmel/atmel toolchain/avr32 gcc/native/3.4.1067/avr32-gnu-toolchain/bin/../lib/gcc/avr32/4.4.7/../../../../avr32/lib/ucr3fp\libc.a(lib_a-callocr.o)
 .text._calloc_r
                0x800322ec       0x60 c:/program files (x86)/atmel/atmel toolchain/avr32 gcc/native/3.4.1067/avr32-gnu-toolchain/bin/../lib/gcc/avr32/4.4.7/../../../../avr32/lib/ucr3fp\libc.a(lib_a-callocr.o)
                0x800322ec                _calloc_r
 .text          0x8003234c        0x0 c:/program files (x86)/atmel/atmel toolchain/avr32 gcc/native/3.4.1067/avr32-gnu-toolchain/bin/../lib/gcc/avr32/4.4.7/../../../../avr32/lib/ucr3fp\libc.a(lib_a-closer.o)
 .text._close_r
                0x8003234c       0x28 c:/program files (x86)/atmel/atmel toolchain/avr32 gcc/native/3.4.1067/avr32-gnu-toolchain/bin/../lib/gcc/avr32/4.4.7/../../../../avr32/lib/ucr3fp\libc.a(lib_a-closer.o)
                0x8003234c                _close_r
 .text          0x80032374        0x0 c:/program files (x86)/atmel/atmel toolchain/avr32 gcc/native/3.4.1067/avr32-gnu-toolchain/bin/../lib/gcc/avr32/4.4.7/../../../../avr32/lib/ucr3fp\libc.a(lib_a-fclose.o)
 .text._fclose_r
                0x80032374       0xd0 c:/program files (x86)/atmel/atmel toolchain/avr32 gcc/native/3.4.1067/avr32-gnu-toolchain/bin/../lib/gcc/avr32/4.4.7/../../../../avr32/lib/ucr3fp\libc.a(lib_a-fclose.o)
                0x80032374                _fclose_r
 .text.fclose   0x80032444       0x18 c:/program files (x86)/atmel/atmel toolchain/avr32 gcc/native/3.4.1067/avr32-gnu-toolchain/bin/../lib/gcc/avr32/4.4.7/../../../../avr32/lib/ucr3fp\libc.a(lib_a-fclose.o)
                0x80032444                fclose
 .text          0x8003245c        0x0 c:/program files (x86)/atmel/atmel toolchain/avr32 gcc/native/3.4.1067/avr32-gnu-toolchain/bin/../lib/gcc/avr32/4.4.7/../../../../avr32/lib/ucr3fp\libc.a(lib_a-fstatr.o)
 .text._fstat_r
                0x8003245c       0x2c c:/program files (x86)/atmel/atmel toolchain/avr32 gcc/native/3.4.1067/avr32-gnu-toolchain/bin/../lib/gcc/avr32/4.4.7/../../../../avr32/lib/ucr3fp\libc.a(lib_a-fstatr.o)
                0x8003245c                _fstat_r
 .text          0x80032488        0x0 c:/program files (x86)/atmel/atmel toolchain/avr32 gcc/native/3.4.1067/avr32-gnu-toolchain/bin/../lib/gcc/avr32/4.4.7/../../../../avr32/lib/ucr3fp\libc.a(lib_a-lseekr.o)
 .text._lseek_r
                0x80032488       0x2c c:/program files (x86)/atmel/atmel toolchain/avr32 gcc/native/3.4.1067/avr32-gnu-toolchain/bin/../lib/gcc/avr32/4.4.7/../../../../avr32/lib/ucr3fp\libc.a(lib_a-lseekr.o)
                0x80032488                _lseek_r
 .text          0x800324b4        0x0 c:/program files (x86)/atmel/atmel toolchain/avr32 gcc/native/3.4.1067/avr32-gnu-toolchain/bin/../lib/gcc/avr32/4.4.7/../../../../avr32/lib/ucr3fp\libc.a(lib_a-readr.o)
 .text._read_r  0x800324b4       0x2c c:/program files (x86)/atmel/atmel toolchain/avr32 gcc/native/3.4.1067/avr32-gnu-toolchain/bin/../lib/gcc/avr32/4.4.7/../../../../avr32/lib/ucr3fp\libc.a(lib_a-readr.o)
                0x800324b4                _read_r
 *(.text.*personality*)
 *(.gnu.warning)

.exception      0x80032600      0x200
 .exception     0x80032600      0x200 src/asf/avr32/drivers/intc/exception.o
                0x80032600                _evba
                0x8003273c                ipr_val

.fini
 *(.fini)
                0x80032800                PROVIDE (__etext, .)
                0x80032800                PROVIDE (_etext, .)
                0x80032800                PROVIDE (etext, .)

.rodata         0x80032800     0x4570
 *(.rodata .rodata.* .gnu.linkonce.r.*)
 .rodata.data_logging_print_error_signification
                0x80032800       0x50 Library/communication/data_logging.o
 .rodata.data_logging_update
                0x80032850       0x28 Library/communication/data_logging.o
 .rodata.str1.4
                0x80032878      0x494 Library/communication/data_logging.o
                                0x4a0 (size before relaxing)
 .rodata.str1.4
                0x80032d0c       0x4c Library/communication/data_logging_telemetry.o
 .rodata.str1.4
                0x80032d58       0x1d Library/communication/hud_telemetry.o
                                 0x20 (size before relaxing)
 *fill*         0x80032d75        0x3 
 .rodata.str1.4
                0x80032d78      0x10b Library/communication/mavlink_communication.o
                                0x110 (size before relaxing)
 *fill*         0x80032e83        0x1 
 .rodata.str1.4
                0x80032e84      0x172 Library/communication/mavlink_message_handler.o
                                0x178 (size before relaxing)
 *fill*         0x80032ff6        0x2 
 .rodata.str1.4
                0x80032ff8      0x4f8 Library/communication/mavlink_waypoint_handler.o
                                0x508 (size before relaxing)
 .rodata.str1.4
                0x800334f0       0x52 Library/communication/neighbor_selection.o
                                 0x54 (size before relaxing)
 *fill*         0x80033542        0x2 
 .rodata.str1.4
                0x80033544       0x19 Library/communication/remote.o
                                 0x1c (size before relaxing)
 *fill*         0x8003355d        0x3 
 .rodata.str1.4
                0x80033560       0x31 Library/communication/state.o
                                 0x34 (size before relaxing)
 *fill*         0x80033591        0x3 
 .rodata.str1.4
                0x80033594       0x87 Library/communication/state_machine.o
                                 0x88 (size before relaxing)
 *fill*         0x8003361b        0x1 
 .rodata.str1.4
                0x8003361c       0x66 Library/communication/state_telemetry.o
                                 0x70 (size before relaxing)
 *fill*         0x80033682        0x2 
 .rodata.str1.4
                0x80033684       0x34 Library/control/joystick_parsing.o
 .rodata.ident_2x2
                0x800336b8       0x10 Library/control/kalman_predictor.o
 .rodata.str1.4
                0x800336c8       0x1d Library/control/stabilisation_copter.o
                                 0x20 (size before relaxing)
 *fill*         0x800336e5        0x3 
 .rodata.str1.4
                0x800336e8        0x9 Library/control/stabilisation_telemetry.o
                                  0xc (size before relaxing)
 *fill*         0x800336f1        0x3 
 .rodata.str1.4
                0x800336f4       0x2c Library/control/track_following.o
 .rodata.str1.4
                0x80033720        0x6 Library/hal/analog_monitor_telemetry.o
                                  0x8 (size before relaxing)
 *fill*         0x80033726        0x2 
 .rodata.f_printf
                0x80033728       0x5c Library/hal/fat_fs/ff.o
 .rodata.str1.4
                0x80033784       0x13 Library/hal/fat_fs/ff.o
                                 0x14 (size before relaxing)
 *fill*         0x80033797        0x1 
 .rodata.ExCvt  0x80033798       0x80 Library/hal/fat_fs/ff.o
 .rodata.LfnOfs
                0x80033818       0x10 Library/hal/fat_fs/ff.o
 .rodata.Tbl    0x80033828      0x100 Library/hal/fat_fs/option/ccsbcs.o
 .rodata.tbl_lower.1497
                0x80033928      0x1e0 Library/hal/fat_fs/option/ccsbcs.o
 .rodata.tbl_upper.1498
                0x80033b08      0x1e0 Library/hal/fat_fs/option/ccsbcs.o
 .rodata.gps_ublox_update
                0x80033ce8       0x24 Library/hal/gps_ublox.o
 .rodata.str1.4
                0x80033d0c      0x561 Library/hal/gps_ublox.o
                                0x568 (size before relaxing)
 *fill*         0x8003426d        0x3 
 .rodata.str1.4
                0x80034270       0x58 Library/hal/hmc5883l.o
 .rodata.str1.4
                0x800342c8       0x46 Library/hal/i2c_driver_int.o
                                 0x4c (size before relaxing)
 .rodata.C.53.15341
                0x8003430e        0x2 Library/hal/lsm330dlc.o
 .rodata.fifo_config
                0x80034310        0x4 Library/hal/lsm330dlc.o
 .rodata.str1.4
                0x80034314       0x47 Library/hal/lsm330dlc.o
                                 0x48 (size before relaxing)
 .rodata.lsm_gyro_default_config
                0x8003435b        0x6 Library/hal/lsm330dlc.o
 .rodata.lsm_acc_default_config
                0x80034361        0x6 Library/hal/lsm330dlc.o
 .rodata.C.54.15375
                0x80034367        0x2 Library/hal/lsm330dlc.o
 *fill*         0x80034369        0x1 
 .rodata.servo_center_pulse_us
                0x8003436a        0x2 Library/hal/pwm_servos.o
                0x8003436a                servo_center_pulse_us
 .rodata.PWM_GPIO_MAP.15215
                0x8003436c       0x10 Library/hal/pwm_servos.o
 .rodata.PWM_GPIO_MAP.15216
                0x8003437c        0xc Library/hal/pwm_servos.o
 .rodata.servo_magnitude
                0x80034388        0x2 Library/hal/pwm_servos.o
                0x80034388                servo_magnitude
 *fill*         0x8003438a        0x2 
 .rodata.servo_timer_freq
                0x8003438c        0x4 Library/hal/pwm_servos.o
                0x8003438c                servo_timer_freq
 .rodata.dummy_data
                0x80034390      0x404 Library/hal/sd_spi.o
                0x80034390                dummy_data
 .rodata.SD_MMC_SPI_GPIO_MAP.15840
                0x80034794        0x8 Library/hal/sd_spi.o
 .rodata.str1.4
                0x8003479c      0x335 Library/hal/sd_spi.o
                                0x340 (size before relaxing)
 *fill*         0x80034ad1        0x3 
 .rodata.C.77.15863
                0x80034ad4       0x10 Library/hal/sd_spi.o
 .rodata.str1.4
                0x80034ae4       0x22 Library/hal/servos.o
                                 0x24 (size before relaxing)
 .rodata.USART_GPIO_MAP.16080
                0x80034b06        0x4 Library/hal/spektrum_satellite.o
 *fill*         0x80034b0a        0x2 
 .rodata.str1.4
                0x80034b0c       0x34 Library/hal/spektrum_satellite.o
 .rodata.usart_opt.16079
                0x80034b40        0xc Library/hal/spektrum_satellite.o
 .rodata.str1.4
                0x80034b4c       0x47 Library/runtime/scheduler_telemetry.o
                                 0x48 (size before relaxing)
 *fill*         0x80034b93        0x1 
 .rodata.str1.4
                0x80034b94       0xc1 Library/sensing/imu_telemetry.o
                                 0xc4 (size before relaxing)
 *fill*         0x80034c55        0x3 
 .rodata.str1.4
                0x80034c58       0xab Library/sensing/position_estimation.o
                                 0xb0 (size before relaxing)
 *fill*         0x80034d03        0x1 
 .rodata.str1.4
                0x80034d04       0x46 Library/sensing/position_estimation_telemetry.o
                                 0x68 (size before relaxing)
 *fill*         0x80034d4a        0x2 
 .rodata.str1.4
                0x80034d4c       0x19 Library/sensing/qfilter.o
                                 0x1c (size before relaxing)
 .rodata.str1.4
                0x00000000       0x68 Library/sensing/simulation_telemetry.o
 *fill*         0x80034d65        0x3 
 .rodata.str1.4
                0x80034d68       0x57 Library/util/linear_algebra.o
                                 0x58 (size before relaxing)
 *fill*         0x80034dbf        0x1 
 .rodata.atan_x_step
                0x80034dc0        0x4 Library/util/quick_trig.o
                0x80034dc0                atan_x_step
 .rodata.tan_x_step
                0x80034dc4        0x4 Library/util/quick_trig.o
                0x80034dc4                tan_x_step
 .rodata.acos_y
                0x80034dc8       0xc8 Library/util/quick_trig.o
                0x80034dc8                acos_y
 .rodata.atan_x_max
                0x80034e90        0x4 Library/util/quick_trig.o
                0x80034e90                atan_x_max
 .rodata.sin_x_step
                0x80034e94        0x4 Library/util/quick_trig.o
                0x80034e94                sin_x_step
 .rodata.atan_x_min
                0x80034e98        0x4 Library/util/quick_trig.o
                0x80034e98                atan_x_min
 .rodata.acos_x_min
                0x80034e9c        0x4 Library/util/quick_trig.o
                0x80034e9c                acos_x_min
 .rodata.acos_x_max
                0x80034ea0        0x4 Library/util/quick_trig.o
                0x80034ea0                acos_x_max
 .rodata.sin_y  0x80034ea4       0xc8 Library/util/quick_trig.o
                0x80034ea4                sin_y
 .rodata.atan_y
                0x80034f6c       0xc8 Library/util/quick_trig.o
                0x80034f6c                atan_y
 .rodata.acos_x_step
                0x80035034        0x4 Library/util/quick_trig.o
                0x80035034                acos_x_step
 .rodata.sin_x_min
                0x80035038        0x4 Library/util/quick_trig.o
                0x80035038                sin_x_min
 .rodata.sin_x_max
                0x8003503c        0x4 Library/util/quick_trig.o
                0x8003503c                sin_x_max
 .rodata.tan_x_max
                0x80035040        0x4 Library/util/quick_trig.o
                0x80035040                tan_x_max
 .rodata.tan_y  0x80035044       0xc8 Library/util/quick_trig.o
                0x80035044                tan_y
 .rodata.tan_x_min
                0x8003510c        0x4 Library/util/quick_trig.o
                0x8003510c                tan_x_min
 .rodata.C.1338.37468
                0x80035110        0xc src/central_data.o
 .rodata.stabiliser_defaults_copter
                0x8003511c      0x4e4 src/central_data.o
 .rodata.C.1339.37469
                0x80035600       0x50 src/central_data.o
 .rodata.nav_default_hover
                0x80035650       0x44 src/central_data.o
 .rodata.C.1340.37470
                0x80035694       0x1c src/central_data.o
 .rodata.C.1337.37465
                0x800356b0        0xc src/central_data.o
 .rodata.nav_default_wpt_nav
                0x800356bc       0x44 src/central_data.o
 .rodata.C.1341.37471
                0x80035700        0xc src/central_data.o
 .rodata.str1.4
                0x8003570c      0x495 src/mavlink_telemetry.o
                                0x4a4 (size before relaxing)
 *fill*         0x80035ba1        0x3 
 .rodata.mavlink_stream_receive
                0x80035ba4       0x28 Library/communication/mavlink_stream.o
 .rodata.mavlink_message_crcs.2560
                0x80035bcc      0x100 Library/communication/mavlink_stream.o
 .rodata.str1.4
                0x80035ccc      0x226 Library/communication/onboard_parameters.o
                                0x22c (size before relaxing)
 *fill*         0x80035ef2        0x2 
 .rodata.str1.4
                0x80035ef4      0x230 Library/control/navigation.o
                                0x24c (size before relaxing)
 .rodata.str1.4
                0x80036124       0x16 Library/control/stabilisation.o
                                 0x18 (size before relaxing)
 .rodata.ADCIFA_GPIO_MAP
                0x8003613a       0x26 Library/hal/adc_int.o
 .rodata.C.56.15304
                0x80036160        0x4 Library/hal/bmp085.o
 .rodata.str1.4
                0x80036164       0x6f Library/hal/bmp085.o
                                 0x70 (size before relaxing)
 *fill*         0x800361d3        0x1 
 .rodata.C.57.15305
                0x800361d4        0x4 Library/hal/bmp085.o
 .rodata.C.60.15720
                0x800361d8        0xc Library/hal/dac_dma.o
 .rodata.DACIFB_GPIO_MAP.15717
                0x800361e4        0x8 Library/hal/dac_dma.o
 .rodata.PEVC_EVS_OPTIONS.15709
                0x800361ec       0x10 Library/hal/dac_dma.o
 .rodata.str1.4
                0x800361fc       0x38 Library/hal/dac_dma.o
 .rodata.LED_DESCRIPTOR
                0x80036234       0x30 Library/hal/led.o
 .rodata.str1.4
                0x80036264       0xa7 Library/runtime/scheduler.o
                                 0xa8 (size before relaxing)
 *fill*         0x8003630b        0x1 
 .rodata.str1.4
                0x8003630c       0x17 Library/sensing/imu.o
                                 0x18 (size before relaxing)
 *fill*         0x80036323        0x1 
 .rodata.str1.4
                0x80036324       0xb6 Library/sensing/simulation.o
                                 0xc4 (size before relaxing)
 *fill*         0x800363da        0x2 
 .rodata.alphabet
                0x800363dc       0x24 Library/util/print_util.o
 .rodata.str1.4
                0x80036400        0xc Library/util/print_util.o
                                 0x24 (size before relaxing)
 .rodata.FLASH_SIZE.14137
                0x8003640c       0x40 src/asf/avr32/drivers/flashc/flashc.o
 .rodata.gpio_enable_module_pin
                0x8003644c       0x20 src/asf/avr32/drivers/gpio/gpio.o
 .rodata.opt.14561
                0x8003646c       0x14 src/asf/avr32/drivers/pm/power_clocks_lib.o
 .rodata.str1.4
                0x80036480        0xb src/asf/avr32/drivers/usart/usart.o
                                  0xc (size before relaxing)
 *fill*         0x8003648b        0x1 
 .rodata.str1.4
                0x8003648c       0x60 src/boardsupport.o
 .rodata.analog_monitor_default_config
                0x800364ec       0x34 src/boardsupport.o
 .rodata.str1.4
                0x80036520       0x13 src/main.o
                                 0x14 (size before relaxing)
 *fill*         0x80036533        0x1 
 .rodata.str1.4
                0x80036534        0x5 c:/program files (x86)/atmel/atmel toolchain/avr32 gcc/native/3.4.1067/avr32-gnu-toolchain/bin/../lib/gcc/avr32/4.4.7/../../../../avr32/lib/ucr3fp\libm.a(lib_a-w_asin.o)
                                  0xc (size before relaxing)
 *fill*         0x80036539        0x3 
 .rodata.str1.4
                0x8003653c        0x5 c:/program files (x86)/atmel/atmel toolchain/avr32 gcc/native/3.4.1067/avr32-gnu-toolchain/bin/../lib/gcc/avr32/4.4.7/../../../../avr32/lib/ucr3fp\libm.a(lib_a-w_fmod.o)
                                  0x8 (size before relaxing)
 *fill*         0x80036541        0x3 
 .rodata.str1.4
                0x80036544        0x4 c:/program files (x86)/atmel/atmel toolchain/avr32 gcc/native/3.4.1067/avr32-gnu-toolchain/bin/../lib/gcc/avr32/4.4.7/../../../../avr32/lib/ucr3fp\libm.a(lib_a-w_pow.o)
 .rodata.str1.4
                0x80036548        0x5 c:/program files (x86)/atmel/atmel toolchain/avr32 gcc/native/3.4.1067/avr32-gnu-toolchain/bin/../lib/gcc/avr32/4.4.7/../../../../avr32/lib/ucr3fp\libm.a(lib_a-w_sqrt.o)
                                  0x8 (size before relaxing)
 *fill*         0x8003654d        0x3 
 .rodata.str1.4
                0x80036550        0x6 c:/program files (x86)/atmel/atmel toolchain/avr32 gcc/native/3.4.1067/avr32-gnu-toolchain/bin/../lib/gcc/avr32/4.4.7/../../../../avr32/lib/ucr3fp\libm.a(lib_a-wf_sqrt.o)
                                  0x8 (size before relaxing)
 *fill*         0x80036556        0x2 
 .rodata.Zero   0x80036558       0x10 c:/program files (x86)/atmel/atmel toolchain/avr32 gcc/native/3.4.1067/avr32-gnu-toolchain/bin/../lib/gcc/avr32/4.4.7/../../../../avr32/lib/ucr3fp\libm.a(lib_a-e_fmod.o)
 .rodata.dp_h   0x80036568       0x10 c:/program files (x86)/atmel/atmel toolchain/avr32 gcc/native/3.4.1067/avr32-gnu-toolchain/bin/../lib/gcc/avr32/4.4.7/../../../../avr32/lib/ucr3fp\libm.a(lib_a-e_pow.o)
 .rodata.dp_l   0x80036578       0x10 c:/program files (x86)/atmel/atmel toolchain/avr32 gcc/native/3.4.1067/avr32-gnu-toolchain/bin/../lib/gcc/avr32/4.4.7/../../../../avr32/lib/ucr3fp\libm.a(lib_a-e_pow.o)
 .rodata.bp     0x80036588       0x10 c:/program files (x86)/atmel/atmel toolchain/avr32 gcc/native/3.4.1067/avr32-gnu-toolchain/bin/../lib/gcc/avr32/4.4.7/../../../../avr32/lib/ucr3fp\libm.a(lib_a-e_pow.o)
 .rodata.str1.4
                0x00000000        0x4 c:/program files (x86)/atmel/atmel toolchain/avr32 gcc/native/3.4.1067/avr32-gnu-toolchain/bin/../lib/gcc/avr32/4.4.7/../../../../avr32/lib/ucr3fp\libm.a(lib_a-e_pow.o)
 .rodata.npio2_hw
                0x80036598       0x80 c:/program files (x86)/atmel/atmel toolchain/avr32 gcc/native/3.4.1067/avr32-gnu-toolchain/bin/../lib/gcc/avr32/4.4.7/../../../../avr32/lib/ucr3fp\libm.a(lib_a-e_rem_pio2.o)
 .rodata.two_over_pi
                0x80036618      0x108 c:/program files (x86)/atmel/atmel toolchain/avr32 gcc/native/3.4.1067/avr32-gnu-toolchain/bin/../lib/gcc/avr32/4.4.7/../../../../avr32/lib/ucr3fp\libm.a(lib_a-e_rem_pio2.o)
 .rodata.init_jk
                0x80036720       0x10 c:/program files (x86)/atmel/atmel toolchain/avr32 gcc/native/3.4.1067/avr32-gnu-toolchain/bin/../lib/gcc/avr32/4.4.7/../../../../avr32/lib/ucr3fp\libm.a(lib_a-k_rem_pio2.o)
 .rodata.PIo2   0x80036730       0x40 c:/program files (x86)/atmel/atmel toolchain/avr32 gcc/native/3.4.1067/avr32-gnu-toolchain/bin/../lib/gcc/avr32/4.4.7/../../../../avr32/lib/ucr3fp\libm.a(lib_a-k_rem_pio2.o)
 .rodata.atanlo
                0x80036770       0x20 c:/program files (x86)/atmel/atmel toolchain/avr32 gcc/native/3.4.1067/avr32-gnu-toolchain/bin/../lib/gcc/avr32/4.4.7/../../../../avr32/lib/ucr3fp\libm.a(lib_a-s_atan.o)
 .rodata.atanhi
                0x80036790       0x20 c:/program files (x86)/atmel/atmel toolchain/avr32 gcc/native/3.4.1067/avr32-gnu-toolchain/bin/../lib/gcc/avr32/4.4.7/../../../../avr32/lib/ucr3fp\libm.a(lib_a-s_atan.o)
 .rodata.TWO52  0x800367b0       0x10 c:/program files (x86)/atmel/atmel toolchain/avr32 gcc/native/3.4.1067/avr32-gnu-toolchain/bin/../lib/gcc/avr32/4.4.7/../../../../avr32/lib/ucr3fp\libm.a(lib_a-s_rint.o)
 .rodata.str1.4
                0x800367c0        0x2 c:/program files (x86)/atmel/atmel toolchain/avr32 gcc/native/3.4.1067/avr32-gnu-toolchain/bin/../lib/gcc/avr32/4.4.7/../../../../avr32/lib/ucr3fp\libc.a(lib_a-impure.o)
                                  0x4 (size before relaxing)
 *fill*         0x800367c2        0x2 
 .rodata._global_impure_ptr
                0x800367c4        0x4 c:/program files (x86)/atmel/atmel toolchain/avr32 gcc/native/3.4.1067/avr32-gnu-toolchain/bin/../lib/gcc/avr32/4.4.7/../../../../avr32/lib/ucr3fp\libc.a(lib_a-impure.o)
                0x800367c4                _global_impure_ptr
 .rodata.get_arg
                0x800367c8       0x3c c:/program files (x86)/atmel/atmel toolchain/avr32 gcc/native/3.4.1067/avr32-gnu-toolchain/bin/../lib/gcc/avr32/4.4.7/../../../../avr32/lib/ucr3fp\libc.a(lib_a-vfprintf.o)
 .rodata._vfprintf_r
                0x80036804      0x164 c:/program files (x86)/atmel/atmel toolchain/avr32 gcc/native/3.4.1067/avr32-gnu-toolchain/bin/../lib/gcc/avr32/4.4.7/../../../../avr32/lib/ucr3fp\libc.a(lib_a-vfprintf.o)
 .rodata.state_table
                0x80036968       0x6c c:/program files (x86)/atmel/atmel toolchain/avr32 gcc/native/3.4.1067/avr32-gnu-toolchain/bin/../lib/gcc/avr32/4.4.7/../../../../avr32/lib/ucr3fp\libc.a(lib_a-vfprintf.o)
 .rodata.action_table
                0x800369d4       0x6c c:/program files (x86)/atmel/atmel toolchain/avr32 gcc/native/3.4.1067/avr32-gnu-toolchain/bin/../lib/gcc/avr32/4.4.7/../../../../avr32/lib/ucr3fp\libc.a(lib_a-vfprintf.o)
 .rodata.str1.4
                0x80036a40       0x3a c:/program files (x86)/atmel/atmel toolchain/avr32 gcc/native/3.4.1067/avr32-gnu-toolchain/bin/../lib/gcc/avr32/4.4.7/../../../../avr32/lib/ucr3fp\libc.a(lib_a-vfprintf.o)
                                 0x3c (size before relaxing)
 *fill*         0x80036a7a        0x2 
 .rodata.blanks.3430
                0x80036a7c       0x10 c:/program files (x86)/atmel/atmel toolchain/avr32 gcc/native/3.4.1067/avr32-gnu-toolchain/bin/../lib/gcc/avr32/4.4.7/../../../../avr32/lib/ucr3fp\libc.a(lib_a-vfprintf.o)
 .rodata.zeroes.3431
                0x80036a8c       0x10 c:/program files (x86)/atmel/atmel toolchain/avr32 gcc/native/3.4.1067/avr32-gnu-toolchain/bin/../lib/gcc/avr32/4.4.7/../../../../avr32/lib/ucr3fp\libc.a(lib_a-vfprintf.o)
 .rodata.chclass
                0x80036a9c      0x100 c:/program files (x86)/atmel/atmel toolchain/avr32 gcc/native/3.4.1067/avr32-gnu-toolchain/bin/../lib/gcc/avr32/4.4.7/../../../../avr32/lib/ucr3fp\libc.a(lib_a-vfprintf.o)
 .rodata.str1.4
                0x80036b9c       0x10 c:/program files (x86)/atmel/atmel toolchain/avr32 gcc/native/3.4.1067/avr32-gnu-toolchain/bin/../lib/gcc/avr32/4.4.7/../../../../avr32/lib/ucr3fp\libc.a(lib_a-dtoa.o)
                                 0x14 (size before relaxing)
 .rodata.__sf_fake_stdin
                0x80036bac       0x20 c:/program files (x86)/atmel/atmel toolchain/avr32 gcc/native/3.4.1067/avr32-gnu-toolchain/bin/../lib/gcc/avr32/4.4.7/../../../../avr32/lib/ucr3fp\libc.a(lib_a-findfp.o)
                0x80036bac                __sf_fake_stdin
 .rodata.__sf_fake_stdout
                0x80036bcc       0x20 c:/program files (x86)/atmel/atmel toolchain/avr32 gcc/native/3.4.1067/avr32-gnu-toolchain/bin/../lib/gcc/avr32/4.4.7/../../../../avr32/lib/ucr3fp\libc.a(lib_a-findfp.o)
                0x80036bcc                __sf_fake_stdout
 .rodata.__sf_fake_stderr
                0x80036bec       0x20 c:/program files (x86)/atmel/atmel toolchain/avr32 gcc/native/3.4.1067/avr32-gnu-toolchain/bin/../lib/gcc/avr32/4.4.7/../../../../avr32/lib/ucr3fp\libc.a(lib_a-findfp.o)
                0x80036bec                __sf_fake_stderr
 .rodata.charset
                0x80036c0c        0x4 c:/program files (x86)/atmel/atmel toolchain/avr32 gcc/native/3.4.1067/avr32-gnu-toolchain/bin/../lib/gcc/avr32/4.4.7/../../../../avr32/lib/ucr3fp\libc.a(lib_a-locale.o)
 .rodata.lconv  0x80036c10       0x30 c:/program files (x86)/atmel/atmel toolchain/avr32 gcc/native/3.4.1067/avr32-gnu-toolchain/bin/../lib/gcc/avr32/4.4.7/../../../../avr32/lib/ucr3fp\libc.a(lib_a-locale.o)
 .rodata.str1.4
                0x80036c40        0xc c:/program files (x86)/atmel/atmel toolchain/avr32 gcc/native/3.4.1067/avr32-gnu-toolchain/bin/../lib/gcc/avr32/4.4.7/../../../../avr32/lib/ucr3fp\libc.a(lib_a-locale.o)
                                 0x18 (size before relaxing)
 .rodata.p05.2471
                0x80036c4c        0xc c:/program files (x86)/atmel/atmel toolchain/avr32 gcc/native/3.4.1067/avr32-gnu-toolchain/bin/../lib/gcc/avr32/4.4.7/../../../../avr32/lib/ucr3fp\libc.a(lib_a-mprec.o)
 .rodata.__mprec_tens
                0x80036c58       0xc8 c:/program files (x86)/atmel/atmel toolchain/avr32 gcc/native/3.4.1067/avr32-gnu-toolchain/bin/../lib/gcc/avr32/4.4.7/../../../../avr32/lib/ucr3fp\libc.a(lib_a-mprec.o)
                0x80036c58                __mprec_tens
 .rodata.__mprec_bigtens
                0x80036d20       0x28 c:/program files (x86)/atmel/atmel toolchain/avr32 gcc/native/3.4.1067/avr32-gnu-toolchain/bin/../lib/gcc/avr32/4.4.7/../../../../avr32/lib/ucr3fp\libc.a(lib_a-mprec.o)
                0x80036d20                __mprec_bigtens
 .rodata.__mprec_tinytens
                0x80036d48       0x28 c:/program files (x86)/atmel/atmel toolchain/avr32 gcc/native/3.4.1067/avr32-gnu-toolchain/bin/../lib/gcc/avr32/4.4.7/../../../../avr32/lib/ucr3fp\libc.a(lib_a-mprec.o)
                0x80036d48                __mprec_tinytens

.rodata1
 *(.rodata1)

.eh_frame_hdr
 *(.eh_frame_hdr)

.eh_frame
 *(.eh_frame)

.gcc_except_table
 *(.gcc_except_table)
 *(.gcc_except_table.*)

.dalign         0x80036d70        0x0
                0x80036d70                . = ALIGN (0x8)
                0x80036d70                PROVIDE (_data_lma, .)
                0x00000004                PROVIDE (_data, ORIGIN (CPUSRAM))
                0x00000004                . = ORIGIN (CPUSRAM)

.eh_frame
 *(.eh_frame)

.gcc_except_table
 *(.gcc_except_table)
 *(.gcc_except_table.*)

.tdata
 *(.tdata .tdata.* .gnu.linkonce.td.*)

.tbss
 *(.tbss .tbss.* .gnu.linkonce.tb.*)
 *(.tcommon)
                0x00000004                PROVIDE (__preinit_array_start, ALIGN (0x4))

.preinit_array
 *(.preinit_array)
                0x00000004                PROVIDE (__preinit_array_end, .)
                0x00000004                PROVIDE (__init_array_start, .)

.init_array
 *(.init_array)
                0x00000004                PROVIDE (__init_array_end, .)
                0x00000004                PROVIDE (__fini_array_start, .)

.fini_array
 *(.fini_array)
                0x00000004                PROVIDE (__fini_array_end, .)

.ctors
 *crtbegin*.o(.ctors)
 *(EXCLUDE_FILE(*crtend*.o) .ctors)
 *(SORT(.ctors.*))
 *(.ctors)

.dtors
 *crtbegin*.o(.dtors)
 *(EXCLUDE_FILE(*crtend*.o) .dtors)
 *(SORT(.dtors.*))
 *(.dtors)

.jcr
 *(.jcr)

.data.rel.ro    0x00000004      0x178 load address 0x80036d70
 *(.data.rel.ro.local)
 *(.data.rel.ro*)
 .data.rel.ro.local._int_handler_table
                0x00000004      0x178 src/asf/avr32/drivers/intc/intc.o

.dynamic
 *(.dynamic)

.got            0x0000017c     0x1580 load address 0x80036ee8
 *(.got.plt)
 *(.got)
 .got           0x0000017c     0x1580 Library/communication/console.o
                0x0000017c                _GLOBAL_OFFSET_TABLE_

.data           0x000016fc      0x7e8 load address 0x80038468
 *(.data .data.* .gnu.linkonce.d.*)
 .data          0x000016fc        0x0 Library/communication/console.o
 .data          0x000016fc        0x0 Library/communication/data_logging.o
 .data          0x000016fc        0x0 Library/communication/data_logging_telemetry.o
 .data          0x000016fc        0x0 Library/communication/hud_telemetry.o
 .data          0x000016fc        0x0 Library/communication/mavlink_communication.o
 .data          0x000016fc        0x0 Library/communication/mavlink_message_handler.o
 .data          0x000016fc        0x0 Library/communication/mavlink_waypoint_handler.o
 .data          0x000016fc        0x0 Library/communication/neighbor_selection.o
 .data          0x000016fc        0x0 Library/communication/remote.o
 .data          0x000016fc        0x0 Library/communication/remote_telemetry.o
 .data          0x000016fc        0x0 Library/communication/state.o
 .data          0x000016fc        0x0 Library/communication/state_machine.o
 .data          0x000016fc        0x0 Library/communication/state_telemetry.o
 .data          0x000016fc        0x0 Library/control/joystick_parsing.o
 .data          0x000016fc        0x0 Library/control/joystick_parsing_telemetry.o
 .data          0x000016fc        0x0 Library/control/kalman_predictor.o
 .data          0x000016fc        0x0 Library/control/pid_control.o
 .data          0x000016fc        0x0 Library/control/servos_mix_quadcopter_cross.o
 .data          0x000016fc        0x0 Library/control/servos_mix_quadcopter_diag.o
 .data          0x000016fc        0x0 Library/control/stabilisation_copter.o
 .data          0x000016fc        0x0 Library/control/stabilisation_telemetry.o
 .data          0x000016fc        0x0 Library/control/track_following.o
 .data.track_following_pid_y.41041
                0x000016fc       0x44 Library/control/track_following.o
 .data.track_following_pid_x.41040
                0x00001740       0x44 Library/control/track_following.o
 .data          0x00001784        0x0 Library/hal/analog_monitor_telemetry.o
 .data          0x00001784        0x0 Library/hal/analog_monitor.o
 .data          0x00001784        0x0 Library/hal/bmp085_telemetry.o
 .data          0x00001784        0x0 Library/hal/fat_fs/diskio.o
 .data          0x00001784        0x0 Library/hal/fat_fs/ff.o
 .data          0x00001784        0x0 Library/hal/fat_fs/option/ccsbcs.o
 .data          0x00001784        0x0 Library/hal/fat_fs/option/syscall.o
 .data          0x00001784        0x0 Library/hal/fat_fs/option/unicode.o
 .data          0x00001784        0x0 Library/hal/gps_ublox.o
 .data.rel.ubx_last_status_message
                0x00001784        0x4 Library/hal/gps_ublox.o
                0x00001784                ubx_last_status_message
 .data.rel.ubx_last_cfg_set_get_rate_message
                0x00001788        0x4 Library/hal/gps_ublox.o
                0x00001788                ubx_last_cfg_set_get_rate_message
 .data.rel.ubx_last_tim_tp_message
                0x0000178c        0x4 Library/hal/gps_ublox.o
                0x0000178c                ubx_last_tim_tp_message
 .data.rel.ubx_current_tim_tp_message
                0x00001790        0x4 Library/hal/gps_ublox.o
                0x00001790                ubx_current_tim_tp_message
 .data.rel.ubx_current_nav_settings_message
                0x00001794        0x4 Library/hal/gps_ublox.o
                0x00001794                ubx_current_nav_settings_message
 .data.rel.ubx_last_pos_llh_message
                0x00001798        0x4 Library/hal/gps_ublox.o
                0x00001798                ubx_last_pos_llh_message
 .data.rel.ubx_current_tim_vrfy_message
                0x0000179c        0x4 Library/hal/gps_ublox.o
                0x0000179c                ubx_current_tim_vrfy_message
 .data.rel.ubx_current_sv_info_message
                0x000017a0        0x4 Library/hal/gps_ublox.o
                0x000017a0                ubx_current_sv_info_message
 .data.rel.ubx_current_cfg_rate_message
                0x000017a4        0x4 Library/hal/gps_ublox.o
                0x000017a4                ubx_current_cfg_rate_message
 .data.num_skipped_msg
                0x000017a8        0x1 Library/hal/gps_ublox.o
                0x000017a8                num_skipped_msg
 *fill*         0x000017a9        0x3 
 .data.rel.ubx_last_cfg_rate_message
                0x000017ac        0x4 Library/hal/gps_ublox.o
                0x000017ac                ubx_last_cfg_rate_message
 .data.rel.ubx_last_vel_ned_message
                0x000017b0        0x4 Library/hal/gps_ublox.o
                0x000017b0                ubx_last_vel_ned_message
 .data.rel.ubx_current_solution_message
                0x000017b4        0x4 Library/hal/gps_ublox.o
                0x000017b4                ubx_current_solution_message
 .data.rel.ubx_last_solution_message
                0x000017b8        0x4 Library/hal/gps_ublox.o
                0x000017b8                ubx_last_solution_message
 .data.rel.ubx_current_mon_rxr_message
                0x000017bc        0x4 Library/hal/gps_ublox.o
                0x000017bc                ubx_current_mon_rxr_message
 .data.rel.ubx_last_tim_vrfy_message
                0x000017c0        0x4 Library/hal/gps_ublox.o
                0x000017c0                ubx_last_tim_vrfy_message
 .data.rel.ubx_last_mon_rxr_message
                0x000017c4        0x4 Library/hal/gps_ublox.o
                0x000017c4                ubx_last_mon_rxr_message
 .data.rel.ubx_current_status_message
                0x000017c8        0x4 Library/hal/gps_ublox.o
                0x000017c8                ubx_current_status_message
 .data.rel.ubx_current_pos_llh_message
                0x000017cc        0x4 Library/hal/gps_ublox.o
                0x000017cc                ubx_current_pos_llh_message
 .data.rel.ubx_current_cfg_set_get_rate_message
                0x000017d0        0x4 Library/hal/gps_ublox.o
                0x000017d0                ubx_current_cfg_set_get_rate_message
 .data.rel.ubx_current_vel_ned_message
                0x000017d4        0x4 Library/hal/gps_ublox.o
                0x000017d4                ubx_current_vel_ned_message
 .data.rel.ubx_last_nav_settings_message
                0x000017d8        0x4 Library/hal/gps_ublox.o
                0x000017d8                ubx_last_nav_settings_message
 .data.rel.ubx_last_sv_info_message
                0x000017dc        0x4 Library/hal/gps_ublox.o
                0x000017dc                ubx_last_sv_info_message
 .data          0x000017e0        0x0 Library/hal/gps_ublox_telemetry.o
 .data          0x000017e0        0x0 Library/hal/hmc5883l.o
 .data.compass_default_configuration.14948
                0x000017e0        0x4 Library/hal/hmc5883l.o
 .data          0x000017e4        0x0 Library/hal/i2c_driver_int.o
 .data.twi_opt.15745
                0x000017e4       0x10 Library/hal/i2c_driver_int.o
 .data          0x000017f4        0x0 Library/hal/lsm330dlc.o
 .data          0x000017f4        0x0 Library/hal/piezo_speaker.o
 .data          0x000017f4        0x0 Library/hal/pwm_servos.o
 .data          0x000017f4        0x0 Library/hal/sd_spi.o
 .data          0x000017f4        0x0 Library/hal/servos.o
 .data          0x000017f4        0x0 Library/hal/servos_telemetry.o
 .data          0x000017f4        0x0 Library/hal/spektrum_satellite.o
 .data          0x000017f4        0x0 Library/hal/time_keeper.o
 .data          0x000017f4        0x0 Library/hal/usb_int.o
 .data          0x000017f4        0x0 Library/hal/xbee.o
 .data          0x000017f4        0x0 Library/runtime/scheduler_telemetry.o
 .data          0x000017f4        0x0 Library/sensing/ahrs.o
 .data          0x000017f4        0x0 Library/sensing/ahrs_telemetry.o
 .data          0x000017f4        0x0 Library/sensing/imu_telemetry.o
 .data          0x000017f4        0x0 Library/sensing/position_estimation.o
 .data          0x000017f4        0x0 Library/sensing/position_estimation_telemetry.o
 .data          0x000017f4        0x0 Library/sensing/qfilter.o
 .data          0x000017f4        0x0 Library/sensing/simulation_telemetry.o
 .data          0x000017f4        0x0 Library/util/linear_algebra.o
 .data          0x000017f4        0x0 Library/util/matrixlib_float.o
 .data          0x000017f4        0x0 Library/util/quick_trig.o
 .data          0x000017f4        0x0 src/central_data.o
 .data          0x000017f4        0x0 src/mavlink_telemetry.o
 .data          0x000017f4        0x0 src/simu_gps_track.o
 .data          0x000017f4        0x0 src/tasks.o
 .data          0x000017f4        0x0 Library/communication/mavlink_stream.o
 .data          0x000017f4        0x0 Library/communication/onboard_parameters.o
 .data          0x000017f4        0x0 Library/control/navigation.o
 .data          0x000017f4        0x0 Library/control/stabilisation.o
 .data          0x000017f4        0x0 Library/hal/adc_int.o
 .data.adcifa   0x000017f4        0x4 Library/hal/adc_int.o
                0x000017f4                adcifa
 .data.adc_config_options
                0x000017f8       0x14 Library/hal/adc_int.o
                0x000017f8                adc_config_options
 .data.adcifa_sequence_opt
                0x0000180c        0x7 Library/hal/adc_int.o
                0x0000180c                adcifa_sequence_opt
 .data          0x00001813        0x0 Library/hal/ads1274.o
 *fill*         0x00001813        0x1 
 .data.waveform_opt
                0x00001814        0x8 Library/hal/ads1274.o
                0x00001814                waveform_opt
 .data.tc       0x0000181c        0x4 Library/hal/ads1274.o
                0x0000181c                tc
 .data          0x00001820        0x0 Library/hal/bmp085.o
 .data          0x00001820        0x0 Library/hal/dac_dma.o
 .data.ppevc    0x00001820        0x4 Library/hal/dac_dma.o
                0x00001820                ppevc
 .data.dac_channel_audio
                0x00001824        0x1 Library/hal/dac_dma.o
                0x00001824                dac_channel_audio
 *fill*         0x00001825        0x1 
 .data.dac_value_audio
                0x00001826        0x2 Library/hal/dac_dma.o
                0x00001826                dac_value_audio
 .data.PDCA_OPTIONS.15737
                0x00001828       0x1c Library/hal/dac_dma.o
 .data.dacifb   0x00001844        0x4 Library/hal/dac_dma.o
                0x00001844                dacifb
 .data          0x00001848        0x0 Library/hal/led.o
 .data.LED_State
                0x00001848        0x4 Library/hal/led.o
 .data          0x0000184c        0x0 Library/hal/spi_buffered.o
 .data.PDCA_TX_OPTIONS.15111
                0x0000184c       0x1c Library/hal/spi_buffered.o
 .data.PDCA_RX_OPTIONS.15112
                0x00001868       0x1c Library/hal/spi_buffered.o
 .data          0x00001884        0x0 Library/hal/uart_int.o
 .data          0x00001884        0x0 Library/runtime/scheduler.o
 .data          0x00001884        0x0 Library/sensing/imu.o
 .data          0x00001884        0x0 Library/sensing/simulation.o
 .data          0x00001884        0x0 Library/util/buffer.o
 .data          0x00001884        0x0 Library/util/coord_conventions.o
 .data          0x00001884        0x0 Library/util/generator.o
 .data          0x00001884        0x0 Library/util/print_util.o
 .data          0x00001884        0x0 Library/util/sinus.o
 .data.sin_table
                0x00001884       0x78 Library/util/sinus.o
                0x00001884                sin_table
 .data          0x000018fc        0x0 src/asf/avr32/drivers/adcifa/adcifa.o
 .data          0x000018fc        0x0 src/asf/avr32/drivers/ast/ast.o
 .data          0x000018fc        0x0 src/asf/avr32/drivers/dacifb/dacifb.o
 .data          0x000018fc        0x0 src/asf/avr32/drivers/eic/eic.o
 .data          0x000018fc        0x0 src/asf/avr32/drivers/flashc/flashc.o
 .data.rel.flashc_wait_until_ready
                0x000018fc        0x4 src/asf/avr32/drivers/flashc/flashc.o
                0x000018fc                flashc_wait_until_ready
 .data          0x00001900        0x0 src/asf/avr32/drivers/gpio/gpio.o
 .data          0x00001900        0x0 src/asf/avr32/drivers/intc/exception.o
 .data          0x00001900        0x0 src/asf/avr32/drivers/intc/intc.o
 .data          0x00001900        0x0 src/asf/avr32/drivers/pdca/pdca.o
 .data          0x00001900        0x0 src/asf/avr32/drivers/pevc/pevc.o
 .data          0x00001900        0x0 src/asf/avr32/drivers/pm/pm_uc3c.o
 .data          0x00001900        0x0 src/asf/avr32/drivers/pm/power_clocks_lib.o
 .data          0x00001900        0x0 src/asf/avr32/drivers/pwm/pwm4.o
 .data          0x00001900        0x0 src/asf/avr32/drivers/scif/scif_uc3c.o
 .data          0x00001900        0x0 src/asf/avr32/drivers/spi/spi.o
 .data          0x00001900        0x0 src/asf/avr32/drivers/tc/tc.o
 .data          0x00001900        0x0 src/asf/avr32/drivers/twim/twim.o
 .data          0x00001900        0x0 src/asf/avr32/drivers/usart/usart.o
 .data          0x00001900        0x0 src/asf/avr32/drivers/usbc/usbc_device.o
 .data          0x00001900        0x0 src/asf/avr32/services/delay/delay.o
 .data          0x00001900        0x0 src/asf/avr32/utils/startup/startup_uc3.o
 .data          0x00001900        0x0 src/asf/avr32/utils/startup/trampoline_uc3.o
 .data          0x00001900        0x0 src/asf/common/boards/user_board/init.o
 .data          0x00001900        0x0 src/asf/common/services/clock/uc3c/osc.o
 .data          0x00001900        0x0 src/asf/common/services/clock/uc3c/pll.o
 .data          0x00001900        0x0 src/asf/common/services/clock/uc3c/sysclk.o
 .data          0x00001900        0x0 src/asf/common/services/sleepmgr/uc3/sleepmgr.o
 .data          0x00001900        0x0 src/asf/common/services/spi/uc3_spi/spi_master.o
 .data          0x00001900        0x0 src/asf/common/services/usb/class/cdc/device/udi_cdc.o
 .data.rel.udi_api_cdc_comm
                0x00001900       0x14 src/asf/common/services/usb/class/cdc/device/udi_cdc.o
                0x00001900                udi_api_cdc_comm
 .data.rel.udi_api_cdc_data
                0x00001914       0x14 src/asf/common/services/usb/class/cdc/device/udi_cdc.o
                0x00001914                udi_api_cdc_data
 .data.uid_cdc_state_msg
                0x00001928        0xc src/asf/common/services/usb/class/cdc/device/udi_cdc.o
 .data          0x00001934        0x0 src/asf/common/services/usb/class/cdc/device/udi_cdc_desc.o
 .data.udc_desc
                0x00001934       0x44 src/asf/common/services/usb/class/cdc/device/udi_cdc_desc.o
                0x00001934                udc_desc
 .data.rel.udc_config
                0x00001978        0x8 src/asf/common/services/usb/class/cdc/device/udi_cdc_desc.o
                0x00001978                udc_config
 .data.rel.udc_config_fshs
                0x00001980        0x8 src/asf/common/services/usb/class/cdc/device/udi_cdc_desc.o
                0x00001980                udc_config_fshs
 .data.rel.udi_apis
                0x00001988        0x8 src/asf/common/services/usb/class/cdc/device/udi_cdc_desc.o
                0x00001988                udi_apis
 .data.udc_device_desc
                0x00001990       0x14 src/asf/common/services/usb/class/cdc/device/udi_cdc_desc.o
                0x00001990                udc_device_desc
 .data          0x000019a4        0x0 src/asf/common/services/usb/udc/udc.o
 .data.udc_string_product_name
                0x000019a4        0x4 src/asf/common/services/usb/udc/udc.o
 .data.udc_string_manufacturer_name
                0x000019a8        0xc src/asf/common/services/usb/udc/udc.o
 .data.udc_string_desc
                0x000019b4       0x14 src/asf/common/services/usb/udc/udc.o
 .data.udc_string_desc_languageid
                0x000019c8        0x4 src/asf/common/services/usb/udc/udc.o
 .data          0x000019cc        0x0 src/asf/common/utils/stdio/read.o
 .data          0x000019cc        0x0 src/asf/common/utils/stdio/stdio_usb/stdio_usb.o
 .data          0x000019cc        0x0 src/asf/common/utils/stdio/write.o
 .data          0x000019cc        0x0 src/boardsupport.o
 .data          0x000019cc        0x0 src/main.o
 .data          0x000019cc        0x0 c:/program files (x86)/atmel/atmel toolchain/avr32 gcc/native/3.4.1067/avr32-gnu-toolchain/bin/../lib/gcc/avr32/4.4.7/../../../../avr32/lib/ucr3fp\libm.a(lib_a-s_cos.o)
 .data          0x000019cc        0x0 c:/program files (x86)/atmel/atmel toolchain/avr32 gcc/native/3.4.1067/avr32-gnu-toolchain/bin/../lib/gcc/avr32/4.4.7/../../../../avr32/lib/ucr3fp\libm.a(lib_a-s_floor.o)
 .data          0x000019cc        0x0 c:/program files (x86)/atmel/atmel toolchain/avr32 gcc/native/3.4.1067/avr32-gnu-toolchain/bin/../lib/gcc/avr32/4.4.7/../../../../avr32/lib/ucr3fp\libm.a(lib_a-s_sin.o)
 .data          0x000019cc        0x0 c:/program files (x86)/atmel/atmel toolchain/avr32 gcc/native/3.4.1067/avr32-gnu-toolchain/bin/../lib/gcc/avr32/4.4.7/../../../../avr32/lib/ucr3fp\libm.a(lib_a-w_asin.o)
 .data          0x000019cc        0x0 c:/program files (x86)/atmel/atmel toolchain/avr32 gcc/native/3.4.1067/avr32-gnu-toolchain/bin/../lib/gcc/avr32/4.4.7/../../../../avr32/lib/ucr3fp\libm.a(lib_a-w_atan2.o)
 .data          0x000019cc        0x0 c:/program files (x86)/atmel/atmel toolchain/avr32 gcc/native/3.4.1067/avr32-gnu-toolchain/bin/../lib/gcc/avr32/4.4.7/../../../../avr32/lib/ucr3fp\libm.a(lib_a-w_fmod.o)
 .data          0x000019cc        0x0 c:/program files (x86)/atmel/atmel toolchain/avr32 gcc/native/3.4.1067/avr32-gnu-toolchain/bin/../lib/gcc/avr32/4.4.7/../../../../avr32/lib/ucr3fp\libm.a(lib_a-w_pow.o)
 .data          0x000019cc        0x0 c:/program files (x86)/atmel/atmel toolchain/avr32 gcc/native/3.4.1067/avr32-gnu-toolchain/bin/../lib/gcc/avr32/4.4.7/../../../../avr32/lib/ucr3fp\libm.a(lib_a-w_sqrt.o)
 .data          0x000019cc        0x0 c:/program files (x86)/atmel/atmel toolchain/avr32 gcc/native/3.4.1067/avr32-gnu-toolchain/bin/../lib/gcc/avr32/4.4.7/../../../../avr32/lib/ucr3fp\libm.a(lib_a-wf_sqrt.o)
 .data          0x000019cc        0x0 c:/program files (x86)/atmel/atmel toolchain/avr32 gcc/native/3.4.1067/avr32-gnu-toolchain/bin/../lib/gcc/avr32/4.4.7/../../../../avr32/lib/ucr3fp\libm.a(lib_a-e_asin.o)
 .data          0x000019cc        0x0 c:/program files (x86)/atmel/atmel toolchain/avr32 gcc/native/3.4.1067/avr32-gnu-toolchain/bin/../lib/gcc/avr32/4.4.7/../../../../avr32/lib/ucr3fp\libm.a(lib_a-e_atan2.o)
 .data          0x000019cc        0x0 c:/program files (x86)/atmel/atmel toolchain/avr32 gcc/native/3.4.1067/avr32-gnu-toolchain/bin/../lib/gcc/avr32/4.4.7/../../../../avr32/lib/ucr3fp\libm.a(lib_a-e_fmod.o)
 .data          0x000019cc        0x0 c:/program files (x86)/atmel/atmel toolchain/avr32 gcc/native/3.4.1067/avr32-gnu-toolchain/bin/../lib/gcc/avr32/4.4.7/../../../../avr32/lib/ucr3fp\libm.a(lib_a-e_pow.o)
 .data          0x000019cc        0x0 c:/program files (x86)/atmel/atmel toolchain/avr32 gcc/native/3.4.1067/avr32-gnu-toolchain/bin/../lib/gcc/avr32/4.4.7/../../../../avr32/lib/ucr3fp\libm.a(lib_a-e_rem_pio2.o)
 .data          0x000019cc        0x0 c:/program files (x86)/atmel/atmel toolchain/avr32 gcc/native/3.4.1067/avr32-gnu-toolchain/bin/../lib/gcc/avr32/4.4.7/../../../../avr32/lib/ucr3fp\libm.a(lib_a-e_sqrt.o)
 .data          0x000019cc        0x0 c:/program files (x86)/atmel/atmel toolchain/avr32 gcc/native/3.4.1067/avr32-gnu-toolchain/bin/../lib/gcc/avr32/4.4.7/../../../../avr32/lib/ucr3fp\libm.a(lib_a-ef_sqrt.o)
 .data          0x000019cc        0x0 c:/program files (x86)/atmel/atmel toolchain/avr32 gcc/native/3.4.1067/avr32-gnu-toolchain/bin/../lib/gcc/avr32/4.4.7/../../../../avr32/lib/ucr3fp\libm.a(lib_a-k_cos.o)
 .data          0x000019cc        0x0 c:/program files (x86)/atmel/atmel toolchain/avr32 gcc/native/3.4.1067/avr32-gnu-toolchain/bin/../lib/gcc/avr32/4.4.7/../../../../avr32/lib/ucr3fp\libm.a(lib_a-k_rem_pio2.o)
 .data          0x000019cc        0x0 c:/program files (x86)/atmel/atmel toolchain/avr32 gcc/native/3.4.1067/avr32-gnu-toolchain/bin/../lib/gcc/avr32/4.4.7/../../../../avr32/lib/ucr3fp\libm.a(lib_a-k_sin.o)
 .data          0x000019cc        0x0 c:/program files (x86)/atmel/atmel toolchain/avr32 gcc/native/3.4.1067/avr32-gnu-toolchain/bin/../lib/gcc/avr32/4.4.7/../../../../avr32/lib/ucr3fp\libm.a(lib_a-s_atan.o)
 .data          0x000019cc        0x0 c:/program files (x86)/atmel/atmel toolchain/avr32 gcc/native/3.4.1067/avr32-gnu-toolchain/bin/../lib/gcc/avr32/4.4.7/../../../../avr32/lib/ucr3fp\libm.a(lib_a-s_fabs.o)
 .data          0x000019cc        0x0 c:/program files (x86)/atmel/atmel toolchain/avr32 gcc/native/3.4.1067/avr32-gnu-toolchain/bin/../lib/gcc/avr32/4.4.7/../../../../avr32/lib/ucr3fp\libm.a(lib_a-s_finite.o)
 .data          0x000019cc        0x0 c:/program files (x86)/atmel/atmel toolchain/avr32 gcc/native/3.4.1067/avr32-gnu-toolchain/bin/../lib/gcc/avr32/4.4.7/../../../../avr32/lib/ucr3fp\libm.a(lib_a-s_isnand.o)
 .data          0x000019cc        0x0 c:/program files (x86)/atmel/atmel toolchain/avr32 gcc/native/3.4.1067/avr32-gnu-toolchain/bin/../lib/gcc/avr32/4.4.7/../../../../avr32/lib/ucr3fp\libm.a(lib_a-s_lib_ver.o)
 .data.__fdlib_version
                0x000019cc        0x4 c:/program files (x86)/atmel/atmel toolchain/avr32 gcc/native/3.4.1067/avr32-gnu-toolchain/bin/../lib/gcc/avr32/4.4.7/../../../../avr32/lib/ucr3fp\libm.a(lib_a-s_lib_ver.o)
                0x000019cc                __fdlib_version
 .data          0x000019d0        0x0 c:/program files (x86)/atmel/atmel toolchain/avr32 gcc/native/3.4.1067/avr32-gnu-toolchain/bin/../lib/gcc/avr32/4.4.7/../../../../avr32/lib/ucr3fp\libm.a(lib_a-s_matherr.o)
 .data          0x000019d0        0x0 c:/program files (x86)/atmel/atmel toolchain/avr32 gcc/native/3.4.1067/avr32-gnu-toolchain/bin/../lib/gcc/avr32/4.4.7/../../../../avr32/lib/ucr3fp\libm.a(lib_a-s_nan.o)
 .data          0x000019d0        0x0 c:/program files (x86)/atmel/atmel toolchain/avr32 gcc/native/3.4.1067/avr32-gnu-toolchain/bin/../lib/gcc/avr32/4.4.7/../../../../avr32/lib/ucr3fp\libm.a(lib_a-s_rint.o)
 .data          0x000019d0        0x0 c:/program files (x86)/atmel/atmel toolchain/avr32 gcc/native/3.4.1067/avr32-gnu-toolchain/bin/../lib/gcc/avr32/4.4.7/../../../../avr32/lib/ucr3fp\libm.a(lib_a-s_scalbn.o)
 .data          0x000019d0        0x0 c:/program files (x86)/atmel/atmel toolchain/avr32 gcc/native/3.4.1067/avr32-gnu-toolchain/bin/../lib/gcc/avr32/4.4.7/../../../../avr32/lib/ucr3fp\libm.a(lib_a-sf_isnan.o)
 .data          0x000019d0        0x0 c:/program files (x86)/atmel/atmel toolchain/avr32 gcc/native/3.4.1067/avr32-gnu-toolchain/bin/../lib/gcc/avr32/4.4.7/../../../../avr32/lib/ucr3fp\libm.a(lib_a-s_copysign.o)
 .data          0x000019d0        0x0 c:/program files (x86)/atmel/atmel toolchain/avr32 gcc/native/3.4.1067/avr32-gnu-toolchain/bin/../lib/gcc/avr32/4.4.7/ucr3fp\libgcc.a(_avr32_f64_mul.o)
 .data          0x000019d0        0x0 c:/program files (x86)/atmel/atmel toolchain/avr32 gcc/native/3.4.1067/avr32-gnu-toolchain/bin/../lib/gcc/avr32/4.4.7/ucr3fp\libgcc.a(_avr32_f64_addsub.o)
 .data          0x000019d0        0x0 c:/program files (x86)/atmel/atmel toolchain/avr32 gcc/native/3.4.1067/avr32-gnu-toolchain/bin/../lib/gcc/avr32/4.4.7/ucr3fp\libgcc.a(_avr32_f64_to_s32.o)
 .data          0x000019d0        0x0 c:/program files (x86)/atmel/atmel toolchain/avr32 gcc/native/3.4.1067/avr32-gnu-toolchain/bin/../lib/gcc/avr32/4.4.7/ucr3fp\libgcc.a(_avr32_f64_to_s64.o)
 .data          0x000019d0        0x0 c:/program files (x86)/atmel/atmel toolchain/avr32 gcc/native/3.4.1067/avr32-gnu-toolchain/bin/../lib/gcc/avr32/4.4.7/ucr3fp\libgcc.a(_avr32_s32_to_f64.o)
 .data          0x000019d0        0x0 c:/program files (x86)/atmel/atmel toolchain/avr32 gcc/native/3.4.1067/avr32-gnu-toolchain/bin/../lib/gcc/avr32/4.4.7/ucr3fp\libgcc.a(_avr32_f64_cmp_eq.o)
 .data          0x000019d0        0x0 c:/program files (x86)/atmel/atmel toolchain/avr32 gcc/native/3.4.1067/avr32-gnu-toolchain/bin/../lib/gcc/avr32/4.4.7/ucr3fp\libgcc.a(_avr32_f64_cmp_ge.o)
 .data          0x000019d0        0x0 c:/program files (x86)/atmel/atmel toolchain/avr32 gcc/native/3.4.1067/avr32-gnu-toolchain/bin/../lib/gcc/avr32/4.4.7/ucr3fp\libgcc.a(_avr32_f64_cmp_lt.o)
 .data          0x000019d0        0x0 c:/program files (x86)/atmel/atmel toolchain/avr32 gcc/native/3.4.1067/avr32-gnu-toolchain/bin/../lib/gcc/avr32/4.4.7/ucr3fp\libgcc.a(_avr32_f32_cmp_lt.o)
 .data          0x000019d0        0x0 c:/program files (x86)/atmel/atmel toolchain/avr32 gcc/native/3.4.1067/avr32-gnu-toolchain/bin/../lib/gcc/avr32/4.4.7/ucr3fp\libgcc.a(_avr32_f64_div.o)
 .data          0x000019d0        0x0 c:/program files (x86)/atmel/atmel toolchain/avr32 gcc/native/3.4.1067/avr32-gnu-toolchain/bin/../lib/gcc/avr32/4.4.7/ucr3fp\libgcc.a(_avr32_f32_div.o)
 .data          0x000019d0        0x0 c:/program files (x86)/atmel/atmel toolchain/avr32 gcc/native/3.4.1067/avr32-gnu-toolchain/bin/../lib/gcc/avr32/4.4.7/ucr3fp\libgcc.a(_avr32_f32_addsub.o)
 .data          0x000019d0        0x0 c:/program files (x86)/atmel/atmel toolchain/avr32 gcc/native/3.4.1067/avr32-gnu-toolchain/bin/../lib/gcc/avr32/4.4.7/ucr3fp\libgcc.a(_avr32_f32_mul.o)
 .data          0x000019d0        0x0 c:/program files (x86)/atmel/atmel toolchain/avr32 gcc/native/3.4.1067/avr32-gnu-toolchain/bin/../lib/gcc/avr32/4.4.7/ucr3fp\libgcc.a(_avr32_f32_to_f64.o)
 .data          0x000019d0        0x0 c:/program files (x86)/atmel/atmel toolchain/avr32 gcc/native/3.4.1067/avr32-gnu-toolchain/bin/../lib/gcc/avr32/4.4.7/ucr3fp\libgcc.a(_avr32_f64_to_f32.o)
 .data          0x000019d0        0x0 c:/program files (x86)/atmel/atmel toolchain/avr32 gcc/native/3.4.1067/avr32-gnu-toolchain/bin/../lib/gcc/avr32/4.4.7/ucr3fp\libgcc.a(_floatdidf.o)
 .data          0x000019d0        0x0 c:/program files (x86)/atmel/atmel toolchain/avr32 gcc/native/3.4.1067/avr32-gnu-toolchain/bin/../lib/gcc/avr32/4.4.7/ucr3fp\libgcc.a(_divdi3.o)
 .data          0x000019d0        0x0 c:/program files (x86)/atmel/atmel toolchain/avr32 gcc/native/3.4.1067/avr32-gnu-toolchain/bin/../lib/gcc/avr32/4.4.7/ucr3fp\libgcc.a(_moddi3.o)
 .data          0x000019d0        0x0 c:/program files (x86)/atmel/atmel toolchain/avr32 gcc/native/3.4.1067/avr32-gnu-toolchain/bin/../lib/gcc/avr32/4.4.7/ucr3fp\libgcc.a(_udivdi3.o)
 .data          0x000019d0        0x0 c:/program files (x86)/atmel/atmel toolchain/avr32 gcc/native/3.4.1067/avr32-gnu-toolchain/bin/../lib/gcc/avr32/4.4.7/ucr3fp\libgcc.a(_umoddi3.o)
 .data          0x000019d0        0x0 c:/program files (x86)/atmel/atmel toolchain/avr32 gcc/native/3.4.1067/avr32-gnu-toolchain/bin/../lib/gcc/avr32/4.4.7/../../../../avr32/lib/ucr3fp\libc.a(lib_a-errno.o)
 .data          0x000019d0        0x0 c:/program files (x86)/atmel/atmel toolchain/avr32 gcc/native/3.4.1067/avr32-gnu-toolchain/bin/../lib/gcc/avr32/4.4.7/../../../../avr32/lib/ucr3fp\libc.a(lib_a-impure.o)
 .data.impure_data
                0x000019d0       0xf0 c:/program files (x86)/atmel/atmel toolchain/avr32 gcc/native/3.4.1067/avr32-gnu-toolchain/bin/../lib/gcc/avr32/4.4.7/../../../../avr32/lib/ucr3fp\libc.a(lib_a-impure.o)
 .data._impure_ptr
                0x00001ac0        0x4 c:/program files (x86)/atmel/atmel toolchain/avr32 gcc/native/3.4.1067/avr32-gnu-toolchain/bin/../lib/gcc/avr32/4.4.7/../../../../avr32/lib/ucr3fp\libc.a(lib_a-impure.o)
                0x00001ac0                _impure_ptr
 .data          0x00001ac4        0x0 c:/program files (x86)/atmel/atmel toolchain/avr32 gcc/native/3.4.1067/avr32-gnu-toolchain/bin/../lib/gcc/avr32/4.4.7/../../../../avr32/lib/ucr3fp\libc.a(lib_a-malloc.o)
 .data          0x00001ac4        0x0 c:/program files (x86)/atmel/atmel toolchain/avr32 gcc/native/3.4.1067/avr32-gnu-toolchain/bin/../lib/gcc/avr32/4.4.7/../../../../avr32/lib/ucr3fp\libc.a(lib_a-mallocr.o)
 .data.__malloc_av_
                0x00001ac4      0x408 c:/program files (x86)/atmel/atmel toolchain/avr32 gcc/native/3.4.1067/avr32-gnu-toolchain/bin/../lib/gcc/avr32/4.4.7/../../../../avr32/lib/ucr3fp\libc.a(lib_a-mallocr.o)
                0x00001ac4                __malloc_av_
 .data.__malloc_trim_threshold
                0x00001ecc        0x4 c:/program files (x86)/atmel/atmel toolchain/avr32 gcc/native/3.4.1067/avr32-gnu-toolchain/bin/../lib/gcc/avr32/4.4.7/../../../../avr32/lib/ucr3fp\libc.a(lib_a-mallocr.o)
                0x00001ecc                __malloc_trim_threshold
 .data.__malloc_sbrk_base
                0x00001ed0        0x4 c:/program files (x86)/atmel/atmel toolchain/avr32 gcc/native/3.4.1067/avr32-gnu-toolchain/bin/../lib/gcc/avr32/4.4.7/../../../../avr32/lib/ucr3fp\libc.a(lib_a-mallocr.o)
                0x00001ed0                __malloc_sbrk_base
 .data          0x00001ed4        0x0 c:/program files (x86)/atmel/atmel toolchain/avr32 gcc/native/3.4.1067/avr32-gnu-toolchain/bin/../lib/gcc/avr32/4.4.7/../../../../avr32/lib/ucr3fp\libc.a(lib_a-memcpy.o)
 .data          0x00001ed4        0x0 c:/program files (x86)/atmel/atmel toolchain/avr32 gcc/native/3.4.1067/avr32-gnu-toolchain/bin/../lib/gcc/avr32/4.4.7/../../../../avr32/lib/ucr3fp\libc.a(lib_a-memset.o)
 .data          0x00001ed4        0x0 c:/program files (x86)/atmel/atmel toolchain/avr32 gcc/native/3.4.1067/avr32-gnu-toolchain/bin/../lib/gcc/avr32/4.4.7/../../../../avr32/lib/ucr3fp\libc.a(lib_a-mlock.o)
 .data          0x00001ed4        0x0 c:/program files (x86)/atmel/atmel toolchain/avr32 gcc/native/3.4.1067/avr32-gnu-toolchain/bin/../lib/gcc/avr32/4.4.7/../../../../avr32/lib/ucr3fp\libc.a(lib_a-rand.o)
 .data          0x00001ed4        0x0 c:/program files (x86)/atmel/atmel toolchain/avr32 gcc/native/3.4.1067/avr32-gnu-toolchain/bin/../lib/gcc/avr32/4.4.7/../../../../avr32/lib/ucr3fp\libc.a(lib_a-sbrkr.o)
 .data          0x00001ed4        0x0 c:/program files (x86)/atmel/atmel toolchain/avr32 gcc/native/3.4.1067/avr32-gnu-toolchain/bin/../lib/gcc/avr32/4.4.7/../../../../avr32/lib/ucr3fp\libc.a(lib_a-snprintf.o)
 .data          0x00001ed4        0x0 c:/program files (x86)/atmel/atmel toolchain/avr32 gcc/native/3.4.1067/avr32-gnu-toolchain/bin/../lib/gcc/avr32/4.4.7/../../../../avr32/lib/ucr3fp\libc.a(lib_a-strcpy.o)
 .data          0x00001ed4        0x0 c:/program files (x86)/atmel/atmel toolchain/avr32 gcc/native/3.4.1067/avr32-gnu-toolchain/bin/../lib/gcc/avr32/4.4.7/../../../../avr32/lib/ucr3fp\libc.a(lib_a-strlen.o)
 .data          0x00001ed4        0x0 c:/program files (x86)/atmel/atmel toolchain/avr32 gcc/native/3.4.1067/avr32-gnu-toolchain/bin/../lib/gcc/avr32/4.4.7/../../../../avr32/lib/ucr3fp\libc.a(lib_a-syscalls.o)
 .data          0x00001ed4        0x0 c:/program files (x86)/atmel/atmel toolchain/avr32 gcc/native/3.4.1067/avr32-gnu-toolchain/bin/../lib/gcc/avr32/4.4.7/../../../../avr32/lib/ucr3fp\libc.a(lib_a-vfprintf.o)
 .data          0x00001ed4        0x0 c:/program files (x86)/atmel/atmel toolchain/avr32 gcc/native/3.4.1067/avr32-gnu-toolchain/bin/../lib/gcc/avr32/4.4.7/../../../../avr32/lib/ucr3fp\libc.a(lib_a-wsetup.o)
 .data          0x00001ed4        0x0 c:/program files (x86)/atmel/atmel toolchain/avr32 gcc/native/3.4.1067/avr32-gnu-toolchain/bin/../lib/gcc/avr32/4.4.7/../../../../avr32/lib/ucr3fp\libc.a(lib_a-dtoa.o)
 .data          0x00001ed4        0x0 c:/program files (x86)/atmel/atmel toolchain/avr32 gcc/native/3.4.1067/avr32-gnu-toolchain/bin/../lib/gcc/avr32/4.4.7/../../../../avr32/lib/ucr3fp\libc.a(lib_a-fflush.o)
 .data          0x00001ed4        0x0 c:/program files (x86)/atmel/atmel toolchain/avr32 gcc/native/3.4.1067/avr32-gnu-toolchain/bin/../lib/gcc/avr32/4.4.7/../../../../avr32/lib/ucr3fp\libc.a(lib_a-findfp.o)
 .data          0x00001ed4        0x0 c:/program files (x86)/atmel/atmel toolchain/avr32 gcc/native/3.4.1067/avr32-gnu-toolchain/bin/../lib/gcc/avr32/4.4.7/../../../../avr32/lib/ucr3fp\libc.a(lib_a-freer.o)
 .data          0x00001ed4        0x0 c:/program files (x86)/atmel/atmel toolchain/avr32 gcc/native/3.4.1067/avr32-gnu-toolchain/bin/../lib/gcc/avr32/4.4.7/../../../../avr32/lib/ucr3fp\libc.a(lib_a-fvwrite.o)
 .data          0x00001ed4        0x0 c:/program files (x86)/atmel/atmel toolchain/avr32 gcc/native/3.4.1067/avr32-gnu-toolchain/bin/../lib/gcc/avr32/4.4.7/../../../../avr32/lib/ucr3fp\libc.a(lib_a-fwalk.o)
 .data          0x00001ed4        0x0 c:/program files (x86)/atmel/atmel toolchain/avr32 gcc/native/3.4.1067/avr32-gnu-toolchain/bin/../lib/gcc/avr32/4.4.7/../../../../avr32/lib/ucr3fp\libc.a(lib_a-locale.o)
 .data.__lc_ctype
                0x00001ed4        0xc c:/program files (x86)/atmel/atmel toolchain/avr32 gcc/native/3.4.1067/avr32-gnu-toolchain/bin/../lib/gcc/avr32/4.4.7/../../../../avr32/lib/ucr3fp\libc.a(lib_a-locale.o)
                0x00001ed4                __lc_ctype
 .data.__mb_cur_max
                0x00001ee0        0x4 c:/program files (x86)/atmel/atmel toolchain/avr32 gcc/native/3.4.1067/avr32-gnu-toolchain/bin/../lib/gcc/avr32/4.4.7/../../../../avr32/lib/ucr3fp\libc.a(lib_a-locale.o)
                0x00001ee0                __mb_cur_max
 .data          0x00001ee4        0x0 c:/program files (x86)/atmel/atmel toolchain/avr32 gcc/native/3.4.1067/avr32-gnu-toolchain/bin/../lib/gcc/avr32/4.4.7/../../../../avr32/lib/ucr3fp\libc.a(lib_a-makebuf.o)
 .data          0x00001ee4        0x0 c:/program files (x86)/atmel/atmel toolchain/avr32 gcc/native/3.4.1067/avr32-gnu-toolchain/bin/../lib/gcc/avr32/4.4.7/../../../../avr32/lib/ucr3fp\libc.a(lib_a-memchr.o)
 .data          0x00001ee4        0x0 c:/program files (x86)/atmel/atmel toolchain/avr32 gcc/native/3.4.1067/avr32-gnu-toolchain/bin/../lib/gcc/avr32/4.4.7/../../../../avr32/lib/ucr3fp\libc.a(lib_a-memmove.o)
 .data          0x00001ee4        0x0 c:/program files (x86)/atmel/atmel toolchain/avr32 gcc/native/3.4.1067/avr32-gnu-toolchain/bin/../lib/gcc/avr32/4.4.7/../../../../avr32/lib/ucr3fp\libc.a(lib_a-mprec.o)
 .data          0x00001ee4        0x0 c:/program files (x86)/atmel/atmel toolchain/avr32 gcc/native/3.4.1067/avr32-gnu-toolchain/bin/../lib/gcc/avr32/4.4.7/../../../../avr32/lib/ucr3fp\libc.a(lib_a-reallocr.o)
 .data          0x00001ee4        0x0 c:/program files (x86)/atmel/atmel toolchain/avr32 gcc/native/3.4.1067/avr32-gnu-toolchain/bin/../lib/gcc/avr32/4.4.7/../../../../avr32/lib/ucr3fp\libc.a(lib_a-reent.o)
 .data          0x00001ee4        0x0 c:/program files (x86)/atmel/atmel toolchain/avr32 gcc/native/3.4.1067/avr32-gnu-toolchain/bin/../lib/gcc/avr32/4.4.7/../../../../avr32/lib/ucr3fp\libc.a(lib_a-s_isinfd.o)
 .data          0x00001ee4        0x0 c:/program files (x86)/atmel/atmel toolchain/avr32 gcc/native/3.4.1067/avr32-gnu-toolchain/bin/../lib/gcc/avr32/4.4.7/../../../../avr32/lib/ucr3fp\libc.a(lib_a-stdio.o)
 .data          0x00001ee4        0x0 c:/program files (x86)/atmel/atmel toolchain/avr32 gcc/native/3.4.1067/avr32-gnu-toolchain/bin/../lib/gcc/avr32/4.4.7/../../../../avr32/lib/ucr3fp\libc.a(lib_a-strcmp.o)
 .data          0x00001ee4        0x0 c:/program files (x86)/atmel/atmel toolchain/avr32 gcc/native/3.4.1067/avr32-gnu-toolchain/bin/../lib/gcc/avr32/4.4.7/../../../../avr32/lib/ucr3fp\libc.a(lib_a-writer.o)
 .data          0x00001ee4        0x0 c:/program files (x86)/atmel/atmel toolchain/avr32 gcc/native/3.4.1067/avr32-gnu-toolchain/bin/../lib/gcc/avr32/4.4.7/../../../../avr32/lib/ucr3fp\libc.a(lib_a-callocr.o)
 .data          0x00001ee4        0x0 c:/program files (x86)/atmel/atmel toolchain/avr32 gcc/native/3.4.1067/avr32-gnu-toolchain/bin/../lib/gcc/avr32/4.4.7/../../../../avr32/lib/ucr3fp\libc.a(lib_a-closer.o)
 .data          0x00001ee4        0x0 c:/program files (x86)/atmel/atmel toolchain/avr32 gcc/native/3.4.1067/avr32-gnu-toolchain/bin/../lib/gcc/avr32/4.4.7/../../../../avr32/lib/ucr3fp\libc.a(lib_a-fclose.o)
 .data          0x00001ee4        0x0 c:/program files (x86)/atmel/atmel toolchain/avr32 gcc/native/3.4.1067/avr32-gnu-toolchain/bin/../lib/gcc/avr32/4.4.7/../../../../avr32/lib/ucr3fp\libc.a(lib_a-fstatr.o)
 .data          0x00001ee4        0x0 c:/program files (x86)/atmel/atmel toolchain/avr32 gcc/native/3.4.1067/avr32-gnu-toolchain/bin/../lib/gcc/avr32/4.4.7/../../../../avr32/lib/ucr3fp\libc.a(lib_a-lseekr.o)
 .data          0x00001ee4        0x0 c:/program files (x86)/atmel/atmel toolchain/avr32 gcc/native/3.4.1067/avr32-gnu-toolchain/bin/../lib/gcc/avr32/4.4.7/../../../../avr32/lib/ucr3fp\libc.a(lib_a-readr.o)
 *(.gnu.linkonce.d.*personality*)

.data1
 *(.data1)

.balign         0x00001ee4        0x4 load address 0x80038c50
                0x00001ee8                . = ALIGN (0x8)
 *fill*         0x00001ee4        0x4 
                0x00001ee8                _edata = .
                0x00001ee8                _edata = .
                0x00001ee8                PROVIDE (edata, .)
                0x00001ee8                __bss_start = .

.bss            0x00001f00     0xa370 load address 0x80038c60
 *(.dynbss)
 *(.bss .bss.* .gnu.linkonce.b.*)
 .bss           0x00001f00        0x0 Library/communication/console.o
 .bss           0x00001f00        0x0 Library/communication/data_logging.o
 .bss           0x00001f00        0x0 Library/communication/data_logging_telemetry.o
 .bss           0x00001f00        0x0 Library/communication/hud_telemetry.o
 .bss.m_mavlink_status.2939
                0x00001f00       0x40 Library/communication/hud_telemetry.o
 .bss           0x00001f40        0x0 Library/communication/mavlink_communication.o
 .bss           0x00001f40        0x0 Library/communication/mavlink_message_handler.o
 .bss.m_mavlink_status.2453
                0x00001f40       0x40 Library/communication/mavlink_message_handler.o
 .bss           0x00001f80        0x0 Library/communication/mavlink_waypoint_handler.o
 .bss.m_mavlink_status.2453
                0x00001f80       0x40 Library/communication/mavlink_waypoint_handler.o
 .bss           0x00001fc0        0x0 Library/communication/neighbor_selection.o
 .bss           0x00001fc0        0x0 Library/communication/remote.o
 .bss           0x00001fc0        0x0 Library/communication/remote_telemetry.o
 .bss.m_mavlink_status.2453
                0x00001fc0       0x40 Library/communication/remote_telemetry.o
 .bss           0x00002000        0x0 Library/communication/state.o
 .bss           0x00002000        0x0 Library/communication/state_machine.o
 .bss           0x00002000        0x0 Library/communication/state_telemetry.o
 .bss.m_mavlink_status.2453
                0x00002000       0x40 Library/communication/state_telemetry.o
 .bss           0x00002040        0x0 Library/control/joystick_parsing.o
 .bss           0x00002040        0x0 Library/control/joystick_parsing_telemetry.o
 .bss.m_mavlink_status.2453
                0x00002040       0x40 Library/control/joystick_parsing_telemetry.o
 .bss           0x00002080        0x0 Library/control/kalman_predictor.o
 .bss           0x00002080        0x0 Library/control/pid_control.o
 .bss           0x00002080        0x0 Library/control/servos_mix_quadcopter_cross.o
 .bss           0x00002080        0x0 Library/control/servos_mix_quadcopter_diag.o
 .bss           0x00002080        0x0 Library/control/stabilisation_copter.o
 .bss           0x00002080        0x0 Library/control/stabilisation_telemetry.o
 .bss.m_mavlink_status.2453
                0x00002080       0x40 Library/control/stabilisation_telemetry.o
 .bss           0x000020c0        0x0 Library/control/track_following.o
 .bss.m_mavlink_status.2453
                0x000020c0       0x40 Library/control/track_following.o
 .bss.kalman_handler_x.40985
                0x00002100       0x38 Library/control/track_following.o
 .bss.delta_t.40992
                0x00002138        0x4 Library/control/track_following.o
 .bss.kalman_init_done.40994
                0x0000213c        0x1 Library/control/track_following.o
 *fill*         0x0000213d        0x3 
 .bss.kalman_handler_y.40986
                0x00002140       0x38 Library/control/track_following.o
 .bss.last_time_in_loop.40993
                0x00002178        0x4 Library/control/track_following.o
 .bss.last_measurement_time.41028
                0x0000217c        0x4 Library/control/track_following.o
 .bss.kalman_handler_z.40987
                0x00002180       0x38 Library/control/track_following.o
 .bss.last_measurement_x.40988
                0x000021b8        0x8 Library/control/track_following.o
 .bss.last_measurement_z.40990
                0x000021c0        0x8 Library/control/track_following.o
 .bss.last_measurement_y.40989
                0x000021c8        0x8 Library/control/track_following.o
 .bss           0x000021d0        0x0 Library/hal/analog_monitor_telemetry.o
 .bss.m_mavlink_status.2453
                0x000021d0       0x40 Library/hal/analog_monitor_telemetry.o
 .bss           0x00002210        0x0 Library/hal/analog_monitor.o
 .bss           0x00002210        0x0 Library/hal/bmp085_telemetry.o
 .bss.m_mavlink_status.2453
                0x00002210       0x40 Library/hal/bmp085_telemetry.o
 .bss           0x00002250        0x0 Library/hal/fat_fs/diskio.o
 .bss           0x00002250        0x0 Library/hal/fat_fs/ff.o
 .bss.Fsid      0x00002250        0x2 Library/hal/fat_fs/ff.o
 *fill*         0x00002252        0x2 
 .bss.FatFs     0x00002254        0x4 Library/hal/fat_fs/ff.o
 .bss           0x00002258        0x0 Library/hal/fat_fs/option/ccsbcs.o
 .bss           0x00002258        0x0 Library/hal/fat_fs/option/syscall.o
 .bss           0x00002258        0x0 Library/hal/fat_fs/option/unicode.o
 .bss           0x00002258        0x0 Library/hal/gps_ublox.o
 .bss.loop_pos_llh
                0x00002258        0x1 Library/hal/gps_ublox.o
                0x00002258                loop_pos_llh
 .bss.loop_solution
                0x00002259        0x1 Library/hal/gps_ublox.o
                0x00002259                loop_solution
 .bss.loop_tim_vrfy
                0x0000225a        0x1 Library/hal/gps_ublox.o
                0x0000225a                loop_tim_vrfy
 *fill*         0x0000225b        0x1 
 .bss.ubx_number_of_valid_solution_message
                0x0000225c        0x2 Library/hal/gps_ublox.o
                0x0000225c                ubx_number_of_valid_solution_message
 .bss.ubx_number_of_valid_cfg_rate_message
                0x0000225e        0x2 Library/hal/gps_ublox.o
                0x0000225e                ubx_number_of_valid_cfg_rate_message
 .bss.ubx_number_of_valid_mon_rxr_message
                0x00002260        0x2 Library/hal/gps_ublox.o
                0x00002260                ubx_number_of_valid_mon_rxr_message
 *fill*         0x00002262        0x2 
 .bss.ubx_last_message
                0x00002264        0x4 Library/hal/gps_ublox.o
                0x00002264                ubx_last_message
 .bss.ubx_current_message
                0x00002268        0x4 Library/hal/gps_ublox.o
                0x00002268                ubx_current_message
 .bss.ubx_number_of_valid_tim_tp_message
                0x0000226c        0x2 Library/hal/gps_ublox.o
                0x0000226c                ubx_number_of_valid_tim_tp_message
 .bss.ubx_number_of_valid_status_message
                0x0000226e        0x2 Library/hal/gps_ublox.o
                0x0000226e                ubx_number_of_valid_status_message
 .bss.ubx_number_of_valid_tim_vrfy_message
                0x00002270        0x2 Library/hal/gps_ublox.o
                0x00002270                ubx_number_of_valid_tim_vrfy_message
 .bss.print_nav_on_debug
                0x00002272        0x1 Library/hal/gps_ublox.o
                0x00002272                print_nav_on_debug
 *fill*         0x00002273        0x1 
 .bss.ubx_number_of_valid_cfg_set_get_rate_message
                0x00002274        0x2 Library/hal/gps_ublox.o
                0x00002274                ubx_number_of_valid_cfg_set_get_rate_message
 .bss.ubx_number_of_valid_pos_llh_message
                0x00002276        0x2 Library/hal/gps_ublox.o
                0x00002276                ubx_number_of_valid_pos_llh_message
 .bss.loop_tim_tp
                0x00002278        0x1 Library/hal/gps_ublox.o
                0x00002278                loop_tim_tp
 .bss.loop_vel_ned
                0x00002279        0x1 Library/hal/gps_ublox.o
                0x00002279                loop_vel_ned
 .bss.ubx_number_of_valid_vel_ned_message
                0x0000227a        0x2 Library/hal/gps_ublox.o
                0x0000227a                ubx_number_of_valid_vel_ned_message
 .bss.loop_status
                0x0000227c        0x1 Library/hal/gps_ublox.o
                0x0000227c                loop_status
 *fill*         0x0000227d        0x3 
 .bss.ubx_valid_message
                0x00002280        0x4 Library/hal/gps_ublox.o
                0x00002280                ubx_valid_message
 .bss.ubx_number_of_valid_nav_settings_message
                0x00002284        0x2 Library/hal/gps_ublox.o
                0x00002284                ubx_number_of_valid_nav_settings_message
 .bss.ubx_number_of_valid_sv_info_message
                0x00002286        0x2 Library/hal/gps_ublox.o
                0x00002286                ubx_number_of_valid_sv_info_message
 .bss           0x00002288        0x0 Library/hal/gps_ublox_telemetry.o
 .bss.m_mavlink_status.2453
                0x00002288       0x40 Library/hal/gps_ublox_telemetry.o
 .bss           0x000022c8        0x0 Library/hal/hmc5883l.o
 .bss           0x000022c8        0x0 Library/hal/i2c_driver_int.o
 .bss           0x000022c8        0x0 Library/hal/lsm330dlc.o
 .bss           0x000022c8        0x0 Library/hal/piezo_speaker.o
 .bss           0x000022c8        0x0 Library/hal/pwm_servos.o
 .bss           0x000022c8        0x0 Library/hal/sd_spi.o
 .bss.gl_ptr_mem
                0x000022c8        0x4 Library/hal/sd_spi.o
 .bss           0x000022cc        0x0 Library/hal/servos.o
 .bss           0x000022cc        0x0 Library/hal/servos_telemetry.o
 .bss.m_mavlink_status.2577
                0x000022cc       0x40 Library/hal/servos_telemetry.o
 .bss           0x0000230c        0x0 Library/hal/spektrum_satellite.o
 .bss           0x0000230c        0x0 Library/hal/time_keeper.o
 .bss           0x0000230c        0x0 Library/hal/usb_int.o
 .bss.usb_conf  0x0000230c        0xc Library/hal/usb_int.o
 .bss           0x00002318        0x0 Library/hal/xbee.o
 .bss           0x00002318        0x0 Library/runtime/scheduler_telemetry.o
 .bss.m_mavlink_status.2453
                0x00002318       0x40 Library/runtime/scheduler_telemetry.o
 .bss           0x00002358        0x0 Library/sensing/ahrs.o
 .bss           0x00002358        0x0 Library/sensing/ahrs_telemetry.o
 .bss.m_mavlink_status.2453
                0x00002358       0x40 Library/sensing/ahrs_telemetry.o
 .bss           0x00002398        0x0 Library/sensing/imu_telemetry.o
 .bss.m_mavlink_status.2453
                0x00002398       0x40 Library/sensing/imu_telemetry.o
 .bss           0x000023d8        0x0 Library/sensing/position_estimation.o
 .bss           0x000023d8        0x0 Library/sensing/position_estimation_telemetry.o
 .bss.m_mavlink_status.2453
                0x000023d8       0x40 Library/sensing/position_estimation_telemetry.o
 .bss           0x00002418        0x0 Library/sensing/qfilter.o
 .bss           0x00002418        0x0 Library/sensing/simulation_telemetry.o
 .bss.m_mavlink_status.2453
                0x00002418       0x40 Library/sensing/simulation_telemetry.o
 .bss           0x00002458        0x0 Library/util/linear_algebra.o
 .bss           0x00002458        0x0 Library/util/matrixlib_float.o
 .bss           0x00002458        0x0 Library/util/quick_trig.o
 .bss           0x00002458        0x0 src/central_data.o
 .bss.central_data
                0x00002458     0x1c00 src/central_data.o
 .bss           0x00004058        0x0 src/mavlink_telemetry.o
 .bss           0x00004058        0x0 src/simu_gps_track.o
 .bss.m_mavlink_status.2453
                0x00004058       0x40 src/simu_gps_track.o
 .bss           0x00004098        0x0 src/tasks.o
 .bss           0x00004098        0x0 Library/communication/mavlink_stream.o
 .bss.m_mavlink_status.2453
                0x00004098       0x40 Library/communication/mavlink_stream.o
 .bss.m_mavlink_buffer.2460
                0x000040d8      0x440 Library/communication/mavlink_stream.o
 .bss           0x00004518        0x0 Library/communication/onboard_parameters.o
 .bss.m_mavlink_status.2453
                0x00004518       0x40 Library/communication/onboard_parameters.o
 .bss           0x00004558        0x0 Library/control/navigation.o
 .bss.m_mavlink_status.2453
                0x00004558       0x40 Library/control/navigation.o
 .bss           0x00004598        0x0 Library/control/stabilisation.o
 .bss           0x00004598        0x0 Library/hal/adc_int.o
 .bss.last_adc_int_time
                0x00004598        0x4 Library/hal/adc_int.o
 .bss.oversampling_divider
                0x0000459c        0x4 Library/hal/adc_int.o
 .bss.channel_count
                0x000045a0        0x4 Library/hal/adc_int.o
 .bss.adc_int_period
                0x000045a4        0x4 Library/hal/adc_int.o
 .bss.sample_counter
                0x000045a8        0x4 Library/hal/adc_int.o
 .bss.number_of_samples
                0x000045ac        0x4 Library/hal/adc_int.o
 .bss.oversampling
                0x000045b0        0x4 Library/hal/adc_int.o
 .bss.sequencer_item_count
                0x000045b4        0x4 Library/hal/adc_int.o
 .bss.oversampling_counter
                0x000045b8        0x4 Library/hal/adc_int.o
 .bss.internal_buffer
                0x000045bc       0x40 Library/hal/adc_int.o
 .bss           0x000045fc        0x0 Library/hal/ads1274.o
 .bss.interrupt_counter
                0x000045fc        0x4 Library/hal/ads1274.o
 .bss.adc_buffer
                0x00004600     0x4000 Library/hal/ads1274.o
 .bss.sample_counter
                0x00008600        0x4 Library/hal/ads1274.o
 .bss.function_generator
                0x00008604        0x4 Library/hal/ads1274.o
 .bss           0x00008608        0x0 Library/hal/bmp085.o
 .bss           0x00008608        0x0 Library/hal/dac_dma.o
 .bss.from      0x00008608        0x2 Library/hal/dac_dma.o
 .bss.to        0x0000860a        0x2 Library/hal/dac_dma.o
 .bss.buffer    0x0000860c        0x4 Library/hal/dac_dma.o
 .bss.autoplay  0x00008610        0x4 Library/hal/dac_dma.o
 .bss           0x00008614        0x0 Library/hal/led.o
 .bss           0x00008614        0x0 Library/hal/spi_buffered.o
 .bss.spi_buffers
                0x00008614       0xa8 Library/hal/spi_buffered.o
 .bss           0x000086bc        0x0 Library/hal/uart_int.o
 .bss.usart_conf
                0x000086bc      0xac8 Library/hal/uart_int.o
 .bss           0x00009184        0x0 Library/runtime/scheduler.o
 .bss           0x00009184        0x0 Library/sensing/imu.o
 .bss           0x00009184        0x0 Library/sensing/simulation.o
 .bss           0x00009184        0x0 Library/util/buffer.o
 .bss           0x00009184        0x0 Library/util/coord_conventions.o
 .bss           0x00009184        0x0 Library/util/generator.o
 .bss.dac_function_buffer
                0x00009184      0x400 Library/util/generator.o
 .bss           0x00009584        0x0 Library/util/print_util.o
 .bss           0x00009584        0x0 Library/util/sinus.o
 .bss           0x00009584        0x0 src/asf/avr32/drivers/adcifa/adcifa.o
 .bss           0x00009584        0x0 src/asf/avr32/drivers/ast/ast.o
 .bss           0x00009584        0x0 src/asf/avr32/drivers/dacifb/dacifb.o
 .bss           0x00009584        0x0 src/asf/avr32/drivers/eic/eic.o
 .bss           0x00009584        0x0 src/asf/avr32/drivers/flashc/flashc.o
 .bss.flashc_error_status
                0x00009584        0x4 src/asf/avr32/drivers/flashc/flashc.o
 .bss           0x00009588        0x0 src/asf/avr32/drivers/gpio/gpio.o
 .bss           0x00009588        0x0 src/asf/avr32/drivers/intc/exception.o
 .bss           0x00009588        0x0 src/asf/avr32/drivers/intc/intc.o
 .bss._int_line_handler_table_0
                0x00009588        0x4 src/asf/avr32/drivers/intc/intc.o
 .bss._int_line_handler_table_1
                0x0000958c        0x8 src/asf/avr32/drivers/intc/intc.o
 .bss._int_line_handler_table_2
                0x00009594        0x4 src/asf/avr32/drivers/intc/intc.o
 .bss._int_line_handler_table_3
                0x00009598       0x10 src/asf/avr32/drivers/intc/intc.o
 .bss._int_line_handler_table_4
                0x000095a8       0x10 src/asf/avr32/drivers/intc/intc.o
 .bss._int_line_handler_table_5
                0x000095b8       0x10 src/asf/avr32/drivers/intc/intc.o
 .bss._int_line_handler_table_6
                0x000095c8       0x10 src/asf/avr32/drivers/intc/intc.o
 .bss._int_line_handler_table_7
                0x000095d8        0x4 src/asf/avr32/drivers/intc/intc.o
 .bss._int_line_handler_table_8
                0x000095dc        0x4 src/asf/avr32/drivers/intc/intc.o
 .bss._int_line_handler_table_9
                0x000095e0       0x28 src/asf/avr32/drivers/intc/intc.o
 .bss._int_line_handler_table_10
                0x00009608        0x4 src/asf/avr32/drivers/intc/intc.o
 .bss._int_line_handler_table_11
                0x0000960c        0x4 src/asf/avr32/drivers/intc/intc.o
 .bss._int_line_handler_table_12
                0x00009610        0x4 src/asf/avr32/drivers/intc/intc.o
 .bss._int_line_handler_table_13
                0x00009614        0x4 src/asf/avr32/drivers/intc/intc.o
 .bss._int_line_handler_table_14
                0x00009618       0x14 src/asf/avr32/drivers/intc/intc.o
 .bss._int_line_handler_table_15
                0x0000962c       0x10 src/asf/avr32/drivers/intc/intc.o
 .bss._int_line_handler_table_16
                0x0000963c       0x10 src/asf/avr32/drivers/intc/intc.o
 .bss._int_line_handler_table_17
                0x0000964c        0x4 src/asf/avr32/drivers/intc/intc.o
 .bss._int_line_handler_table_18
                0x00009650       0x40 src/asf/avr32/drivers/intc/intc.o
 .bss._int_line_handler_table_19
                0x00009690        0x4 src/asf/avr32/drivers/intc/intc.o
 .bss._int_line_handler_table_33
                0x00009694        0xc src/asf/avr32/drivers/intc/intc.o
 .bss._int_line_handler_table_34
                0x000096a0        0xc src/asf/avr32/drivers/intc/intc.o
 .bss._int_line_handler_table_35
                0x000096ac        0x8 src/asf/avr32/drivers/intc/intc.o
 .bss._int_line_handler_table_36
                0x000096b4       0x18 src/asf/avr32/drivers/intc/intc.o
 .bss._int_line_handler_table_37
                0x000096cc        0x4 src/asf/avr32/drivers/intc/intc.o
 .bss._int_line_handler_table_38
                0x000096d0        0x4 src/asf/avr32/drivers/intc/intc.o
 .bss._int_line_handler_table_39
                0x000096d4       0x18 src/asf/avr32/drivers/intc/intc.o
 .bss._int_line_handler_table_40
                0x000096ec       0x18 src/asf/avr32/drivers/intc/intc.o
 .bss._int_line_handler_table_29
                0x00009704        0x4 src/asf/avr32/drivers/intc/intc.o
 .bss._int_line_handler_table_30
                0x00009708        0x4 src/asf/avr32/drivers/intc/intc.o
 .bss._int_line_handler_table_31
                0x0000970c        0x4 src/asf/avr32/drivers/intc/intc.o
 .bss._int_line_handler_table_41
                0x00009710        0x4 src/asf/avr32/drivers/intc/intc.o
 .bss._int_line_handler_table_32
                0x00009714        0x4 src/asf/avr32/drivers/intc/intc.o
 .bss._int_line_handler_table_20
                0x00009718        0x4 src/asf/avr32/drivers/intc/intc.o
 .bss._int_line_handler_table_21
                0x0000971c        0x4 src/asf/avr32/drivers/intc/intc.o
 .bss._int_line_handler_table_22
                0x00009720        0x4 src/asf/avr32/drivers/intc/intc.o
 .bss._int_line_handler_table_23
                0x00009724        0x4 src/asf/avr32/drivers/intc/intc.o
 .bss._int_line_handler_table_24
                0x00009728        0x4 src/asf/avr32/drivers/intc/intc.o
 .bss._int_line_handler_table_25
                0x0000972c        0x4 src/asf/avr32/drivers/intc/intc.o
 .bss._int_line_handler_table_26
                0x00009730        0x4 src/asf/avr32/drivers/intc/intc.o
 .bss._int_line_handler_table_27
                0x00009734        0x4 src/asf/avr32/drivers/intc/intc.o
 .bss._int_line_handler_table_28
                0x00009738        0x4 src/asf/avr32/drivers/intc/intc.o
 .bss._int_line_handler_table_42
                0x0000973c        0x4 src/asf/avr32/drivers/intc/intc.o
 .bss._int_line_handler_table_43
                0x00009740        0x4 src/asf/avr32/drivers/intc/intc.o
 .bss._int_line_handler_table_44
                0x00009744        0x4 src/asf/avr32/drivers/intc/intc.o
 .bss._int_line_handler_table_45
                0x00009748        0x4 src/asf/avr32/drivers/intc/intc.o
 .bss._int_line_handler_table_46
                0x0000974c        0x4 src/asf/avr32/drivers/intc/intc.o
 .bss           0x00009750        0x0 src/asf/avr32/drivers/pdca/pdca.o
 .bss           0x00009750        0x0 src/asf/avr32/drivers/pevc/pevc.o
 .bss           0x00009750        0x0 src/asf/avr32/drivers/pm/pm_uc3c.o
 .bss           0x00009750        0x0 src/asf/avr32/drivers/pm/power_clocks_lib.o
 .bss           0x00009750        0x0 src/asf/avr32/drivers/pwm/pwm4.o
 .bss           0x00009750        0x0 src/asf/avr32/drivers/scif/scif_uc3c.o
 .bss           0x00009750        0x0 src/asf/avr32/drivers/spi/spi.o
 .bss           0x00009750        0x0 src/asf/avr32/drivers/tc/tc.o
 .bss           0x00009750        0x0 src/asf/avr32/drivers/twim/twim.o
 .bss.twim_inst
                0x00009750        0x4 src/asf/avr32/drivers/twim/twim.o
 .bss.twim_rx_data
                0x00009754        0x4 src/asf/avr32/drivers/twim/twim.o
 .bss.twim_rx_nb_bytes
                0x00009758        0x4 src/asf/avr32/drivers/twim/twim.o
 .bss.transfer_status
                0x0000975c        0x4 src/asf/avr32/drivers/twim/twim.o
 .bss.twim_tx_data
                0x00009760        0x4 src/asf/avr32/drivers/twim/twim.o
 .bss.twim_it_mask
                0x00009764        0x4 src/asf/avr32/drivers/twim/twim.o
 .bss.twim_next
                0x00009768        0x1 src/asf/avr32/drivers/twim/twim.o
 *fill*         0x00009769        0x3 
 .bss.twim_package
                0x0000976c        0x4 src/asf/avr32/drivers/twim/twim.o
 .bss.twim_tx_nb_bytes
                0x00009770        0x4 src/asf/avr32/drivers/twim/twim.o
 .bss           0x00009774        0x0 src/asf/avr32/drivers/usart/usart.o
 .bss           0x00009774        0x0 src/asf/avr32/drivers/usbc/usbc_device.o
 .bss.udd_ctrl_prev_payload_nb_trans
                0x00009774        0x2 src/asf/avr32/drivers/usbc/usbc_device.o
 *fill*         0x00009776        0x2 
 .bss.udd_ep_job
                0x00009778       0x3c src/asf/avr32/drivers/usbc/usbc_device.o
 *fill*         0x000097b4        0xc 
 .bss.udd_g_ep_table
                0x000097c0       0x80 src/asf/avr32/drivers/usbc/usbc_device.o
 .bss.udd_b_idle
                0x00009840        0x1 src/asf/avr32/drivers/usbc/usbc_device.o
 *fill*         0x00009841        0x1 
 .bss.udd_ctrl_payload_nb_trans
                0x00009842        0x2 src/asf/avr32/drivers/usbc/usbc_device.o
 .bss.udd_ep_control_state
                0x00009844        0x4 src/asf/avr32/drivers/usbc/usbc_device.o
 .bss.udd_ctrl_payload_need_in_zlp
                0x00009848        0x1 src/asf/avr32/drivers/usbc/usbc_device.o
 .bss           0x00009849        0x0 src/asf/avr32/services/delay/delay.o
 *fill*         0x00009849        0x3 
 .bss.s_fcpu_hz
                0x0000984c        0x4 src/asf/avr32/services/delay/delay.o
 .bss           0x00009850        0x0 src/asf/avr32/utils/startup/startup_uc3.o
 .bss           0x00009850        0x0 src/asf/avr32/utils/startup/trampoline_uc3.o
 .bss           0x00009850        0x0 src/asf/common/boards/user_board/init.o
 .bss           0x00009850        0x0 src/asf/common/services/clock/uc3c/osc.o
 .bss           0x00009850        0x0 src/asf/common/services/clock/uc3c/pll.o
 .bss           0x00009850        0x0 src/asf/common/services/clock/uc3c/sysclk.o
 .bss           0x00009850        0x0 src/asf/common/services/sleepmgr/uc3/sleepmgr.o
 .bss           0x00009850        0x0 src/asf/common/services/spi/uc3_spi/spi_master.o
 .bss           0x00009850        0x0 src/asf/common/services/usb/class/cdc/device/udi_cdc.o
 .bss.udi_cdc_line_coding
                0x00009850        0x7 src/asf/common/services/usb/class/cdc/device/udi_cdc.o
 .bss.udi_cdc_tx_buf_sel
                0x00009857        0x1 src/asf/common/services/usb/class/cdc/device/udi_cdc.o
 .bss.udi_cdc_tx_buf_nb
                0x00009858        0x4 src/asf/common/services/usb/class/cdc/device/udi_cdc.o
 .bss.udi_cdc_tx_buf
                0x0000985c       0x80 src/asf/common/services/usb/class/cdc/device/udi_cdc.o
 .bss.udi_cdc_rx_buf_nb
                0x000098dc        0x4 src/asf/common/services/usb/class/cdc/device/udi_cdc.o
 .bss.udi_cdc_serial_state_msg_ongoing
                0x000098e0        0x1 src/asf/common/services/usb/class/cdc/device/udi_cdc.o
 *fill*         0x000098e1        0x1 
 .bss.udi_cdc_rx_pos
                0x000098e2        0x2 src/asf/common/services/usb/class/cdc/device/udi_cdc.o
 .bss.udi_cdc_tx_sof_num
                0x000098e4        0x2 src/asf/common/services/usb/class/cdc/device/udi_cdc.o
 .bss.udi_cdc_rx_buf_sel
                0x000098e6        0x1 src/asf/common/services/usb/class/cdc/device/udi_cdc.o
 .bss.udi_cdc_running
                0x000098e7        0x1 src/asf/common/services/usb/class/cdc/device/udi_cdc.o
 .bss.udi_cdc_tx_trans_ongoing
                0x000098e8        0x1 src/asf/common/services/usb/class/cdc/device/udi_cdc.o
 *fill*         0x000098e9        0x3 
 .bss.udi_cdc_rx_buf
                0x000098ec       0x80 src/asf/common/services/usb/class/cdc/device/udi_cdc.o
 .bss.udi_cdc_rx_trans_ongoing
                0x0000996c        0x1 src/asf/common/services/usb/class/cdc/device/udi_cdc.o
 .bss.udi_cdc_tx_both_buf_to_send
                0x0000996d        0x1 src/asf/common/services/usb/class/cdc/device/udi_cdc.o
 .bss.udi_cdc_state
                0x0000996e        0x2 src/asf/common/services/usb/class/cdc/device/udi_cdc.o
 .bss           0x00009970        0x0 src/asf/common/services/usb/class/cdc/device/udi_cdc_desc.o
 .bss           0x00009970        0x0 src/asf/common/services/usb/udc/udc.o
 .bss.udc_iface_setting.15440
                0x00009970        0x1 src/asf/common/services/usb/udc/udc.o
 *fill*         0x00009971        0x3 
 .bss.udc_ptr_conf
                0x00009974        0x4 src/asf/common/services/usb/udc/udc.o
 .bss.udc_device_status
                0x00009978        0x2 src/asf/common/services/usb/udc/udc.o
 .bss.udc_ep_status.15236
                0x0000997a        0x2 src/asf/common/services/usb/udc/udc.o
 .bss.udc_num_configuration
                0x0000997c        0x1 src/asf/common/services/usb/udc/udc.o
 *fill*         0x0000997d        0x3 
 .bss.udc_ptr_iface
                0x00009980        0x4 src/asf/common/services/usb/udc/udc.o
 .bss           0x00009984        0x0 src/asf/common/utils/stdio/read.o
 .bss           0x00009984        0x0 src/asf/common/utils/stdio/stdio_usb/stdio_usb.o
 .bss.stdio_usb_interface_enable
                0x00009984        0x1 src/asf/common/utils/stdio/stdio_usb/stdio_usb.o
 .bss           0x00009985        0x0 src/asf/common/utils/stdio/write.o
 .bss           0x00009985        0x0 src/boardsupport.o
 .bss           0x00009985        0x0 src/main.o
 *fill*         0x00009985        0x3 
 .bss.last_fix_time
                0x00009988        0x4 src/main.o
                0x00009988                last_fix_time
 .bss.new_speed
                0x0000998c        0x1 src/main.o
                0x0000998c                new_speed
 .bss.msg_id    0x0000998d        0x1 src/main.o
                0x0000998d                msg_id
 .bss.payload_length
                0x0000998e        0x2 src/main.o
                0x0000998e                payload_length
 .bss.new_position
                0x00009990        0x1 src/main.o
                0x00009990                new_position
 *fill*         0x00009991        0x1 
 .bss.payload_counter
                0x00009992        0x2 src/main.o
                0x00009992                payload_counter
 .bss.central_data
                0x00009994        0x4 src/main.o
                0x00009994                central_data
 .bss.idle_timer
                0x00009998        0x4 src/main.o
                0x00009998                idle_timer
 .bss.idle_timeout
                0x0000999c        0x4 src/main.o
                0x0000999c                idle_timeout
 .bss.disable_counter
                0x000099a0        0x1 src/main.o
                0x000099a0                disable_counter
 .bss.step      0x000099a1        0x1 src/main.o
                0x000099a1                step
 .bss.cksum_a   0x000099a2        0x1 src/main.o
                0x000099a2                cksum_a
 .bss.cksum_b   0x000099a3        0x1 src/main.o
                0x000099a3                cksum_b
 .bss.engine_nav_setting
                0x000099a4        0x4 src/main.o
                0x000099a4                engine_nav_setting
 .bss.have_raw_velocity
                0x000099a8        0x1 src/main.o
                0x000099a8                have_raw_velocity
 .bss.next_fix  0x000099a9        0x1 src/main.o
                0x000099a9                next_fix
 *fill*         0x000099aa        0x2 
 .bss.nav_settings
                0x000099ac       0x24 src/main.o
                0x000099ac                nav_settings
 .bss.ubx_class
                0x000099d0        0x1 src/main.o
                0x000099d0                ubx_class
 .bss           0x000099d1        0x0 c:/program files (x86)/atmel/atmel toolchain/avr32 gcc/native/3.4.1067/avr32-gnu-toolchain/bin/../lib/gcc/avr32/4.4.7/../../../../avr32/lib/ucr3fp\libm.a(lib_a-s_cos.o)
 .bss           0x000099d1        0x0 c:/program files (x86)/atmel/atmel toolchain/avr32 gcc/native/3.4.1067/avr32-gnu-toolchain/bin/../lib/gcc/avr32/4.4.7/../../../../avr32/lib/ucr3fp\libm.a(lib_a-s_floor.o)
 .bss           0x000099d1        0x0 c:/program files (x86)/atmel/atmel toolchain/avr32 gcc/native/3.4.1067/avr32-gnu-toolchain/bin/../lib/gcc/avr32/4.4.7/../../../../avr32/lib/ucr3fp\libm.a(lib_a-s_sin.o)
 .bss           0x000099d1        0x0 c:/program files (x86)/atmel/atmel toolchain/avr32 gcc/native/3.4.1067/avr32-gnu-toolchain/bin/../lib/gcc/avr32/4.4.7/../../../../avr32/lib/ucr3fp\libm.a(lib_a-w_asin.o)
 .bss           0x000099d1        0x0 c:/program files (x86)/atmel/atmel toolchain/avr32 gcc/native/3.4.1067/avr32-gnu-toolchain/bin/../lib/gcc/avr32/4.4.7/../../../../avr32/lib/ucr3fp\libm.a(lib_a-w_atan2.o)
 .bss           0x000099d1        0x0 c:/program files (x86)/atmel/atmel toolchain/avr32 gcc/native/3.4.1067/avr32-gnu-toolchain/bin/../lib/gcc/avr32/4.4.7/../../../../avr32/lib/ucr3fp\libm.a(lib_a-w_fmod.o)
 .bss           0x000099d1        0x0 c:/program files (x86)/atmel/atmel toolchain/avr32 gcc/native/3.4.1067/avr32-gnu-toolchain/bin/../lib/gcc/avr32/4.4.7/../../../../avr32/lib/ucr3fp\libm.a(lib_a-w_pow.o)
 .bss           0x000099d1        0x0 c:/program files (x86)/atmel/atmel toolchain/avr32 gcc/native/3.4.1067/avr32-gnu-toolchain/bin/../lib/gcc/avr32/4.4.7/../../../../avr32/lib/ucr3fp\libm.a(lib_a-w_sqrt.o)
 .bss           0x000099d1        0x0 c:/program files (x86)/atmel/atmel toolchain/avr32 gcc/native/3.4.1067/avr32-gnu-toolchain/bin/../lib/gcc/avr32/4.4.7/../../../../avr32/lib/ucr3fp\libm.a(lib_a-wf_sqrt.o)
 .bss           0x000099d1        0x0 c:/program files (x86)/atmel/atmel toolchain/avr32 gcc/native/3.4.1067/avr32-gnu-toolchain/bin/../lib/gcc/avr32/4.4.7/../../../../avr32/lib/ucr3fp\libm.a(lib_a-e_asin.o)
 .bss           0x000099d1        0x0 c:/program files (x86)/atmel/atmel toolchain/avr32 gcc/native/3.4.1067/avr32-gnu-toolchain/bin/../lib/gcc/avr32/4.4.7/../../../../avr32/lib/ucr3fp\libm.a(lib_a-e_atan2.o)
 .bss           0x000099d1        0x0 c:/program files (x86)/atmel/atmel toolchain/avr32 gcc/native/3.4.1067/avr32-gnu-toolchain/bin/../lib/gcc/avr32/4.4.7/../../../../avr32/lib/ucr3fp\libm.a(lib_a-e_fmod.o)
 .bss           0x000099d1        0x0 c:/program files (x86)/atmel/atmel toolchain/avr32 gcc/native/3.4.1067/avr32-gnu-toolchain/bin/../lib/gcc/avr32/4.4.7/../../../../avr32/lib/ucr3fp\libm.a(lib_a-e_pow.o)
 .bss           0x000099d1        0x0 c:/program files (x86)/atmel/atmel toolchain/avr32 gcc/native/3.4.1067/avr32-gnu-toolchain/bin/../lib/gcc/avr32/4.4.7/../../../../avr32/lib/ucr3fp\libm.a(lib_a-e_rem_pio2.o)
 .bss           0x000099d1        0x0 c:/program files (x86)/atmel/atmel toolchain/avr32 gcc/native/3.4.1067/avr32-gnu-toolchain/bin/../lib/gcc/avr32/4.4.7/../../../../avr32/lib/ucr3fp\libm.a(lib_a-e_sqrt.o)
 .bss           0x000099d1        0x0 c:/program files (x86)/atmel/atmel toolchain/avr32 gcc/native/3.4.1067/avr32-gnu-toolchain/bin/../lib/gcc/avr32/4.4.7/../../../../avr32/lib/ucr3fp\libm.a(lib_a-ef_sqrt.o)
 .bss           0x000099d1        0x0 c:/program files (x86)/atmel/atmel toolchain/avr32 gcc/native/3.4.1067/avr32-gnu-toolchain/bin/../lib/gcc/avr32/4.4.7/../../../../avr32/lib/ucr3fp\libm.a(lib_a-k_cos.o)
 .bss           0x000099d1        0x0 c:/program files (x86)/atmel/atmel toolchain/avr32 gcc/native/3.4.1067/avr32-gnu-toolchain/bin/../lib/gcc/avr32/4.4.7/../../../../avr32/lib/ucr3fp\libm.a(lib_a-k_rem_pio2.o)
 .bss           0x000099d1        0x0 c:/program files (x86)/atmel/atmel toolchain/avr32 gcc/native/3.4.1067/avr32-gnu-toolchain/bin/../lib/gcc/avr32/4.4.7/../../../../avr32/lib/ucr3fp\libm.a(lib_a-k_sin.o)
 .bss           0x000099d1        0x0 c:/program files (x86)/atmel/atmel toolchain/avr32 gcc/native/3.4.1067/avr32-gnu-toolchain/bin/../lib/gcc/avr32/4.4.7/../../../../avr32/lib/ucr3fp\libm.a(lib_a-s_atan.o)
 .bss           0x000099d1        0x0 c:/program files (x86)/atmel/atmel toolchain/avr32 gcc/native/3.4.1067/avr32-gnu-toolchain/bin/../lib/gcc/avr32/4.4.7/../../../../avr32/lib/ucr3fp\libm.a(lib_a-s_fabs.o)
 .bss           0x000099d1        0x0 c:/program files (x86)/atmel/atmel toolchain/avr32 gcc/native/3.4.1067/avr32-gnu-toolchain/bin/../lib/gcc/avr32/4.4.7/../../../../avr32/lib/ucr3fp\libm.a(lib_a-s_finite.o)
 .bss           0x000099d1        0x0 c:/program files (x86)/atmel/atmel toolchain/avr32 gcc/native/3.4.1067/avr32-gnu-toolchain/bin/../lib/gcc/avr32/4.4.7/../../../../avr32/lib/ucr3fp\libm.a(lib_a-s_isnand.o)
 .bss           0x000099d1        0x0 c:/program files (x86)/atmel/atmel toolchain/avr32 gcc/native/3.4.1067/avr32-gnu-toolchain/bin/../lib/gcc/avr32/4.4.7/../../../../avr32/lib/ucr3fp\libm.a(lib_a-s_lib_ver.o)
 .bss           0x000099d1        0x0 c:/program files (x86)/atmel/atmel toolchain/avr32 gcc/native/3.4.1067/avr32-gnu-toolchain/bin/../lib/gcc/avr32/4.4.7/../../../../avr32/lib/ucr3fp\libm.a(lib_a-s_matherr.o)
 .bss           0x000099d1        0x0 c:/program files (x86)/atmel/atmel toolchain/avr32 gcc/native/3.4.1067/avr32-gnu-toolchain/bin/../lib/gcc/avr32/4.4.7/../../../../avr32/lib/ucr3fp\libm.a(lib_a-s_nan.o)
 .bss           0x000099d1        0x0 c:/program files (x86)/atmel/atmel toolchain/avr32 gcc/native/3.4.1067/avr32-gnu-toolchain/bin/../lib/gcc/avr32/4.4.7/../../../../avr32/lib/ucr3fp\libm.a(lib_a-s_rint.o)
 .bss           0x000099d1        0x0 c:/program files (x86)/atmel/atmel toolchain/avr32 gcc/native/3.4.1067/avr32-gnu-toolchain/bin/../lib/gcc/avr32/4.4.7/../../../../avr32/lib/ucr3fp\libm.a(lib_a-s_scalbn.o)
 .bss           0x000099d1        0x0 c:/program files (x86)/atmel/atmel toolchain/avr32 gcc/native/3.4.1067/avr32-gnu-toolchain/bin/../lib/gcc/avr32/4.4.7/../../../../avr32/lib/ucr3fp\libm.a(lib_a-sf_isnan.o)
 .bss           0x000099d1        0x0 c:/program files (x86)/atmel/atmel toolchain/avr32 gcc/native/3.4.1067/avr32-gnu-toolchain/bin/../lib/gcc/avr32/4.4.7/../../../../avr32/lib/ucr3fp\libm.a(lib_a-s_copysign.o)
 .bss           0x000099d1        0x0 c:/program files (x86)/atmel/atmel toolchain/avr32 gcc/native/3.4.1067/avr32-gnu-toolchain/bin/../lib/gcc/avr32/4.4.7/ucr3fp\libgcc.a(_avr32_f64_mul.o)
 .bss           0x000099d1        0x0 c:/program files (x86)/atmel/atmel toolchain/avr32 gcc/native/3.4.1067/avr32-gnu-toolchain/bin/../lib/gcc/avr32/4.4.7/ucr3fp\libgcc.a(_avr32_f64_addsub.o)
 .bss           0x000099d1        0x0 c:/program files (x86)/atmel/atmel toolchain/avr32 gcc/native/3.4.1067/avr32-gnu-toolchain/bin/../lib/gcc/avr32/4.4.7/ucr3fp\libgcc.a(_avr32_f64_to_s32.o)
 .bss           0x000099d1        0x0 c:/program files (x86)/atmel/atmel toolchain/avr32 gcc/native/3.4.1067/avr32-gnu-toolchain/bin/../lib/gcc/avr32/4.4.7/ucr3fp\libgcc.a(_avr32_f64_to_s64.o)
 .bss           0x000099d1        0x0 c:/program files (x86)/atmel/atmel toolchain/avr32 gcc/native/3.4.1067/avr32-gnu-toolchain/bin/../lib/gcc/avr32/4.4.7/ucr3fp\libgcc.a(_avr32_s32_to_f64.o)
 .bss           0x000099d1        0x0 c:/program files (x86)/atmel/atmel toolchain/avr32 gcc/native/3.4.1067/avr32-gnu-toolchain/bin/../lib/gcc/avr32/4.4.7/ucr3fp\libgcc.a(_avr32_f64_cmp_eq.o)
 .bss           0x000099d1        0x0 c:/program files (x86)/atmel/atmel toolchain/avr32 gcc/native/3.4.1067/avr32-gnu-toolchain/bin/../lib/gcc/avr32/4.4.7/ucr3fp\libgcc.a(_avr32_f64_cmp_ge.o)
 .bss           0x000099d1        0x0 c:/program files (x86)/atmel/atmel toolchain/avr32 gcc/native/3.4.1067/avr32-gnu-toolchain/bin/../lib/gcc/avr32/4.4.7/ucr3fp\libgcc.a(_avr32_f64_cmp_lt.o)
 .bss           0x000099d1        0x0 c:/program files (x86)/atmel/atmel toolchain/avr32 gcc/native/3.4.1067/avr32-gnu-toolchain/bin/../lib/gcc/avr32/4.4.7/ucr3fp\libgcc.a(_avr32_f32_cmp_lt.o)
 .bss           0x000099d1        0x0 c:/program files (x86)/atmel/atmel toolchain/avr32 gcc/native/3.4.1067/avr32-gnu-toolchain/bin/../lib/gcc/avr32/4.4.7/ucr3fp\libgcc.a(_avr32_f64_div.o)
 .bss           0x000099d1        0x0 c:/program files (x86)/atmel/atmel toolchain/avr32 gcc/native/3.4.1067/avr32-gnu-toolchain/bin/../lib/gcc/avr32/4.4.7/ucr3fp\libgcc.a(_avr32_f32_div.o)
 .bss           0x000099d1        0x0 c:/program files (x86)/atmel/atmel toolchain/avr32 gcc/native/3.4.1067/avr32-gnu-toolchain/bin/../lib/gcc/avr32/4.4.7/ucr3fp\libgcc.a(_avr32_f32_addsub.o)
 .bss           0x000099d1        0x0 c:/program files (x86)/atmel/atmel toolchain/avr32 gcc/native/3.4.1067/avr32-gnu-toolchain/bin/../lib/gcc/avr32/4.4.7/ucr3fp\libgcc.a(_avr32_f32_mul.o)
 .bss           0x000099d1        0x0 c:/program files (x86)/atmel/atmel toolchain/avr32 gcc/native/3.4.1067/avr32-gnu-toolchain/bin/../lib/gcc/avr32/4.4.7/ucr3fp\libgcc.a(_avr32_f32_to_f64.o)
 .bss           0x000099d1        0x0 c:/program files (x86)/atmel/atmel toolchain/avr32 gcc/native/3.4.1067/avr32-gnu-toolchain/bin/../lib/gcc/avr32/4.4.7/ucr3fp\libgcc.a(_avr32_f64_to_f32.o)
 .bss           0x000099d1        0x0 c:/program files (x86)/atmel/atmel toolchain/avr32 gcc/native/3.4.1067/avr32-gnu-toolchain/bin/../lib/gcc/avr32/4.4.7/ucr3fp\libgcc.a(_floatdidf.o)
 .bss           0x000099d1        0x0 c:/program files (x86)/atmel/atmel toolchain/avr32 gcc/native/3.4.1067/avr32-gnu-toolchain/bin/../lib/gcc/avr32/4.4.7/ucr3fp\libgcc.a(_divdi3.o)
 .bss           0x000099d1        0x0 c:/program files (x86)/atmel/atmel toolchain/avr32 gcc/native/3.4.1067/avr32-gnu-toolchain/bin/../lib/gcc/avr32/4.4.7/ucr3fp\libgcc.a(_moddi3.o)
 .bss           0x000099d1        0x0 c:/program files (x86)/atmel/atmel toolchain/avr32 gcc/native/3.4.1067/avr32-gnu-toolchain/bin/../lib/gcc/avr32/4.4.7/ucr3fp\libgcc.a(_udivdi3.o)
 .bss           0x000099d1        0x0 c:/program files (x86)/atmel/atmel toolchain/avr32 gcc/native/3.4.1067/avr32-gnu-toolchain/bin/../lib/gcc/avr32/4.4.7/ucr3fp\libgcc.a(_umoddi3.o)
 .bss           0x000099d1        0x0 c:/program files (x86)/atmel/atmel toolchain/avr32 gcc/native/3.4.1067/avr32-gnu-toolchain/bin/../lib/gcc/avr32/4.4.7/../../../../avr32/lib/ucr3fp\libc.a(lib_a-errno.o)
 .bss           0x000099d1        0x0 c:/program files (x86)/atmel/atmel toolchain/avr32 gcc/native/3.4.1067/avr32-gnu-toolchain/bin/../lib/gcc/avr32/4.4.7/../../../../avr32/lib/ucr3fp\libc.a(lib_a-impure.o)
 .bss           0x000099d1        0x0 c:/program files (x86)/atmel/atmel toolchain/avr32 gcc/native/3.4.1067/avr32-gnu-toolchain/bin/../lib/gcc/avr32/4.4.7/../../../../avr32/lib/ucr3fp\libc.a(lib_a-malloc.o)
 .bss           0x000099d1        0x0 c:/program files (x86)/atmel/atmel toolchain/avr32 gcc/native/3.4.1067/avr32-gnu-toolchain/bin/../lib/gcc/avr32/4.4.7/../../../../avr32/lib/ucr3fp\libc.a(lib_a-mallocr.o)
 *fill*         0x000099d1        0x3 
 .bss.__malloc_max_total_mem
                0x000099d4        0x4 c:/program files (x86)/atmel/atmel toolchain/avr32 gcc/native/3.4.1067/avr32-gnu-toolchain/bin/../lib/gcc/avr32/4.4.7/../../../../avr32/lib/ucr3fp\libc.a(lib_a-mallocr.o)
                0x000099d4                __malloc_max_total_mem
 .bss.__malloc_max_sbrked_mem
                0x000099d8        0x4 c:/program files (x86)/atmel/atmel toolchain/avr32 gcc/native/3.4.1067/avr32-gnu-toolchain/bin/../lib/gcc/avr32/4.4.7/../../../../avr32/lib/ucr3fp\libc.a(lib_a-mallocr.o)
                0x000099d8                __malloc_max_sbrked_mem
 .bss.__malloc_top_pad
                0x000099dc        0x4 c:/program files (x86)/atmel/atmel toolchain/avr32 gcc/native/3.4.1067/avr32-gnu-toolchain/bin/../lib/gcc/avr32/4.4.7/../../../../avr32/lib/ucr3fp\libc.a(lib_a-mallocr.o)
                0x000099dc                __malloc_top_pad
 .bss.__malloc_current_mallinfo
                0x000099e0       0x28 c:/program files (x86)/atmel/atmel toolchain/avr32 gcc/native/3.4.1067/avr32-gnu-toolchain/bin/../lib/gcc/avr32/4.4.7/../../../../avr32/lib/ucr3fp\libc.a(lib_a-mallocr.o)
                0x000099e0                __malloc_current_mallinfo
 .bss           0x00009a08        0x0 c:/program files (x86)/atmel/atmel toolchain/avr32 gcc/native/3.4.1067/avr32-gnu-toolchain/bin/../lib/gcc/avr32/4.4.7/../../../../avr32/lib/ucr3fp\libc.a(lib_a-memcpy.o)
 .bss           0x00009a08        0x0 c:/program files (x86)/atmel/atmel toolchain/avr32 gcc/native/3.4.1067/avr32-gnu-toolchain/bin/../lib/gcc/avr32/4.4.7/../../../../avr32/lib/ucr3fp\libc.a(lib_a-memset.o)
 .bss           0x00009a08        0x0 c:/program files (x86)/atmel/atmel toolchain/avr32 gcc/native/3.4.1067/avr32-gnu-toolchain/bin/../lib/gcc/avr32/4.4.7/../../../../avr32/lib/ucr3fp\libc.a(lib_a-mlock.o)
 .bss           0x00009a08        0x0 c:/program files (x86)/atmel/atmel toolchain/avr32 gcc/native/3.4.1067/avr32-gnu-toolchain/bin/../lib/gcc/avr32/4.4.7/../../../../avr32/lib/ucr3fp\libc.a(lib_a-rand.o)
 .bss           0x00009a08        0x0 c:/program files (x86)/atmel/atmel toolchain/avr32 gcc/native/3.4.1067/avr32-gnu-toolchain/bin/../lib/gcc/avr32/4.4.7/../../../../avr32/lib/ucr3fp\libc.a(lib_a-sbrkr.o)
 .bss           0x00009a08        0x0 c:/program files (x86)/atmel/atmel toolchain/avr32 gcc/native/3.4.1067/avr32-gnu-toolchain/bin/../lib/gcc/avr32/4.4.7/../../../../avr32/lib/ucr3fp\libc.a(lib_a-snprintf.o)
 .bss           0x00009a08        0x0 c:/program files (x86)/atmel/atmel toolchain/avr32 gcc/native/3.4.1067/avr32-gnu-toolchain/bin/../lib/gcc/avr32/4.4.7/../../../../avr32/lib/ucr3fp\libc.a(lib_a-strcpy.o)
 .bss           0x00009a08        0x0 c:/program files (x86)/atmel/atmel toolchain/avr32 gcc/native/3.4.1067/avr32-gnu-toolchain/bin/../lib/gcc/avr32/4.4.7/../../../../avr32/lib/ucr3fp\libc.a(lib_a-strlen.o)
 .bss           0x00009a08        0x0 c:/program files (x86)/atmel/atmel toolchain/avr32 gcc/native/3.4.1067/avr32-gnu-toolchain/bin/../lib/gcc/avr32/4.4.7/../../../../avr32/lib/ucr3fp\libc.a(lib_a-syscalls.o)
 .bss.cur_heap_pos.1869
                0x00009a08        0x4 c:/program files (x86)/atmel/atmel toolchain/avr32 gcc/native/3.4.1067/avr32-gnu-toolchain/bin/../lib/gcc/avr32/4.4.7/../../../../avr32/lib/ucr3fp\libc.a(lib_a-syscalls.o)
 .bss           0x00009a0c        0x0 c:/program files (x86)/atmel/atmel toolchain/avr32 gcc/native/3.4.1067/avr32-gnu-toolchain/bin/../lib/gcc/avr32/4.4.7/../../../../avr32/lib/ucr3fp\libc.a(lib_a-vfprintf.o)
 .bss           0x00009a0c        0x0 c:/program files (x86)/atmel/atmel toolchain/avr32 gcc/native/3.4.1067/avr32-gnu-toolchain/bin/../lib/gcc/avr32/4.4.7/../../../../avr32/lib/ucr3fp\libc.a(lib_a-wsetup.o)
 .bss           0x00009a0c        0x0 c:/program files (x86)/atmel/atmel toolchain/avr32 gcc/native/3.4.1067/avr32-gnu-toolchain/bin/../lib/gcc/avr32/4.4.7/../../../../avr32/lib/ucr3fp\libc.a(lib_a-dtoa.o)
 .bss           0x00009a0c        0x0 c:/program files (x86)/atmel/atmel toolchain/avr32 gcc/native/3.4.1067/avr32-gnu-toolchain/bin/../lib/gcc/avr32/4.4.7/../../../../avr32/lib/ucr3fp\libc.a(lib_a-fflush.o)
 .bss           0x00009a0c        0x0 c:/program files (x86)/atmel/atmel toolchain/avr32 gcc/native/3.4.1067/avr32-gnu-toolchain/bin/../lib/gcc/avr32/4.4.7/../../../../avr32/lib/ucr3fp\libc.a(lib_a-findfp.o)
 .bss           0x00009a0c        0x0 c:/program files (x86)/atmel/atmel toolchain/avr32 gcc/native/3.4.1067/avr32-gnu-toolchain/bin/../lib/gcc/avr32/4.4.7/../../../../avr32/lib/ucr3fp\libc.a(lib_a-freer.o)
 .bss           0x00009a0c        0x0 c:/program files (x86)/atmel/atmel toolchain/avr32 gcc/native/3.4.1067/avr32-gnu-toolchain/bin/../lib/gcc/avr32/4.4.7/../../../../avr32/lib/ucr3fp\libc.a(lib_a-fvwrite.o)
 .bss           0x00009a0c        0x0 c:/program files (x86)/atmel/atmel toolchain/avr32 gcc/native/3.4.1067/avr32-gnu-toolchain/bin/../lib/gcc/avr32/4.4.7/../../../../avr32/lib/ucr3fp\libc.a(lib_a-fwalk.o)
 .bss           0x00009a0c        0x0 c:/program files (x86)/atmel/atmel toolchain/avr32 gcc/native/3.4.1067/avr32-gnu-toolchain/bin/../lib/gcc/avr32/4.4.7/../../../../avr32/lib/ucr3fp\libc.a(lib_a-locale.o)
 .bss.__nlocale_changed
                0x00009a0c        0x4 c:/program files (x86)/atmel/atmel toolchain/avr32 gcc/native/3.4.1067/avr32-gnu-toolchain/bin/../lib/gcc/avr32/4.4.7/../../../../avr32/lib/ucr3fp\libc.a(lib_a-locale.o)
                0x00009a0c                __nlocale_changed
 .bss.__mlocale_changed
                0x00009a10        0x4 c:/program files (x86)/atmel/atmel toolchain/avr32 gcc/native/3.4.1067/avr32-gnu-toolchain/bin/../lib/gcc/avr32/4.4.7/../../../../avr32/lib/ucr3fp\libc.a(lib_a-locale.o)
                0x00009a10                __mlocale_changed
 .bss._PathLocale
                0x00009a14        0x4 c:/program files (x86)/atmel/atmel toolchain/avr32 gcc/native/3.4.1067/avr32-gnu-toolchain/bin/../lib/gcc/avr32/4.4.7/../../../../avr32/lib/ucr3fp\libc.a(lib_a-locale.o)
                0x00009a14                _PathLocale
 .bss           0x00009a18        0x0 c:/program files (x86)/atmel/atmel toolchain/avr32 gcc/native/3.4.1067/avr32-gnu-toolchain/bin/../lib/gcc/avr32/4.4.7/../../../../avr32/lib/ucr3fp\libc.a(lib_a-makebuf.o)
 .bss           0x00009a18        0x0 c:/program files (x86)/atmel/atmel toolchain/avr32 gcc/native/3.4.1067/avr32-gnu-toolchain/bin/../lib/gcc/avr32/4.4.7/../../../../avr32/lib/ucr3fp\libc.a(lib_a-memchr.o)
 .bss           0x00009a18        0x0 c:/program files (x86)/atmel/atmel toolchain/avr32 gcc/native/3.4.1067/avr32-gnu-toolchain/bin/../lib/gcc/avr32/4.4.7/../../../../avr32/lib/ucr3fp\libc.a(lib_a-memmove.o)
 .bss           0x00009a18        0x0 c:/program files (x86)/atmel/atmel toolchain/avr32 gcc/native/3.4.1067/avr32-gnu-toolchain/bin/../lib/gcc/avr32/4.4.7/../../../../avr32/lib/ucr3fp\libc.a(lib_a-mprec.o)
 .bss           0x00009a18        0x0 c:/program files (x86)/atmel/atmel toolchain/avr32 gcc/native/3.4.1067/avr32-gnu-toolchain/bin/../lib/gcc/avr32/4.4.7/../../../../avr32/lib/ucr3fp\libc.a(lib_a-reallocr.o)
 .bss           0x00009a18        0x0 c:/program files (x86)/atmel/atmel toolchain/avr32 gcc/native/3.4.1067/avr32-gnu-toolchain/bin/../lib/gcc/avr32/4.4.7/../../../../avr32/lib/ucr3fp\libc.a(lib_a-reent.o)
 .bss           0x00009a18        0x0 c:/program files (x86)/atmel/atmel toolchain/avr32 gcc/native/3.4.1067/avr32-gnu-toolchain/bin/../lib/gcc/avr32/4.4.7/../../../../avr32/lib/ucr3fp\libc.a(lib_a-s_isinfd.o)
 .bss           0x00009a18        0x0 c:/program files (x86)/atmel/atmel toolchain/avr32 gcc/native/3.4.1067/avr32-gnu-toolchain/bin/../lib/gcc/avr32/4.4.7/../../../../avr32/lib/ucr3fp\libc.a(lib_a-stdio.o)
 .bss           0x00009a18        0x0 c:/program files (x86)/atmel/atmel toolchain/avr32 gcc/native/3.4.1067/avr32-gnu-toolchain/bin/../lib/gcc/avr32/4.4.7/../../../../avr32/lib/ucr3fp\libc.a(lib_a-strcmp.o)
 .bss           0x00009a18        0x0 c:/program files (x86)/atmel/atmel toolchain/avr32 gcc/native/3.4.1067/avr32-gnu-toolchain/bin/../lib/gcc/avr32/4.4.7/../../../../avr32/lib/ucr3fp\libc.a(lib_a-writer.o)
 .bss           0x00009a18        0x0 c:/program files (x86)/atmel/atmel toolchain/avr32 gcc/native/3.4.1067/avr32-gnu-toolchain/bin/../lib/gcc/avr32/4.4.7/../../../../avr32/lib/ucr3fp\libc.a(lib_a-callocr.o)
 .bss           0x00009a18        0x0 c:/program files (x86)/atmel/atmel toolchain/avr32 gcc/native/3.4.1067/avr32-gnu-toolchain/bin/../lib/gcc/avr32/4.4.7/../../../../avr32/lib/ucr3fp\libc.a(lib_a-closer.o)
 .bss           0x00009a18        0x0 c:/program files (x86)/atmel/atmel toolchain/avr32 gcc/native/3.4.1067/avr32-gnu-toolchain/bin/../lib/gcc/avr32/4.4.7/../../../../avr32/lib/ucr3fp\libc.a(lib_a-fclose.o)
 .bss           0x00009a18        0x0 c:/program files (x86)/atmel/atmel toolchain/avr32 gcc/native/3.4.1067/avr32-gnu-toolchain/bin/../lib/gcc/avr32/4.4.7/../../../../avr32/lib/ucr3fp\libc.a(lib_a-fstatr.o)
 .bss           0x00009a18        0x0 c:/program files (x86)/atmel/atmel toolchain/avr32 gcc/native/3.4.1067/avr32-gnu-toolchain/bin/../lib/gcc/avr32/4.4.7/../../../../avr32/lib/ucr3fp\libc.a(lib_a-lseekr.o)
 .bss           0x00009a18        0x0 c:/program files (x86)/atmel/atmel toolchain/avr32 gcc/native/3.4.1067/avr32-gnu-toolchain/bin/../lib/gcc/avr32/4.4.7/../../../../avr32/lib/ucr3fp\libc.a(lib_a-readr.o)
 *(COMMON)
 COMMON         0x00009a18      0x134 Library/communication/console.o
                0x00009a18                console_out_stream
                0x00009a30                console_in_buffer
                0x00009b34                console_in_stream
 COMMON         0x00009b4c        0x0 Library/communication/hud_telemetry.o
 COMMON         0x00009b4c        0x1 Library/hal/fat_fs/diskio.o
                0x00009b4c                actual_status
 *fill*         0x00009b4d        0x3 
 COMMON         0x00009b50      0x340 Library/hal/gps_ublox.o
                0x00009b50                ubx_cfg_rate_message
                0x00009b5c                ubx_solution_message
                0x00009bc4                ubx_tim_vrfy_message
                0x00009bec                ubx_vel_ned_message
                0x00009c34                ubx_mon_rxr_message
                0x00009c38                ubx_nav_settings_message
                0x00009c80                ubx_sv_info_message
                0x00009e10                ubx_pos_llh_message
                0x00009e48                ubx_tim_tp_message
                0x00009e68                ubx_cfg_set_get_rate_message
                0x00009e70                ubx_status_message
 COMMON         0x00009e90      0x124 Library/hal/i2c_driver_int.o
                0x00009e90                current_transfer
                0x00009e94                current_slot
                0x00009e98                last_slot
                0x00009e9c                transfer_queue
 COMMON         0x00009fb4        0x1 Library/hal/pwm_servos.o
                0x00009fb4                use_servos_7_8
 *fill*         0x00009fb5        0x3 
 COMMON         0x00009fb8      0x808 Library/hal/sd_spi.o
                0x00009fb8                ram_buffer2
                0x0000a3a0                end_of_transfer
                0x0000a3a4                sd_spi
                0x0000a3d0                pdca_channeltx
                0x0000a3d4                pdca_channelrx
                0x0000a3d8                ram_buffer
 COMMON         0x0000a7c0      0x154 Library/hal/spektrum_satellite.o
                0x0000a7c0                sat
                0x0000a8f4                channel_center
 COMMON         0x0000a914      0x134 Library/hal/xbee.o
                0x0000a914                xbee_in_buffer
                0x0000aa18                xbee_in_stream
                0x0000aa30                xbee_out_stream
 COMMON         0x0000aa48        0x0 src/mavlink_telemetry.o
 COMMON         0x0000aa48     0x166c src/simu_gps_track.o
                0x0000aa48                simu_track_table
 COMMON         0x0000c0b4       0x5a Library/hal/adc_int.o
                0x0000c0b4                adci_buffer
                0x0000c0f4                continuous_mode
                0x0000c0f5                even_odd
                0x0000c0f6                adcifa_sequencer0_conversion_opt
 *fill*         0x0000c10e        0x2 
 COMMON         0x0000c110        0xc Library/hal/ads1274.o
                0x0000c110                eic_options
                0x0000c118                gcfg
 COMMON         0x0000c11c       0x16 Library/hal/bmp085.o
                0x0000c11c                b2
                0x0000c11e                mb
                0x0000c120                ac1
                0x0000c122                b1
                0x0000c124                ac6
                0x0000c126                ac5
                0x0000c128                ac2
                0x0000c12a                md
                0x0000c12c                ac4
                0x0000c12e                mc
                0x0000c130                ac3
 *fill*         0x0000c132        0x2 
 COMMON         0x0000c134        0x5 Library/util/print_util.o
                0x0000c134                deb_stream
                0x0000c138                blocking
 *fill*         0x0000c139        0x3 
 COMMON         0x0000c13c      0x118 src/asf/avr32/drivers/usbc/usbc_device.o
                0x0000c13c                udd_ep_out_cache_buffer
                0x0000c1fc                udd_g_ctrlreq
                0x0000c214                udd_ctrl_buffer
 COMMON         0x0000c254        0x7 src/asf/common/services/sleepmgr/uc3/sleepmgr.o
                0x0000c254                sleepmgr_locks
 *fill*         0x0000c25b        0x1 
 COMMON         0x0000c25c        0x4 src/asf/common/utils/stdio/read.o
                0x0000c25c                ptr_get
 COMMON         0x0000c260        0x8 src/asf/common/utils/stdio/write.o
                0x0000c260                ptr_put
                0x0000c264                stdio_base
 COMMON         0x0000c268        0x4 c:/program files (x86)/atmel/atmel toolchain/avr32 gcc/native/3.4.1067/avr32-gnu-toolchain/bin/../lib/gcc/avr32/4.4.7/../../../../avr32/lib/ucr3fp\libc.a(lib_a-reent.o)
                0x0000c268                errno
                0x0000c270                . = ALIGN (0x8)
 *fill*         0x0000c26c        0x4 
                0x0000c270                . = ALIGN (0x8)
                0x0000c270                _end = .
                0x0000c270                PROVIDE (end, .)
                0x0000c270                __heap_start__ = ALIGN (0x8)
                0x0000f000                . = ((ORIGIN (CPUSRAM) + 0xfffc) - _stack_size)
                0x0000f000                __heap_end__ = .

.stab
 *(.stab)

.stabstr
 *(.stabstr)

.stab.excl
 *(.stab.excl)

.stab.exclstr
 *(.stab.exclstr)

.stab.index
 *(.stab.index)

.stab.indexstr
 *(.stab.indexstr)

.comment        0x00000000       0x30
 *(.comment)
 .comment       0x00000000       0x30 Library/communication/console.o
                                 0x31 (size before relaxing)
 .comment       0x00000000       0x31 Library/communication/data_logging.o
 .comment       0x00000000       0x31 Library/communication/data_logging_telemetry.o
 .comment       0x00000000       0x31 Library/communication/hud_telemetry.o
 .comment       0x00000000       0x31 Library/communication/mavlink_communication.o
 .comment       0x00000000       0x31 Library/communication/mavlink_message_handler.o
 .comment       0x00000000       0x31 Library/communication/mavlink_waypoint_handler.o
 .comment       0x00000000       0x31 Library/communication/neighbor_selection.o
 .comment       0x00000000       0x31 Library/communication/remote.o
 .comment       0x00000000       0x31 Library/communication/remote_telemetry.o
 .comment       0x00000000       0x31 Library/communication/state.o
 .comment       0x00000000       0x31 Library/communication/state_machine.o
 .comment       0x00000000       0x31 Library/communication/state_telemetry.o
 .comment       0x00000000       0x31 Library/control/joystick_parsing.o
 .comment       0x00000000       0x31 Library/control/joystick_parsing_telemetry.o
 .comment       0x00000000       0x31 Library/control/kalman_predictor.o
 .comment       0x00000000       0x31 Library/control/pid_control.o
 .comment       0x00000000       0x31 Library/control/servos_mix_quadcopter_cross.o
 .comment       0x00000000       0x31 Library/control/servos_mix_quadcopter_diag.o
 .comment       0x00000000       0x31 Library/control/stabilisation_copter.o
 .comment       0x00000000       0x31 Library/control/stabilisation_telemetry.o
 .comment       0x00000000       0x31 Library/control/track_following.o
 .comment       0x00000000       0x31 Library/hal/analog_monitor_telemetry.o
 .comment       0x00000000       0x31 Library/hal/analog_monitor.o
 .comment       0x00000000       0x31 Library/hal/bmp085_telemetry.o
 .comment       0x00000000       0x31 Library/hal/fat_fs/diskio.o
 .comment       0x00000000       0x31 Library/hal/fat_fs/ff.o
 .comment       0x00000000       0x31 Library/hal/fat_fs/option/ccsbcs.o
 .comment       0x00000000       0x31 Library/hal/fat_fs/option/syscall.o
 .comment       0x00000000       0x31 Library/hal/fat_fs/option/unicode.o
 .comment       0x00000000       0x31 Library/hal/gps_ublox.o
 .comment       0x00000000       0x31 Library/hal/gps_ublox_telemetry.o
 .comment       0x00000000       0x31 Library/hal/hmc5883l.o
 .comment       0x00000000       0x31 Library/hal/i2c_driver_int.o
 .comment       0x00000000       0x31 Library/hal/lsm330dlc.o
 .comment       0x00000000       0x31 Library/hal/piezo_speaker.o
 .comment       0x00000000       0x31 Library/hal/pwm_servos.o
 .comment       0x00000000       0x31 Library/hal/sd_spi.o
 .comment       0x00000000       0x31 Library/hal/servos.o
 .comment       0x00000000       0x31 Library/hal/servos_telemetry.o
 .comment       0x00000000       0x31 Library/hal/spektrum_satellite.o
 .comment       0x00000000       0x31 Library/hal/time_keeper.o
 .comment       0x00000000       0x31 Library/hal/usb_int.o
 .comment       0x00000000       0x31 Library/hal/xbee.o
 .comment       0x00000000       0x31 Library/runtime/scheduler_telemetry.o
 .comment       0x00000000       0x31 Library/sensing/ahrs.o
 .comment       0x00000000       0x31 Library/sensing/ahrs_telemetry.o
 .comment       0x00000000       0x31 Library/sensing/imu_telemetry.o
 .comment       0x00000000       0x31 Library/sensing/position_estimation.o
 .comment       0x00000000       0x31 Library/sensing/position_estimation_telemetry.o
 .comment       0x00000000       0x31 Library/sensing/qfilter.o
 .comment       0x00000000       0x31 Library/sensing/simulation_telemetry.o
 .comment       0x00000000       0x31 Library/util/linear_algebra.o
 .comment       0x00000000       0x31 Library/util/matrixlib_float.o
 .comment       0x00000000       0x31 Library/util/quick_trig.o
 .comment       0x00000000       0x31 src/central_data.o
 .comment       0x00000000       0x31 src/mavlink_telemetry.o
 .comment       0x00000000       0x31 src/simu_gps_track.o
 .comment       0x00000000       0x31 src/tasks.o
 .comment       0x00000000       0x31 Library/communication/mavlink_stream.o
 .comment       0x00000000       0x31 Library/communication/onboard_parameters.o
 .comment       0x00000000       0x31 Library/control/navigation.o
 .comment       0x00000000       0x31 Library/control/stabilisation.o
 .comment       0x00000000       0x31 Library/hal/adc_int.o
 .comment       0x00000000       0x31 Library/hal/ads1274.o
 .comment       0x00000000       0x31 Library/hal/bmp085.o
 .comment       0x00000000       0x31 Library/hal/dac_dma.o
 .comment       0x00000000       0x31 Library/hal/led.o
 .comment       0x00000000       0x31 Library/hal/spi_buffered.o
 .comment       0x00000000       0x31 Library/hal/uart_int.o
 .comment       0x00000000       0x31 Library/runtime/scheduler.o
 .comment       0x00000000       0x31 Library/sensing/imu.o
 .comment       0x00000000       0x31 Library/sensing/simulation.o
 .comment       0x00000000       0x31 Library/util/buffer.o
 .comment       0x00000000       0x31 Library/util/coord_conventions.o
 .comment       0x00000000       0x31 Library/util/generator.o
 .comment       0x00000000       0x31 Library/util/print_util.o
 .comment       0x00000000       0x31 Library/util/sinus.o
 .comment       0x00000000       0x31 src/asf/avr32/drivers/adcifa/adcifa.o
 .comment       0x00000000       0x31 src/asf/avr32/drivers/ast/ast.o
 .comment       0x00000000       0x31 src/asf/avr32/drivers/dacifb/dacifb.o
 .comment       0x00000000       0x31 src/asf/avr32/drivers/eic/eic.o
 .comment       0x00000000       0x31 src/asf/avr32/drivers/flashc/flashc.o
 .comment       0x00000000       0x31 src/asf/avr32/drivers/gpio/gpio.o
 .comment       0x00000000       0x31 src/asf/avr32/drivers/intc/intc.o
 .comment       0x00000000       0x31 src/asf/avr32/drivers/pdca/pdca.o
 .comment       0x00000000       0x31 src/asf/avr32/drivers/pevc/pevc.o
 .comment       0x00000000       0x31 src/asf/avr32/drivers/pm/pm_uc3c.o
 .comment       0x00000000       0x31 src/asf/avr32/drivers/pm/power_clocks_lib.o
 .comment       0x00000000       0x31 src/asf/avr32/drivers/pwm/pwm4.o
 .comment       0x00000000       0x31 src/asf/avr32/drivers/scif/scif_uc3c.o
 .comment       0x00000000       0x31 src/asf/avr32/drivers/spi/spi.o
 .comment       0x00000000       0x31 src/asf/avr32/drivers/tc/tc.o
 .comment       0x00000000       0x31 src/asf/avr32/drivers/twim/twim.o
 .comment       0x00000000       0x31 src/asf/avr32/drivers/usart/usart.o
 .comment       0x00000000       0x31 src/asf/avr32/drivers/usbc/usbc_device.o
 .comment       0x00000000       0x31 src/asf/avr32/services/delay/delay.o
 .comment       0x00000000       0x31 src/asf/common/boards/user_board/init.o
 .comment       0x00000000       0x31 src/asf/common/services/clock/uc3c/osc.o
 .comment       0x00000000       0x31 src/asf/common/services/clock/uc3c/pll.o
 .comment       0x00000000       0x31 src/asf/common/services/clock/uc3c/sysclk.o
 .comment       0x00000000       0x31 src/asf/common/services/sleepmgr/uc3/sleepmgr.o
 .comment       0x00000000       0x31 src/asf/common/services/spi/uc3_spi/spi_master.o
 .comment       0x00000000       0x31 src/asf/common/services/usb/class/cdc/device/udi_cdc.o
 .comment       0x00000000       0x31 src/asf/common/services/usb/class/cdc/device/udi_cdc_desc.o
 .comment       0x00000000       0x31 src/asf/common/services/usb/udc/udc.o
 .comment       0x00000000       0x31 src/asf/common/utils/stdio/read.o
 .comment       0x00000000       0x31 src/asf/common/utils/stdio/stdio_usb/stdio_usb.o
 .comment       0x00000000       0x31 src/asf/common/utils/stdio/write.o
 .comment       0x00000000       0x31 src/boardsupport.o
 .comment       0x00000000       0x31 src/main.o
 .comment       0x00000000       0x31 c:/program files (x86)/atmel/atmel toolchain/avr32 gcc/native/3.4.1067/avr32-gnu-toolchain/bin/../lib/gcc/avr32/4.4.7/../../../../avr32/lib/ucr3fp\libm.a(lib_a-s_cos.o)
 .comment       0x00000000       0x31 c:/program files (x86)/atmel/atmel toolchain/avr32 gcc/native/3.4.1067/avr32-gnu-toolchain/bin/../lib/gcc/avr32/4.4.7/../../../../avr32/lib/ucr3fp\libm.a(lib_a-s_floor.o)
 .comment       0x00000000       0x31 c:/program files (x86)/atmel/atmel toolchain/avr32 gcc/native/3.4.1067/avr32-gnu-toolchain/bin/../lib/gcc/avr32/4.4.7/../../../../avr32/lib/ucr3fp\libm.a(lib_a-s_sin.o)
 .comment       0x00000000       0x31 c:/program files (x86)/atmel/atmel toolchain/avr32 gcc/native/3.4.1067/avr32-gnu-toolchain/bin/../lib/gcc/avr32/4.4.7/../../../../avr32/lib/ucr3fp\libm.a(lib_a-w_asin.o)
 .comment       0x00000000       0x31 c:/program files (x86)/atmel/atmel toolchain/avr32 gcc/native/3.4.1067/avr32-gnu-toolchain/bin/../lib/gcc/avr32/4.4.7/../../../../avr32/lib/ucr3fp\libm.a(lib_a-w_atan2.o)
 .comment       0x00000000       0x31 c:/program files (x86)/atmel/atmel toolchain/avr32 gcc/native/3.4.1067/avr32-gnu-toolchain/bin/../lib/gcc/avr32/4.4.7/../../../../avr32/lib/ucr3fp\libm.a(lib_a-w_fmod.o)
 .comment       0x00000000       0x31 c:/program files (x86)/atmel/atmel toolchain/avr32 gcc/native/3.4.1067/avr32-gnu-toolchain/bin/../lib/gcc/avr32/4.4.7/../../../../avr32/lib/ucr3fp\libm.a(lib_a-w_pow.o)
 .comment       0x00000000       0x31 c:/program files (x86)/atmel/atmel toolchain/avr32 gcc/native/3.4.1067/avr32-gnu-toolchain/bin/../lib/gcc/avr32/4.4.7/../../../../avr32/lib/ucr3fp\libm.a(lib_a-w_sqrt.o)
 .comment       0x00000000       0x31 c:/program files (x86)/atmel/atmel toolchain/avr32 gcc/native/3.4.1067/avr32-gnu-toolchain/bin/../lib/gcc/avr32/4.4.7/../../../../avr32/lib/ucr3fp\libm.a(lib_a-wf_sqrt.o)
 .comment       0x00000000       0x31 c:/program files (x86)/atmel/atmel toolchain/avr32 gcc/native/3.4.1067/avr32-gnu-toolchain/bin/../lib/gcc/avr32/4.4.7/../../../../avr32/lib/ucr3fp\libm.a(lib_a-e_asin.o)
 .comment       0x00000000       0x31 c:/program files (x86)/atmel/atmel toolchain/avr32 gcc/native/3.4.1067/avr32-gnu-toolchain/bin/../lib/gcc/avr32/4.4.7/../../../../avr32/lib/ucr3fp\libm.a(lib_a-e_atan2.o)
 .comment       0x00000000       0x31 c:/program files (x86)/atmel/atmel toolchain/avr32 gcc/native/3.4.1067/avr32-gnu-toolchain/bin/../lib/gcc/avr32/4.4.7/../../../../avr32/lib/ucr3fp\libm.a(lib_a-e_fmod.o)
 .comment       0x00000000       0x31 c:/program files (x86)/atmel/atmel toolchain/avr32 gcc/native/3.4.1067/avr32-gnu-toolchain/bin/../lib/gcc/avr32/4.4.7/../../../../avr32/lib/ucr3fp\libm.a(lib_a-e_pow.o)
 .comment       0x00000000       0x31 c:/program files (x86)/atmel/atmel toolchain/avr32 gcc/native/3.4.1067/avr32-gnu-toolchain/bin/../lib/gcc/avr32/4.4.7/../../../../avr32/lib/ucr3fp\libm.a(lib_a-e_rem_pio2.o)
 .comment       0x00000000       0x31 c:/program files (x86)/atmel/atmel toolchain/avr32 gcc/native/3.4.1067/avr32-gnu-toolchain/bin/../lib/gcc/avr32/4.4.7/../../../../avr32/lib/ucr3fp\libm.a(lib_a-e_sqrt.o)
 .comment       0x00000000       0x31 c:/program files (x86)/atmel/atmel toolchain/avr32 gcc/native/3.4.1067/avr32-gnu-toolchain/bin/../lib/gcc/avr32/4.4.7/../../../../avr32/lib/ucr3fp\libm.a(lib_a-ef_sqrt.o)
 .comment       0x00000000       0x31 c:/program files (x86)/atmel/atmel toolchain/avr32 gcc/native/3.4.1067/avr32-gnu-toolchain/bin/../lib/gcc/avr32/4.4.7/../../../../avr32/lib/ucr3fp\libm.a(lib_a-k_cos.o)
 .comment       0x00000000       0x31 c:/program files (x86)/atmel/atmel toolchain/avr32 gcc/native/3.4.1067/avr32-gnu-toolchain/bin/../lib/gcc/avr32/4.4.7/../../../../avr32/lib/ucr3fp\libm.a(lib_a-k_rem_pio2.o)
 .comment       0x00000000       0x31 c:/program files (x86)/atmel/atmel toolchain/avr32 gcc/native/3.4.1067/avr32-gnu-toolchain/bin/../lib/gcc/avr32/4.4.7/../../../../avr32/lib/ucr3fp\libm.a(lib_a-k_sin.o)
 .comment       0x00000000       0x31 c:/program files (x86)/atmel/atmel toolchain/avr32 gcc/native/3.4.1067/avr32-gnu-toolchain/bin/../lib/gcc/avr32/4.4.7/../../../../avr32/lib/ucr3fp\libm.a(lib_a-s_atan.o)
 .comment       0x00000000       0x31 c:/program files (x86)/atmel/atmel toolchain/avr32 gcc/native/3.4.1067/avr32-gnu-toolchain/bin/../lib/gcc/avr32/4.4.7/../../../../avr32/lib/ucr3fp\libm.a(lib_a-s_fabs.o)
 .comment       0x00000000       0x31 c:/program files (x86)/atmel/atmel toolchain/avr32 gcc/native/3.4.1067/avr32-gnu-toolchain/bin/../lib/gcc/avr32/4.4.7/../../../../avr32/lib/ucr3fp\libm.a(lib_a-s_finite.o)
 .comment       0x00000000       0x31 c:/program files (x86)/atmel/atmel toolchain/avr32 gcc/native/3.4.1067/avr32-gnu-toolchain/bin/../lib/gcc/avr32/4.4.7/../../../../avr32/lib/ucr3fp\libm.a(lib_a-s_isnand.o)
 .comment       0x00000000       0x31 c:/program files (x86)/atmel/atmel toolchain/avr32 gcc/native/3.4.1067/avr32-gnu-toolchain/bin/../lib/gcc/avr32/4.4.7/../../../../avr32/lib/ucr3fp\libm.a(lib_a-s_lib_ver.o)
 .comment       0x00000000       0x31 c:/program files (x86)/atmel/atmel toolchain/avr32 gcc/native/3.4.1067/avr32-gnu-toolchain/bin/../lib/gcc/avr32/4.4.7/../../../../avr32/lib/ucr3fp\libm.a(lib_a-s_matherr.o)
 .comment       0x00000000       0x31 c:/program files (x86)/atmel/atmel toolchain/avr32 gcc/native/3.4.1067/avr32-gnu-toolchain/bin/../lib/gcc/avr32/4.4.7/../../../../avr32/lib/ucr3fp\libm.a(lib_a-s_nan.o)
 .comment       0x00000000       0x31 c:/program files (x86)/atmel/atmel toolchain/avr32 gcc/native/3.4.1067/avr32-gnu-toolchain/bin/../lib/gcc/avr32/4.4.7/../../../../avr32/lib/ucr3fp\libm.a(lib_a-s_rint.o)
 .comment       0x00000000       0x31 c:/program files (x86)/atmel/atmel toolchain/avr32 gcc/native/3.4.1067/avr32-gnu-toolchain/bin/../lib/gcc/avr32/4.4.7/../../../../avr32/lib/ucr3fp\libm.a(lib_a-s_scalbn.o)
 .comment       0x00000000       0x31 c:/program files (x86)/atmel/atmel toolchain/avr32 gcc/native/3.4.1067/avr32-gnu-toolchain/bin/../lib/gcc/avr32/4.4.7/../../../../avr32/lib/ucr3fp\libm.a(lib_a-sf_isnan.o)
 .comment       0x00000000       0x31 c:/program files (x86)/atmel/atmel toolchain/avr32 gcc/native/3.4.1067/avr32-gnu-toolchain/bin/../lib/gcc/avr32/4.4.7/../../../../avr32/lib/ucr3fp\libm.a(lib_a-s_copysign.o)
 .comment       0x00000000       0x31 c:/program files (x86)/atmel/atmel toolchain/avr32 gcc/native/3.4.1067/avr32-gnu-toolchain/bin/../lib/gcc/avr32/4.4.7/ucr3fp\libgcc.a(_floatdidf.o)
 .comment       0x00000000       0x31 c:/program files (x86)/atmel/atmel toolchain/avr32 gcc/native/3.4.1067/avr32-gnu-toolchain/bin/../lib/gcc/avr32/4.4.7/ucr3fp\libgcc.a(_divdi3.o)
 .comment       0x00000000       0x31 c:/program files (x86)/atmel/atmel toolchain/avr32 gcc/native/3.4.1067/avr32-gnu-toolchain/bin/../lib/gcc/avr32/4.4.7/ucr3fp\libgcc.a(_moddi3.o)
 .comment       0x00000000       0x31 c:/program files (x86)/atmel/atmel toolchain/avr32 gcc/native/3.4.1067/avr32-gnu-toolchain/bin/../lib/gcc/avr32/4.4.7/ucr3fp\libgcc.a(_udivdi3.o)
 .comment       0x00000000       0x31 c:/program files (x86)/atmel/atmel toolchain/avr32 gcc/native/3.4.1067/avr32-gnu-toolchain/bin/../lib/gcc/avr32/4.4.7/ucr3fp\libgcc.a(_umoddi3.o)
 .comment       0x00000000       0x31 c:/program files (x86)/atmel/atmel toolchain/avr32 gcc/native/3.4.1067/avr32-gnu-toolchain/bin/../lib/gcc/avr32/4.4.7/../../../../avr32/lib/ucr3fp\libc.a(lib_a-errno.o)
 .comment       0x00000000       0x31 c:/program files (x86)/atmel/atmel toolchain/avr32 gcc/native/3.4.1067/avr32-gnu-toolchain/bin/../lib/gcc/avr32/4.4.7/../../../../avr32/lib/ucr3fp\libc.a(lib_a-impure.o)
 .comment       0x00000000       0x31 c:/program files (x86)/atmel/atmel toolchain/avr32 gcc/native/3.4.1067/avr32-gnu-toolchain/bin/../lib/gcc/avr32/4.4.7/../../../../avr32/lib/ucr3fp\libc.a(lib_a-malloc.o)
 .comment       0x00000000       0x31 c:/program files (x86)/atmel/atmel toolchain/avr32 gcc/native/3.4.1067/avr32-gnu-toolchain/bin/../lib/gcc/avr32/4.4.7/../../../../avr32/lib/ucr3fp\libc.a(lib_a-mallocr.o)
 .comment       0x00000000       0x31 c:/program files (x86)/atmel/atmel toolchain/avr32 gcc/native/3.4.1067/avr32-gnu-toolchain/bin/../lib/gcc/avr32/4.4.7/../../../../avr32/lib/ucr3fp\libc.a(lib_a-memset.o)
 .comment       0x00000000       0x31 c:/program files (x86)/atmel/atmel toolchain/avr32 gcc/native/3.4.1067/avr32-gnu-toolchain/bin/../lib/gcc/avr32/4.4.7/../../../../avr32/lib/ucr3fp\libc.a(lib_a-mlock.o)
 .comment       0x00000000       0x31 c:/program files (x86)/atmel/atmel toolchain/avr32 gcc/native/3.4.1067/avr32-gnu-toolchain/bin/../lib/gcc/avr32/4.4.7/../../../../avr32/lib/ucr3fp\libc.a(lib_a-rand.o)
 .comment       0x00000000       0x31 c:/program files (x86)/atmel/atmel toolchain/avr32 gcc/native/3.4.1067/avr32-gnu-toolchain/bin/../lib/gcc/avr32/4.4.7/../../../../avr32/lib/ucr3fp\libc.a(lib_a-sbrkr.o)
 .comment       0x00000000       0x31 c:/program files (x86)/atmel/atmel toolchain/avr32 gcc/native/3.4.1067/avr32-gnu-toolchain/bin/../lib/gcc/avr32/4.4.7/../../../../avr32/lib/ucr3fp\libc.a(lib_a-snprintf.o)
 .comment       0x00000000       0x31 c:/program files (x86)/atmel/atmel toolchain/avr32 gcc/native/3.4.1067/avr32-gnu-toolchain/bin/../lib/gcc/avr32/4.4.7/../../../../avr32/lib/ucr3fp\libc.a(lib_a-strcpy.o)
 .comment       0x00000000       0x31 c:/program files (x86)/atmel/atmel toolchain/avr32 gcc/native/3.4.1067/avr32-gnu-toolchain/bin/../lib/gcc/avr32/4.4.7/../../../../avr32/lib/ucr3fp\libc.a(lib_a-strlen.o)
 .comment       0x00000000       0x31 c:/program files (x86)/atmel/atmel toolchain/avr32 gcc/native/3.4.1067/avr32-gnu-toolchain/bin/../lib/gcc/avr32/4.4.7/../../../../avr32/lib/ucr3fp\libc.a(lib_a-syscalls.o)
 .comment       0x00000000       0x31 c:/program files (x86)/atmel/atmel toolchain/avr32 gcc/native/3.4.1067/avr32-gnu-toolchain/bin/../lib/gcc/avr32/4.4.7/../../../../avr32/lib/ucr3fp\libc.a(lib_a-vfprintf.o)
 .comment       0x00000000       0x31 c:/program files (x86)/atmel/atmel toolchain/avr32 gcc/native/3.4.1067/avr32-gnu-toolchain/bin/../lib/gcc/avr32/4.4.7/../../../../avr32/lib/ucr3fp\libc.a(lib_a-wsetup.o)
 .comment       0x00000000       0x31 c:/program files (x86)/atmel/atmel toolchain/avr32 gcc/native/3.4.1067/avr32-gnu-toolchain/bin/../lib/gcc/avr32/4.4.7/../../../../avr32/lib/ucr3fp\libc.a(lib_a-dtoa.o)
 .comment       0x00000000       0x31 c:/program files (x86)/atmel/atmel toolchain/avr32 gcc/native/3.4.1067/avr32-gnu-toolchain/bin/../lib/gcc/avr32/4.4.7/../../../../avr32/lib/ucr3fp\libc.a(lib_a-fflush.o)
 .comment       0x00000000       0x31 c:/program files (x86)/atmel/atmel toolchain/avr32 gcc/native/3.4.1067/avr32-gnu-toolchain/bin/../lib/gcc/avr32/4.4.7/../../../../avr32/lib/ucr3fp\libc.a(lib_a-findfp.o)
 .comment       0x00000000       0x31 c:/program files (x86)/atmel/atmel toolchain/avr32 gcc/native/3.4.1067/avr32-gnu-toolchain/bin/../lib/gcc/avr32/4.4.7/../../../../avr32/lib/ucr3fp\libc.a(lib_a-freer.o)
 .comment       0x00000000       0x31 c:/program files (x86)/atmel/atmel toolchain/avr32 gcc/native/3.4.1067/avr32-gnu-toolchain/bin/../lib/gcc/avr32/4.4.7/../../../../avr32/lib/ucr3fp\libc.a(lib_a-fvwrite.o)
 .comment       0x00000000       0x31 c:/program files (x86)/atmel/atmel toolchain/avr32 gcc/native/3.4.1067/avr32-gnu-toolchain/bin/../lib/gcc/avr32/4.4.7/../../../../avr32/lib/ucr3fp\libc.a(lib_a-fwalk.o)
 .comment       0x00000000       0x31 c:/program files (x86)/atmel/atmel toolchain/avr32 gcc/native/3.4.1067/avr32-gnu-toolchain/bin/../lib/gcc/avr32/4.4.7/../../../../avr32/lib/ucr3fp\libc.a(lib_a-locale.o)
 .comment       0x00000000       0x31 c:/program files (x86)/atmel/atmel toolchain/avr32 gcc/native/3.4.1067/avr32-gnu-toolchain/bin/../lib/gcc/avr32/4.4.7/../../../../avr32/lib/ucr3fp\libc.a(lib_a-makebuf.o)
 .comment       0x00000000       0x31 c:/program files (x86)/atmel/atmel toolchain/avr32 gcc/native/3.4.1067/avr32-gnu-toolchain/bin/../lib/gcc/avr32/4.4.7/../../../../avr32/lib/ucr3fp\libc.a(lib_a-memchr.o)
 .comment       0x00000000       0x31 c:/program files (x86)/atmel/atmel toolchain/avr32 gcc/native/3.4.1067/avr32-gnu-toolchain/bin/../lib/gcc/avr32/4.4.7/../../../../avr32/lib/ucr3fp\libc.a(lib_a-memmove.o)
 .comment       0x00000000       0x31 c:/program files (x86)/atmel/atmel toolchain/avr32 gcc/native/3.4.1067/avr32-gnu-toolchain/bin/../lib/gcc/avr32/4.4.7/../../../../avr32/lib/ucr3fp\libc.a(lib_a-mprec.o)
 .comment       0x00000000       0x31 c:/program files (x86)/atmel/atmel toolchain/avr32 gcc/native/3.4.1067/avr32-gnu-toolchain/bin/../lib/gcc/avr32/4.4.7/../../../../avr32/lib/ucr3fp\libc.a(lib_a-reallocr.o)
 .comment       0x00000000       0x31 c:/program files (x86)/atmel/atmel toolchain/avr32 gcc/native/3.4.1067/avr32-gnu-toolchain/bin/../lib/gcc/avr32/4.4.7/../../../../avr32/lib/ucr3fp\libc.a(lib_a-reent.o)
 .comment       0x00000000       0x31 c:/program files (x86)/atmel/atmel toolchain/avr32 gcc/native/3.4.1067/avr32-gnu-toolchain/bin/../lib/gcc/avr32/4.4.7/../../../../avr32/lib/ucr3fp\libc.a(lib_a-s_isinfd.o)
 .comment       0x00000000       0x31 c:/program files (x86)/atmel/atmel toolchain/avr32 gcc/native/3.4.1067/avr32-gnu-toolchain/bin/../lib/gcc/avr32/4.4.7/../../../../avr32/lib/ucr3fp\libc.a(lib_a-stdio.o)
 .comment       0x00000000       0x31 c:/program files (x86)/atmel/atmel toolchain/avr32 gcc/native/3.4.1067/avr32-gnu-toolchain/bin/../lib/gcc/avr32/4.4.7/../../../../avr32/lib/ucr3fp\libc.a(lib_a-writer.o)
 .comment       0x00000000       0x31 c:/program files (x86)/atmel/atmel toolchain/avr32 gcc/native/3.4.1067/avr32-gnu-toolchain/bin/../lib/gcc/avr32/4.4.7/../../../../avr32/lib/ucr3fp\libc.a(lib_a-callocr.o)
 .comment       0x00000000       0x31 c:/program files (x86)/atmel/atmel toolchain/avr32 gcc/native/3.4.1067/avr32-gnu-toolchain/bin/../lib/gcc/avr32/4.4.7/../../../../avr32/lib/ucr3fp\libc.a(lib_a-closer.o)
 .comment       0x00000000       0x31 c:/program files (x86)/atmel/atmel toolchain/avr32 gcc/native/3.4.1067/avr32-gnu-toolchain/bin/../lib/gcc/avr32/4.4.7/../../../../avr32/lib/ucr3fp\libc.a(lib_a-fclose.o)
 .comment       0x00000000       0x31 c:/program files (x86)/atmel/atmel toolchain/avr32 gcc/native/3.4.1067/avr32-gnu-toolchain/bin/../lib/gcc/avr32/4.4.7/../../../../avr32/lib/ucr3fp\libc.a(lib_a-fstatr.o)
 .comment       0x00000000       0x31 c:/program files (x86)/atmel/atmel toolchain/avr32 gcc/native/3.4.1067/avr32-gnu-toolchain/bin/../lib/gcc/avr32/4.4.7/../../../../avr32/lib/ucr3fp\libc.a(lib_a-lseekr.o)
 .comment       0x00000000       0x31 c:/program files (x86)/atmel/atmel toolchain/avr32 gcc/native/3.4.1067/avr32-gnu-toolchain/bin/../lib/gcc/avr32/4.4.7/../../../../avr32/lib/ucr3fp\libc.a(lib_a-readr.o)

.debug
 *(.debug)

.line
 *(.line)

.debug_srcinfo
 *(.debug_srcinfo)

.debug_sfnames
 *(.debug_sfnames)

.debug_aranges  0x00000000      0xb10
 *(.debug_aranges)
 .debug_aranges
                0x00000000       0x20 c:/program files (x86)/atmel/atmel toolchain/avr32 gcc/native/3.4.1067/avr32-gnu-toolchain/bin/../lib/gcc/avr32/4.4.7/../../../../avr32/lib/ucr3fp\libm.a(lib_a-s_cos.o)
 .debug_aranges
                0x00000020       0x20 c:/program files (x86)/atmel/atmel toolchain/avr32 gcc/native/3.4.1067/avr32-gnu-toolchain/bin/../lib/gcc/avr32/4.4.7/../../../../avr32/lib/ucr3fp\libm.a(lib_a-s_floor.o)
 .debug_aranges
                0x00000040       0x20 c:/program files (x86)/atmel/atmel toolchain/avr32 gcc/native/3.4.1067/avr32-gnu-toolchain/bin/../lib/gcc/avr32/4.4.7/../../../../avr32/lib/ucr3fp\libm.a(lib_a-s_sin.o)
 .debug_aranges
                0x00000060       0x20 c:/program files (x86)/atmel/atmel toolchain/avr32 gcc/native/3.4.1067/avr32-gnu-toolchain/bin/../lib/gcc/avr32/4.4.7/../../../../avr32/lib/ucr3fp\libm.a(lib_a-w_asin.o)
 .debug_aranges
                0x00000080       0x20 c:/program files (x86)/atmel/atmel toolchain/avr32 gcc/native/3.4.1067/avr32-gnu-toolchain/bin/../lib/gcc/avr32/4.4.7/../../../../avr32/lib/ucr3fp\libm.a(lib_a-w_atan2.o)
 .debug_aranges
                0x000000a0       0x20 c:/program files (x86)/atmel/atmel toolchain/avr32 gcc/native/3.4.1067/avr32-gnu-toolchain/bin/../lib/gcc/avr32/4.4.7/../../../../avr32/lib/ucr3fp\libm.a(lib_a-w_fmod.o)
 .debug_aranges
                0x000000c0       0x20 c:/program files (x86)/atmel/atmel toolchain/avr32 gcc/native/3.4.1067/avr32-gnu-toolchain/bin/../lib/gcc/avr32/4.4.7/../../../../avr32/lib/ucr3fp\libm.a(lib_a-w_pow.o)
 .debug_aranges
                0x000000e0       0x20 c:/program files (x86)/atmel/atmel toolchain/avr32 gcc/native/3.4.1067/avr32-gnu-toolchain/bin/../lib/gcc/avr32/4.4.7/../../../../avr32/lib/ucr3fp\libm.a(lib_a-w_sqrt.o)
 .debug_aranges
                0x00000100       0x20 c:/program files (x86)/atmel/atmel toolchain/avr32 gcc/native/3.4.1067/avr32-gnu-toolchain/bin/../lib/gcc/avr32/4.4.7/../../../../avr32/lib/ucr3fp\libm.a(lib_a-wf_sqrt.o)
 .debug_aranges
                0x00000120       0x20 c:/program files (x86)/atmel/atmel toolchain/avr32 gcc/native/3.4.1067/avr32-gnu-toolchain/bin/../lib/gcc/avr32/4.4.7/../../../../avr32/lib/ucr3fp\libm.a(lib_a-e_asin.o)
 .debug_aranges
                0x00000140       0x20 c:/program files (x86)/atmel/atmel toolchain/avr32 gcc/native/3.4.1067/avr32-gnu-toolchain/bin/../lib/gcc/avr32/4.4.7/../../../../avr32/lib/ucr3fp\libm.a(lib_a-e_atan2.o)
 .debug_aranges
                0x00000160       0x20 c:/program files (x86)/atmel/atmel toolchain/avr32 gcc/native/3.4.1067/avr32-gnu-toolchain/bin/../lib/gcc/avr32/4.4.7/../../../../avr32/lib/ucr3fp\libm.a(lib_a-e_fmod.o)
 .debug_aranges
                0x00000180       0x20 c:/program files (x86)/atmel/atmel toolchain/avr32 gcc/native/3.4.1067/avr32-gnu-toolchain/bin/../lib/gcc/avr32/4.4.7/../../../../avr32/lib/ucr3fp\libm.a(lib_a-e_pow.o)
 .debug_aranges
                0x000001a0       0x20 c:/program files (x86)/atmel/atmel toolchain/avr32 gcc/native/3.4.1067/avr32-gnu-toolchain/bin/../lib/gcc/avr32/4.4.7/../../../../avr32/lib/ucr3fp\libm.a(lib_a-e_rem_pio2.o)
 .debug_aranges
                0x000001c0       0x20 c:/program files (x86)/atmel/atmel toolchain/avr32 gcc/native/3.4.1067/avr32-gnu-toolchain/bin/../lib/gcc/avr32/4.4.7/../../../../avr32/lib/ucr3fp\libm.a(lib_a-e_sqrt.o)
 .debug_aranges
                0x000001e0       0x20 c:/program files (x86)/atmel/atmel toolchain/avr32 gcc/native/3.4.1067/avr32-gnu-toolchain/bin/../lib/gcc/avr32/4.4.7/../../../../avr32/lib/ucr3fp\libm.a(lib_a-ef_sqrt.o)
 .debug_aranges
                0x00000200       0x20 c:/program files (x86)/atmel/atmel toolchain/avr32 gcc/native/3.4.1067/avr32-gnu-toolchain/bin/../lib/gcc/avr32/4.4.7/../../../../avr32/lib/ucr3fp\libm.a(lib_a-k_cos.o)
 .debug_aranges
                0x00000220       0x20 c:/program files (x86)/atmel/atmel toolchain/avr32 gcc/native/3.4.1067/avr32-gnu-toolchain/bin/../lib/gcc/avr32/4.4.7/../../../../avr32/lib/ucr3fp\libm.a(lib_a-k_rem_pio2.o)
 .debug_aranges
                0x00000240       0x20 c:/program files (x86)/atmel/atmel toolchain/avr32 gcc/native/3.4.1067/avr32-gnu-toolchain/bin/../lib/gcc/avr32/4.4.7/../../../../avr32/lib/ucr3fp\libm.a(lib_a-k_sin.o)
 .debug_aranges
                0x00000260       0x20 c:/program files (x86)/atmel/atmel toolchain/avr32 gcc/native/3.4.1067/avr32-gnu-toolchain/bin/../lib/gcc/avr32/4.4.7/../../../../avr32/lib/ucr3fp\libm.a(lib_a-s_atan.o)
 .debug_aranges
                0x00000280       0x20 c:/program files (x86)/atmel/atmel toolchain/avr32 gcc/native/3.4.1067/avr32-gnu-toolchain/bin/../lib/gcc/avr32/4.4.7/../../../../avr32/lib/ucr3fp\libm.a(lib_a-s_fabs.o)
 .debug_aranges
                0x000002a0       0x20 c:/program files (x86)/atmel/atmel toolchain/avr32 gcc/native/3.4.1067/avr32-gnu-toolchain/bin/../lib/gcc/avr32/4.4.7/../../../../avr32/lib/ucr3fp\libm.a(lib_a-s_finite.o)
 .debug_aranges
                0x000002c0       0x20 c:/program files (x86)/atmel/atmel toolchain/avr32 gcc/native/3.4.1067/avr32-gnu-toolchain/bin/../lib/gcc/avr32/4.4.7/../../../../avr32/lib/ucr3fp\libm.a(lib_a-s_isnand.o)
 .debug_aranges
                0x000002e0       0x20 c:/program files (x86)/atmel/atmel toolchain/avr32 gcc/native/3.4.1067/avr32-gnu-toolchain/bin/../lib/gcc/avr32/4.4.7/../../../../avr32/lib/ucr3fp\libm.a(lib_a-s_matherr.o)
 .debug_aranges
                0x00000300       0x20 c:/program files (x86)/atmel/atmel toolchain/avr32 gcc/native/3.4.1067/avr32-gnu-toolchain/bin/../lib/gcc/avr32/4.4.7/../../../../avr32/lib/ucr3fp\libm.a(lib_a-s_nan.o)
 .debug_aranges
                0x00000320       0x20 c:/program files (x86)/atmel/atmel toolchain/avr32 gcc/native/3.4.1067/avr32-gnu-toolchain/bin/../lib/gcc/avr32/4.4.7/../../../../avr32/lib/ucr3fp\libm.a(lib_a-s_rint.o)
 .debug_aranges
                0x00000340       0x20 c:/program files (x86)/atmel/atmel toolchain/avr32 gcc/native/3.4.1067/avr32-gnu-toolchain/bin/../lib/gcc/avr32/4.4.7/../../../../avr32/lib/ucr3fp\libm.a(lib_a-s_scalbn.o)
 .debug_aranges
                0x00000360       0x20 c:/program files (x86)/atmel/atmel toolchain/avr32 gcc/native/3.4.1067/avr32-gnu-toolchain/bin/../lib/gcc/avr32/4.4.7/../../../../avr32/lib/ucr3fp\libm.a(lib_a-sf_isnan.o)
 .debug_aranges
                0x00000380       0x20 c:/program files (x86)/atmel/atmel toolchain/avr32 gcc/native/3.4.1067/avr32-gnu-toolchain/bin/../lib/gcc/avr32/4.4.7/../../../../avr32/lib/ucr3fp\libm.a(lib_a-s_copysign.o)
 .debug_aranges
                0x000003a0       0x20 c:/program files (x86)/atmel/atmel toolchain/avr32 gcc/native/3.4.1067/avr32-gnu-toolchain/bin/../lib/gcc/avr32/4.4.7/ucr3fp\libgcc.a(_floatdidf.o)
 .debug_aranges
                0x000003c0       0x20 c:/program files (x86)/atmel/atmel toolchain/avr32 gcc/native/3.4.1067/avr32-gnu-toolchain/bin/../lib/gcc/avr32/4.4.7/ucr3fp\libgcc.a(_divdi3.o)
 .debug_aranges
                0x000003e0       0x20 c:/program files (x86)/atmel/atmel toolchain/avr32 gcc/native/3.4.1067/avr32-gnu-toolchain/bin/../lib/gcc/avr32/4.4.7/ucr3fp\libgcc.a(_moddi3.o)
 .debug_aranges
                0x00000400       0x20 c:/program files (x86)/atmel/atmel toolchain/avr32 gcc/native/3.4.1067/avr32-gnu-toolchain/bin/../lib/gcc/avr32/4.4.7/ucr3fp\libgcc.a(_udivdi3.o)
 .debug_aranges
                0x00000420       0x20 c:/program files (x86)/atmel/atmel toolchain/avr32 gcc/native/3.4.1067/avr32-gnu-toolchain/bin/../lib/gcc/avr32/4.4.7/ucr3fp\libgcc.a(_umoddi3.o)
 .debug_aranges
                0x00000440       0x20 c:/program files (x86)/atmel/atmel toolchain/avr32 gcc/native/3.4.1067/avr32-gnu-toolchain/bin/../lib/gcc/avr32/4.4.7/../../../../avr32/lib/ucr3fp\libc.a(lib_a-errno.o)
 .debug_aranges
                0x00000460       0x28 c:/program files (x86)/atmel/atmel toolchain/avr32 gcc/native/3.4.1067/avr32-gnu-toolchain/bin/../lib/gcc/avr32/4.4.7/../../../../avr32/lib/ucr3fp\libc.a(lib_a-malloc.o)
 .debug_aranges
                0x00000488       0x20 c:/program files (x86)/atmel/atmel toolchain/avr32 gcc/native/3.4.1067/avr32-gnu-toolchain/bin/../lib/gcc/avr32/4.4.7/../../../../avr32/lib/ucr3fp\libc.a(lib_a-mallocr.o)
 .debug_aranges
                0x000004a8       0x20 c:/program files (x86)/atmel/atmel toolchain/avr32 gcc/native/3.4.1067/avr32-gnu-toolchain/bin/../lib/gcc/avr32/4.4.7/../../../../avr32/lib/ucr3fp\libc.a(lib_a-memset.o)
 .debug_aranges
                0x000004c8       0x28 c:/program files (x86)/atmel/atmel toolchain/avr32 gcc/native/3.4.1067/avr32-gnu-toolchain/bin/../lib/gcc/avr32/4.4.7/../../../../avr32/lib/ucr3fp\libc.a(lib_a-mlock.o)
 .debug_aranges
                0x000004f0       0x28 c:/program files (x86)/atmel/atmel toolchain/avr32 gcc/native/3.4.1067/avr32-gnu-toolchain/bin/../lib/gcc/avr32/4.4.7/../../../../avr32/lib/ucr3fp\libc.a(lib_a-rand.o)
 .debug_aranges
                0x00000518       0x20 c:/program files (x86)/atmel/atmel toolchain/avr32 gcc/native/3.4.1067/avr32-gnu-toolchain/bin/../lib/gcc/avr32/4.4.7/../../../../avr32/lib/ucr3fp\libc.a(lib_a-sbrkr.o)
 .debug_aranges
                0x00000538       0x28 c:/program files (x86)/atmel/atmel toolchain/avr32 gcc/native/3.4.1067/avr32-gnu-toolchain/bin/../lib/gcc/avr32/4.4.7/../../../../avr32/lib/ucr3fp\libc.a(lib_a-snprintf.o)
 .debug_aranges
                0x00000560       0x20 c:/program files (x86)/atmel/atmel toolchain/avr32 gcc/native/3.4.1067/avr32-gnu-toolchain/bin/../lib/gcc/avr32/4.4.7/../../../../avr32/lib/ucr3fp\libc.a(lib_a-strcpy.o)
 .debug_aranges
                0x00000580       0x20 c:/program files (x86)/atmel/atmel toolchain/avr32 gcc/native/3.4.1067/avr32-gnu-toolchain/bin/../lib/gcc/avr32/4.4.7/../../../../avr32/lib/ucr3fp\libc.a(lib_a-strlen.o)
 .debug_aranges
                0x000005a0       0xf8 c:/program files (x86)/atmel/atmel toolchain/avr32 gcc/native/3.4.1067/avr32-gnu-toolchain/bin/../lib/gcc/avr32/4.4.7/../../../../avr32/lib/ucr3fp\libc.a(lib_a-syscalls.o)
 .debug_aranges
                0x00000698       0x38 c:/program files (x86)/atmel/atmel toolchain/avr32 gcc/native/3.4.1067/avr32-gnu-toolchain/bin/../lib/gcc/avr32/4.4.7/../../../../avr32/lib/ucr3fp\libc.a(lib_a-vfprintf.o)
 .debug_aranges
                0x000006d0       0x20 c:/program files (x86)/atmel/atmel toolchain/avr32 gcc/native/3.4.1067/avr32-gnu-toolchain/bin/../lib/gcc/avr32/4.4.7/../../../../avr32/lib/ucr3fp\libc.a(lib_a-wsetup.o)
 .debug_aranges
                0x000006f0       0x28 c:/program files (x86)/atmel/atmel toolchain/avr32 gcc/native/3.4.1067/avr32-gnu-toolchain/bin/../lib/gcc/avr32/4.4.7/../../../../avr32/lib/ucr3fp\libc.a(lib_a-dtoa.o)
 .debug_aranges
                0x00000718       0x28 c:/program files (x86)/atmel/atmel toolchain/avr32 gcc/native/3.4.1067/avr32-gnu-toolchain/bin/../lib/gcc/avr32/4.4.7/../../../../avr32/lib/ucr3fp\libc.a(lib_a-fflush.o)
 .debug_aranges
                0x00000740       0x80 c:/program files (x86)/atmel/atmel toolchain/avr32 gcc/native/3.4.1067/avr32-gnu-toolchain/bin/../lib/gcc/avr32/4.4.7/../../../../avr32/lib/ucr3fp\libc.a(lib_a-findfp.o)
 .debug_aranges
                0x000007c0       0x28 c:/program files (x86)/atmel/atmel toolchain/avr32 gcc/native/3.4.1067/avr32-gnu-toolchain/bin/../lib/gcc/avr32/4.4.7/../../../../avr32/lib/ucr3fp\libc.a(lib_a-freer.o)
 .debug_aranges
                0x000007e8       0x20 c:/program files (x86)/atmel/atmel toolchain/avr32 gcc/native/3.4.1067/avr32-gnu-toolchain/bin/../lib/gcc/avr32/4.4.7/../../../../avr32/lib/ucr3fp\libc.a(lib_a-fvwrite.o)
 .debug_aranges
                0x00000808       0x28 c:/program files (x86)/atmel/atmel toolchain/avr32 gcc/native/3.4.1067/avr32-gnu-toolchain/bin/../lib/gcc/avr32/4.4.7/../../../../avr32/lib/ucr3fp\libc.a(lib_a-fwalk.o)
 .debug_aranges
                0x00000830       0x40 c:/program files (x86)/atmel/atmel toolchain/avr32 gcc/native/3.4.1067/avr32-gnu-toolchain/bin/../lib/gcc/avr32/4.4.7/../../../../avr32/lib/ucr3fp\libc.a(lib_a-locale.o)
 .debug_aranges
                0x00000870       0x20 c:/program files (x86)/atmel/atmel toolchain/avr32 gcc/native/3.4.1067/avr32-gnu-toolchain/bin/../lib/gcc/avr32/4.4.7/../../../../avr32/lib/ucr3fp\libc.a(lib_a-makebuf.o)
 .debug_aranges
                0x00000890       0x20 c:/program files (x86)/atmel/atmel toolchain/avr32 gcc/native/3.4.1067/avr32-gnu-toolchain/bin/../lib/gcc/avr32/4.4.7/../../../../avr32/lib/ucr3fp\libc.a(lib_a-memchr.o)
 .debug_aranges
                0x000008b0       0x20 c:/program files (x86)/atmel/atmel toolchain/avr32 gcc/native/3.4.1067/avr32-gnu-toolchain/bin/../lib/gcc/avr32/4.4.7/../../../../avr32/lib/ucr3fp\libc.a(lib_a-memmove.o)
 .debug_aranges
                0x000008d0       0xb0 c:/program files (x86)/atmel/atmel toolchain/avr32 gcc/native/3.4.1067/avr32-gnu-toolchain/bin/../lib/gcc/avr32/4.4.7/../../../../avr32/lib/ucr3fp\libc.a(lib_a-mprec.o)
 .debug_aranges
                0x00000980       0x20 c:/program files (x86)/atmel/atmel toolchain/avr32 gcc/native/3.4.1067/avr32-gnu-toolchain/bin/../lib/gcc/avr32/4.4.7/../../../../avr32/lib/ucr3fp\libc.a(lib_a-reallocr.o)
 .debug_aranges
                0x000009a0       0x30 c:/program files (x86)/atmel/atmel toolchain/avr32 gcc/native/3.4.1067/avr32-gnu-toolchain/bin/../lib/gcc/avr32/4.4.7/../../../../avr32/lib/ucr3fp\libc.a(lib_a-reent.o)
 .debug_aranges
                0x000009d0       0x20 c:/program files (x86)/atmel/atmel toolchain/avr32 gcc/native/3.4.1067/avr32-gnu-toolchain/bin/../lib/gcc/avr32/4.4.7/../../../../avr32/lib/ucr3fp\libc.a(lib_a-s_isinfd.o)
 .debug_aranges
                0x000009f0       0x38 c:/program files (x86)/atmel/atmel toolchain/avr32 gcc/native/3.4.1067/avr32-gnu-toolchain/bin/../lib/gcc/avr32/4.4.7/../../../../avr32/lib/ucr3fp\libc.a(lib_a-stdio.o)
 .debug_aranges
                0x00000a28       0x20 c:/program files (x86)/atmel/atmel toolchain/avr32 gcc/native/3.4.1067/avr32-gnu-toolchain/bin/../lib/gcc/avr32/4.4.7/../../../../avr32/lib/ucr3fp\libc.a(lib_a-writer.o)
 .debug_aranges
                0x00000a48       0x20 c:/program files (x86)/atmel/atmel toolchain/avr32 gcc/native/3.4.1067/avr32-gnu-toolchain/bin/../lib/gcc/avr32/4.4.7/../../../../avr32/lib/ucr3fp\libc.a(lib_a-callocr.o)
 .debug_aranges
                0x00000a68       0x20 c:/program files (x86)/atmel/atmel toolchain/avr32 gcc/native/3.4.1067/avr32-gnu-toolchain/bin/../lib/gcc/avr32/4.4.7/../../../../avr32/lib/ucr3fp\libc.a(lib_a-closer.o)
 .debug_aranges
                0x00000a88       0x28 c:/program files (x86)/atmel/atmel toolchain/avr32 gcc/native/3.4.1067/avr32-gnu-toolchain/bin/../lib/gcc/avr32/4.4.7/../../../../avr32/lib/ucr3fp\libc.a(lib_a-fclose.o)
 .debug_aranges
                0x00000ab0       0x20 c:/program files (x86)/atmel/atmel toolchain/avr32 gcc/native/3.4.1067/avr32-gnu-toolchain/bin/../lib/gcc/avr32/4.4.7/../../../../avr32/lib/ucr3fp\libc.a(lib_a-fstatr.o)
 .debug_aranges
                0x00000ad0       0x20 c:/program files (x86)/atmel/atmel toolchain/avr32 gcc/native/3.4.1067/avr32-gnu-toolchain/bin/../lib/gcc/avr32/4.4.7/../../../../avr32/lib/ucr3fp\libc.a(lib_a-lseekr.o)
 .debug_aranges
                0x00000af0       0x20 c:/program files (x86)/atmel/atmel toolchain/avr32 gcc/native/3.4.1067/avr32-gnu-toolchain/bin/../lib/gcc/avr32/4.4.7/../../../../avr32/lib/ucr3fp\libc.a(lib_a-readr.o)

.debug_pubnames
                0x00000000      0xe55
 *(.debug_pubnames)
 .debug_pubnames
                0x00000000       0x1a c:/program files (x86)/atmel/atmel toolchain/avr32 gcc/native/3.4.1067/avr32-gnu-toolchain/bin/../lib/gcc/avr32/4.4.7/../../../../avr32/lib/ucr3fp\libm.a(lib_a-s_cos.o)
 .debug_pubnames
                0x0000001a       0x1c c:/program files (x86)/atmel/atmel toolchain/avr32 gcc/native/3.4.1067/avr32-gnu-toolchain/bin/../lib/gcc/avr32/4.4.7/../../../../avr32/lib/ucr3fp\libm.a(lib_a-s_floor.o)
 .debug_pubnames
                0x00000036       0x1a c:/program files (x86)/atmel/atmel toolchain/avr32 gcc/native/3.4.1067/avr32-gnu-toolchain/bin/../lib/gcc/avr32/4.4.7/../../../../avr32/lib/ucr3fp\libm.a(lib_a-s_sin.o)
 .debug_pubnames
                0x00000050       0x1b c:/program files (x86)/atmel/atmel toolchain/avr32 gcc/native/3.4.1067/avr32-gnu-toolchain/bin/../lib/gcc/avr32/4.4.7/../../../../avr32/lib/ucr3fp\libm.a(lib_a-w_asin.o)
 .debug_pubnames
                0x0000006b       0x1c c:/program files (x86)/atmel/atmel toolchain/avr32 gcc/native/3.4.1067/avr32-gnu-toolchain/bin/../lib/gcc/avr32/4.4.7/../../../../avr32/lib/ucr3fp\libm.a(lib_a-w_atan2.o)
 .debug_pubnames
                0x00000087       0x1b c:/program files (x86)/atmel/atmel toolchain/avr32 gcc/native/3.4.1067/avr32-gnu-toolchain/bin/../lib/gcc/avr32/4.4.7/../../../../avr32/lib/ucr3fp\libm.a(lib_a-w_fmod.o)
 .debug_pubnames
                0x000000a2       0x1a c:/program files (x86)/atmel/atmel toolchain/avr32 gcc/native/3.4.1067/avr32-gnu-toolchain/bin/../lib/gcc/avr32/4.4.7/../../../../avr32/lib/ucr3fp\libm.a(lib_a-w_pow.o)
 .debug_pubnames
                0x000000bc       0x1b c:/program files (x86)/atmel/atmel toolchain/avr32 gcc/native/3.4.1067/avr32-gnu-toolchain/bin/../lib/gcc/avr32/4.4.7/../../../../avr32/lib/ucr3fp\libm.a(lib_a-w_sqrt.o)
 .debug_pubnames
                0x000000d7       0x1c c:/program files (x86)/atmel/atmel toolchain/avr32 gcc/native/3.4.1067/avr32-gnu-toolchain/bin/../lib/gcc/avr32/4.4.7/../../../../avr32/lib/ucr3fp\libm.a(lib_a-wf_sqrt.o)
 .debug_pubnames
                0x000000f3       0x25 c:/program files (x86)/atmel/atmel toolchain/avr32 gcc/native/3.4.1067/avr32-gnu-toolchain/bin/../lib/gcc/avr32/4.4.7/../../../../avr32/lib/ucr3fp\libm.a(lib_a-e_asin.o)
 .debug_pubnames
                0x00000118       0x26 c:/program files (x86)/atmel/atmel toolchain/avr32 gcc/native/3.4.1067/avr32-gnu-toolchain/bin/../lib/gcc/avr32/4.4.7/../../../../avr32/lib/ucr3fp\libm.a(lib_a-e_atan2.o)
 .debug_pubnames
                0x0000013e       0x25 c:/program files (x86)/atmel/atmel toolchain/avr32 gcc/native/3.4.1067/avr32-gnu-toolchain/bin/../lib/gcc/avr32/4.4.7/../../../../avr32/lib/ucr3fp\libm.a(lib_a-e_fmod.o)
 .debug_pubnames
                0x00000163       0x24 c:/program files (x86)/atmel/atmel toolchain/avr32 gcc/native/3.4.1067/avr32-gnu-toolchain/bin/../lib/gcc/avr32/4.4.7/../../../../avr32/lib/ucr3fp\libm.a(lib_a-e_pow.o)
 .debug_pubnames
                0x00000187       0x29 c:/program files (x86)/atmel/atmel toolchain/avr32 gcc/native/3.4.1067/avr32-gnu-toolchain/bin/../lib/gcc/avr32/4.4.7/../../../../avr32/lib/ucr3fp\libm.a(lib_a-e_rem_pio2.o)
 .debug_pubnames
                0x000001b0       0x25 c:/program files (x86)/atmel/atmel toolchain/avr32 gcc/native/3.4.1067/avr32-gnu-toolchain/bin/../lib/gcc/avr32/4.4.7/../../../../avr32/lib/ucr3fp\libm.a(lib_a-e_sqrt.o)
 .debug_pubnames
                0x000001d5       0x26 c:/program files (x86)/atmel/atmel toolchain/avr32 gcc/native/3.4.1067/avr32-gnu-toolchain/bin/../lib/gcc/avr32/4.4.7/../../../../avr32/lib/ucr3fp\libm.a(lib_a-ef_sqrt.o)
 .debug_pubnames
                0x000001fb       0x23 c:/program files (x86)/atmel/atmel toolchain/avr32 gcc/native/3.4.1067/avr32-gnu-toolchain/bin/../lib/gcc/avr32/4.4.7/../../../../avr32/lib/ucr3fp\libm.a(lib_a-k_cos.o)
 .debug_pubnames
                0x0000021e       0x28 c:/program files (x86)/atmel/atmel toolchain/avr32 gcc/native/3.4.1067/avr32-gnu-toolchain/bin/../lib/gcc/avr32/4.4.7/../../../../avr32/lib/ucr3fp\libm.a(lib_a-k_rem_pio2.o)
 .debug_pubnames
                0x00000246       0x23 c:/program files (x86)/atmel/atmel toolchain/avr32 gcc/native/3.4.1067/avr32-gnu-toolchain/bin/../lib/gcc/avr32/4.4.7/../../../../avr32/lib/ucr3fp\libm.a(lib_a-k_sin.o)
 .debug_pubnames
                0x00000269       0x1b c:/program files (x86)/atmel/atmel toolchain/avr32 gcc/native/3.4.1067/avr32-gnu-toolchain/bin/../lib/gcc/avr32/4.4.7/../../../../avr32/lib/ucr3fp\libm.a(lib_a-s_atan.o)
 .debug_pubnames
                0x00000284       0x1b c:/program files (x86)/atmel/atmel toolchain/avr32 gcc/native/3.4.1067/avr32-gnu-toolchain/bin/../lib/gcc/avr32/4.4.7/../../../../avr32/lib/ucr3fp\libm.a(lib_a-s_fabs.o)
 .debug_pubnames
                0x0000029f       0x1d c:/program files (x86)/atmel/atmel toolchain/avr32 gcc/native/3.4.1067/avr32-gnu-toolchain/bin/../lib/gcc/avr32/4.4.7/../../../../avr32/lib/ucr3fp\libm.a(lib_a-s_finite.o)
 .debug_pubnames
                0x000002bc       0x1f c:/program files (x86)/atmel/atmel toolchain/avr32 gcc/native/3.4.1067/avr32-gnu-toolchain/bin/../lib/gcc/avr32/4.4.7/../../../../avr32/lib/ucr3fp\libm.a(lib_a-s_isnand.o)
 .debug_pubnames
                0x000002db       0x26 c:/program files (x86)/atmel/atmel toolchain/avr32 gcc/native/3.4.1067/avr32-gnu-toolchain/bin/../lib/gcc/avr32/4.4.7/../../../../avr32/lib/ucr3fp\libm.a(lib_a-s_lib_ver.o)
 .debug_pubnames
                0x00000301       0x1e c:/program files (x86)/atmel/atmel toolchain/avr32 gcc/native/3.4.1067/avr32-gnu-toolchain/bin/../lib/gcc/avr32/4.4.7/../../../../avr32/lib/ucr3fp\libm.a(lib_a-s_matherr.o)
 .debug_pubnames
                0x0000031f       0x1a c:/program files (x86)/atmel/atmel toolchain/avr32 gcc/native/3.4.1067/avr32-gnu-toolchain/bin/../lib/gcc/avr32/4.4.7/../../../../avr32/lib/ucr3fp\libm.a(lib_a-s_nan.o)
 .debug_pubnames
                0x00000339       0x1b c:/program files (x86)/atmel/atmel toolchain/avr32 gcc/native/3.4.1067/avr32-gnu-toolchain/bin/../lib/gcc/avr32/4.4.7/../../../../avr32/lib/ucr3fp\libm.a(lib_a-s_rint.o)
 .debug_pubnames
                0x00000354       0x1d c:/program files (x86)/atmel/atmel toolchain/avr32 gcc/native/3.4.1067/avr32-gnu-toolchain/bin/../lib/gcc/avr32/4.4.7/../../../../avr32/lib/ucr3fp\libm.a(lib_a-s_scalbn.o)
 .debug_pubnames
                0x00000371       0x1d c:/program files (x86)/atmel/atmel toolchain/avr32 gcc/native/3.4.1067/avr32-gnu-toolchain/bin/../lib/gcc/avr32/4.4.7/../../../../avr32/lib/ucr3fp\libm.a(lib_a-sf_isnan.o)
 .debug_pubnames
                0x0000038e       0x1f c:/program files (x86)/atmel/atmel toolchain/avr32 gcc/native/3.4.1067/avr32-gnu-toolchain/bin/../lib/gcc/avr32/4.4.7/../../../../avr32/lib/ucr3fp\libm.a(lib_a-s_copysign.o)
 .debug_pubnames
                0x000003ad       0x22 c:/program files (x86)/atmel/atmel toolchain/avr32 gcc/native/3.4.1067/avr32-gnu-toolchain/bin/../lib/gcc/avr32/4.4.7/ucr3fp\libgcc.a(_floatdidf.o)
 .debug_pubnames
                0x000003cf       0x1f c:/program files (x86)/atmel/atmel toolchain/avr32 gcc/native/3.4.1067/avr32-gnu-toolchain/bin/../lib/gcc/avr32/4.4.7/ucr3fp\libgcc.a(_divdi3.o)
 .debug_pubnames
                0x000003ee       0x1f c:/program files (x86)/atmel/atmel toolchain/avr32 gcc/native/3.4.1067/avr32-gnu-toolchain/bin/../lib/gcc/avr32/4.4.7/ucr3fp\libgcc.a(_moddi3.o)
 .debug_pubnames
                0x0000040d       0x20 c:/program files (x86)/atmel/atmel toolchain/avr32 gcc/native/3.4.1067/avr32-gnu-toolchain/bin/../lib/gcc/avr32/4.4.7/ucr3fp\libgcc.a(_udivdi3.o)
 .debug_pubnames
                0x0000042d       0x20 c:/program files (x86)/atmel/atmel toolchain/avr32 gcc/native/3.4.1067/avr32-gnu-toolchain/bin/../lib/gcc/avr32/4.4.7/ucr3fp\libgcc.a(_umoddi3.o)
 .debug_pubnames
                0x0000044d       0x1e c:/program files (x86)/atmel/atmel toolchain/avr32 gcc/native/3.4.1067/avr32-gnu-toolchain/bin/../lib/gcc/avr32/4.4.7/../../../../avr32/lib/ucr3fp\libc.a(lib_a-errno.o)
 .debug_pubnames
                0x0000046b       0x39 c:/program files (x86)/atmel/atmel toolchain/avr32 gcc/native/3.4.1067/avr32-gnu-toolchain/bin/../lib/gcc/avr32/4.4.7/../../../../avr32/lib/ucr3fp\libc.a(lib_a-impure.o)
 .debug_pubnames
                0x000004a4       0x26 c:/program files (x86)/atmel/atmel toolchain/avr32 gcc/native/3.4.1067/avr32-gnu-toolchain/bin/../lib/gcc/avr32/4.4.7/../../../../avr32/lib/ucr3fp\libc.a(lib_a-malloc.o)
 .debug_pubnames
                0x000004ca       0xce c:/program files (x86)/atmel/atmel toolchain/avr32 gcc/native/3.4.1067/avr32-gnu-toolchain/bin/../lib/gcc/avr32/4.4.7/../../../../avr32/lib/ucr3fp\libc.a(lib_a-mallocr.o)
 .debug_pubnames
                0x00000598       0x1d c:/program files (x86)/atmel/atmel toolchain/avr32 gcc/native/3.4.1067/avr32-gnu-toolchain/bin/../lib/gcc/avr32/4.4.7/../../../../avr32/lib/ucr3fp\libc.a(lib_a-memset.o)
 .debug_pubnames
                0x000005b5       0x38 c:/program files (x86)/atmel/atmel toolchain/avr32 gcc/native/3.4.1067/avr32-gnu-toolchain/bin/../lib/gcc/avr32/4.4.7/../../../../avr32/lib/ucr3fp\libc.a(lib_a-mlock.o)
 .debug_pubnames
                0x000005ed       0x25 c:/program files (x86)/atmel/atmel toolchain/avr32 gcc/native/3.4.1067/avr32-gnu-toolchain/bin/../lib/gcc/avr32/4.4.7/../../../../avr32/lib/ucr3fp\libc.a(lib_a-rand.o)
 .debug_pubnames
                0x00000612       0x1e c:/program files (x86)/atmel/atmel toolchain/avr32 gcc/native/3.4.1067/avr32-gnu-toolchain/bin/../lib/gcc/avr32/4.4.7/../../../../avr32/lib/ucr3fp\libc.a(lib_a-sbrkr.o)
 .debug_pubnames
                0x00000630       0x2f c:/program files (x86)/atmel/atmel toolchain/avr32 gcc/native/3.4.1067/avr32-gnu-toolchain/bin/../lib/gcc/avr32/4.4.7/../../../../avr32/lib/ucr3fp\libc.a(lib_a-snprintf.o)
 .debug_pubnames
                0x0000065f       0x1d c:/program files (x86)/atmel/atmel toolchain/avr32 gcc/native/3.4.1067/avr32-gnu-toolchain/bin/../lib/gcc/avr32/4.4.7/../../../../avr32/lib/ucr3fp\libc.a(lib_a-strcpy.o)
 .debug_pubnames
                0x0000067c       0x1d c:/program files (x86)/atmel/atmel toolchain/avr32 gcc/native/3.4.1067/avr32-gnu-toolchain/bin/../lib/gcc/avr32/4.4.7/../../../../avr32/lib/ucr3fp\libc.a(lib_a-strlen.o)
 .debug_pubnames
                0x00000699      0x171 c:/program files (x86)/atmel/atmel toolchain/avr32 gcc/native/3.4.1067/avr32-gnu-toolchain/bin/../lib/gcc/avr32/4.4.7/../../../../avr32/lib/ucr3fp\libc.a(lib_a-syscalls.o)
 .debug_pubnames
                0x0000080a       0x2f c:/program files (x86)/atmel/atmel toolchain/avr32 gcc/native/3.4.1067/avr32-gnu-toolchain/bin/../lib/gcc/avr32/4.4.7/../../../../avr32/lib/ucr3fp\libc.a(lib_a-vfprintf.o)
 .debug_pubnames
                0x00000839       0x22 c:/program files (x86)/atmel/atmel toolchain/avr32 gcc/native/3.4.1067/avr32-gnu-toolchain/bin/../lib/gcc/avr32/4.4.7/../../../../avr32/lib/ucr3fp\libc.a(lib_a-wsetup.o)
 .debug_pubnames
                0x0000085b       0x1e c:/program files (x86)/atmel/atmel toolchain/avr32 gcc/native/3.4.1067/avr32-gnu-toolchain/bin/../lib/gcc/avr32/4.4.7/../../../../avr32/lib/ucr3fp\libc.a(lib_a-dtoa.o)
 .debug_pubnames
                0x00000879       0x2b c:/program files (x86)/atmel/atmel toolchain/avr32 gcc/native/3.4.1067/avr32-gnu-toolchain/bin/../lib/gcc/avr32/4.4.7/../../../../avr32/lib/ucr3fp\libc.a(lib_a-fflush.o)
 .debug_pubnames
                0x000008a4      0x119 c:/program files (x86)/atmel/atmel toolchain/avr32 gcc/native/3.4.1067/avr32-gnu-toolchain/bin/../lib/gcc/avr32/4.4.7/../../../../avr32/lib/ucr3fp\libc.a(lib_a-findfp.o)
 .debug_pubnames
                0x000009bd       0x31 c:/program files (x86)/atmel/atmel toolchain/avr32 gcc/native/3.4.1067/avr32-gnu-toolchain/bin/../lib/gcc/avr32/4.4.7/../../../../avr32/lib/ucr3fp\libc.a(lib_a-freer.o)
 .debug_pubnames
                0x000009ee       0x23 c:/program files (x86)/atmel/atmel toolchain/avr32 gcc/native/3.4.1067/avr32-gnu-toolchain/bin/../lib/gcc/avr32/4.4.7/../../../../avr32/lib/ucr3fp\libc.a(lib_a-fvwrite.o)
 .debug_pubnames
                0x00000a11       0x2e c:/program files (x86)/atmel/atmel toolchain/avr32 gcc/native/3.4.1067/avr32-gnu-toolchain/bin/../lib/gcc/avr32/4.4.7/../../../../avr32/lib/ucr3fp\libc.a(lib_a-fwalk.o)
 .debug_pubnames
                0x00000a3f       0xc3 c:/program files (x86)/atmel/atmel toolchain/avr32 gcc/native/3.4.1067/avr32-gnu-toolchain/bin/../lib/gcc/avr32/4.4.7/../../../../avr32/lib/ucr3fp\libc.a(lib_a-locale.o)
 .debug_pubnames
                0x00000b02       0x23 c:/program files (x86)/atmel/atmel toolchain/avr32 gcc/native/3.4.1067/avr32-gnu-toolchain/bin/../lib/gcc/avr32/4.4.7/../../../../avr32/lib/ucr3fp\libc.a(lib_a-makebuf.o)
 .debug_pubnames
                0x00000b25       0x1d c:/program files (x86)/atmel/atmel toolchain/avr32 gcc/native/3.4.1067/avr32-gnu-toolchain/bin/../lib/gcc/avr32/4.4.7/../../../../avr32/lib/ucr3fp\libc.a(lib_a-memchr.o)
 .debug_pubnames
                0x00000b42       0x1e c:/program files (x86)/atmel/atmel toolchain/avr32 gcc/native/3.4.1067/avr32-gnu-toolchain/bin/../lib/gcc/avr32/4.4.7/../../../../avr32/lib/ucr3fp\libc.a(lib_a-memmove.o)
 .debug_pubnames
                0x00000b60      0x13a c:/program files (x86)/atmel/atmel toolchain/avr32 gcc/native/3.4.1067/avr32-gnu-toolchain/bin/../lib/gcc/avr32/4.4.7/../../../../avr32/lib/ucr3fp\libc.a(lib_a-mprec.o)
 .debug_pubnames
                0x00000c9a       0x21 c:/program files (x86)/atmel/atmel toolchain/avr32 gcc/native/3.4.1067/avr32-gnu-toolchain/bin/../lib/gcc/avr32/4.4.7/../../../../avr32/lib/ucr3fp\libc.a(lib_a-reallocr.o)
 .debug_pubnames
                0x00000cbb       0x52 c:/program files (x86)/atmel/atmel toolchain/avr32 gcc/native/3.4.1067/avr32-gnu-toolchain/bin/../lib/gcc/avr32/4.4.7/../../../../avr32/lib/ucr3fp\libc.a(lib_a-reent.o)
 .debug_pubnames
                0x00000d0d       0x1f c:/program files (x86)/atmel/atmel toolchain/avr32 gcc/native/3.4.1067/avr32-gnu-toolchain/bin/../lib/gcc/avr32/4.4.7/../../../../avr32/lib/ucr3fp\libc.a(lib_a-s_isinfd.o)
 .debug_pubnames
                0x00000d2c       0x44 c:/program files (x86)/atmel/atmel toolchain/avr32 gcc/native/3.4.1067/avr32-gnu-toolchain/bin/../lib/gcc/avr32/4.4.7/../../../../avr32/lib/ucr3fp\libc.a(lib_a-stdio.o)
 .debug_pubnames
                0x00000d70       0x1f c:/program files (x86)/atmel/atmel toolchain/avr32 gcc/native/3.4.1067/avr32-gnu-toolchain/bin/../lib/gcc/avr32/4.4.7/../../../../avr32/lib/ucr3fp\libc.a(lib_a-writer.o)
 .debug_pubnames
                0x00000d8f       0x20 c:/program files (x86)/atmel/atmel toolchain/avr32 gcc/native/3.4.1067/avr32-gnu-toolchain/bin/../lib/gcc/avr32/4.4.7/../../../../avr32/lib/ucr3fp\libc.a(lib_a-callocr.o)
 .debug_pubnames
                0x00000daf       0x1f c:/program files (x86)/atmel/atmel toolchain/avr32 gcc/native/3.4.1067/avr32-gnu-toolchain/bin/../lib/gcc/avr32/4.4.7/../../../../avr32/lib/ucr3fp\libc.a(lib_a-closer.o)
 .debug_pubnames
                0x00000dce       0x2b c:/program files (x86)/atmel/atmel toolchain/avr32 gcc/native/3.4.1067/avr32-gnu-toolchain/bin/../lib/gcc/avr32/4.4.7/../../../../avr32/lib/ucr3fp\libc.a(lib_a-fclose.o)
 .debug_pubnames
                0x00000df9       0x1f c:/program files (x86)/atmel/atmel toolchain/avr32 gcc/native/3.4.1067/avr32-gnu-toolchain/bin/../lib/gcc/avr32/4.4.7/../../../../avr32/lib/ucr3fp\libc.a(lib_a-fstatr.o)
 .debug_pubnames
                0x00000e18       0x1f c:/program files (x86)/atmel/atmel toolchain/avr32 gcc/native/3.4.1067/avr32-gnu-toolchain/bin/../lib/gcc/avr32/4.4.7/../../../../avr32/lib/ucr3fp\libc.a(lib_a-lseekr.o)
 .debug_pubnames
                0x00000e37       0x1e c:/program files (x86)/atmel/atmel toolchain/avr32 gcc/native/3.4.1067/avr32-gnu-toolchain/bin/../lib/gcc/avr32/4.4.7/../../../../avr32/lib/ucr3fp\libc.a(lib_a-readr.o)

.debug_info     0x00000000    0x1970f
 *(.debug_info .gnu.linkonce.wi.*)
 .debug_info    0x00000000      0x176 c:/program files (x86)/atmel/atmel toolchain/avr32 gcc/native/3.4.1067/avr32-gnu-toolchain/bin/../lib/gcc/avr32/4.4.7/../../../../avr32/lib/ucr3fp\libm.a(lib_a-s_cos.o)
 .debug_info    0x00000176      0x1b4 c:/program files (x86)/atmel/atmel toolchain/avr32 gcc/native/3.4.1067/avr32-gnu-toolchain/bin/../lib/gcc/avr32/4.4.7/../../../../avr32/lib/ucr3fp\libm.a(lib_a-s_floor.o)
 .debug_info    0x0000032a      0x176 c:/program files (x86)/atmel/atmel toolchain/avr32 gcc/native/3.4.1067/avr32-gnu-toolchain/bin/../lib/gcc/avr32/4.4.7/../../../../avr32/lib/ucr3fp\libm.a(lib_a-s_sin.o)
 .debug_info    0x000004a0      0x189 c:/program files (x86)/atmel/atmel toolchain/avr32 gcc/native/3.4.1067/avr32-gnu-toolchain/bin/../lib/gcc/avr32/4.4.7/../../../../avr32/lib/ucr3fp\libm.a(lib_a-w_asin.o)
 .debug_info    0x00000629       0xbf c:/program files (x86)/atmel/atmel toolchain/avr32 gcc/native/3.4.1067/avr32-gnu-toolchain/bin/../lib/gcc/avr32/4.4.7/../../../../avr32/lib/ucr3fp\libm.a(lib_a-w_atan2.o)
 .debug_info    0x000006e8      0x1af c:/program files (x86)/atmel/atmel toolchain/avr32 gcc/native/3.4.1067/avr32-gnu-toolchain/bin/../lib/gcc/avr32/4.4.7/../../../../avr32/lib/ucr3fp\libm.a(lib_a-w_fmod.o)
 .debug_info    0x00000897      0x1c8 c:/program files (x86)/atmel/atmel toolchain/avr32 gcc/native/3.4.1067/avr32-gnu-toolchain/bin/../lib/gcc/avr32/4.4.7/../../../../avr32/lib/ucr3fp\libm.a(lib_a-w_pow.o)
 .debug_info    0x00000a5f      0x189 c:/program files (x86)/atmel/atmel toolchain/avr32 gcc/native/3.4.1067/avr32-gnu-toolchain/bin/../lib/gcc/avr32/4.4.7/../../../../avr32/lib/ucr3fp\libm.a(lib_a-w_sqrt.o)
 .debug_info    0x00000be8      0x172 c:/program files (x86)/atmel/atmel toolchain/avr32 gcc/native/3.4.1067/avr32-gnu-toolchain/bin/../lib/gcc/avr32/4.4.7/../../../../avr32/lib/ucr3fp\libm.a(lib_a-wf_sqrt.o)
 .debug_info    0x00000d5a      0x308 c:/program files (x86)/atmel/atmel toolchain/avr32 gcc/native/3.4.1067/avr32-gnu-toolchain/bin/../lib/gcc/avr32/4.4.7/../../../../avr32/lib/ucr3fp\libm.a(lib_a-e_asin.o)
 .debug_info    0x00001062      0x289 c:/program files (x86)/atmel/atmel toolchain/avr32 gcc/native/3.4.1067/avr32-gnu-toolchain/bin/../lib/gcc/avr32/4.4.7/../../../../avr32/lib/ucr3fp\libm.a(lib_a-e_atan2.o)
 .debug_info    0x000012eb      0x268 c:/program files (x86)/atmel/atmel toolchain/avr32 gcc/native/3.4.1067/avr32-gnu-toolchain/bin/../lib/gcc/avr32/4.4.7/../../../../avr32/lib/ucr3fp\libm.a(lib_a-e_fmod.o)
 .debug_info    0x00001553      0x6b9 c:/program files (x86)/atmel/atmel toolchain/avr32 gcc/native/3.4.1067/avr32-gnu-toolchain/bin/../lib/gcc/avr32/4.4.7/../../../../avr32/lib/ucr3fp\libm.a(lib_a-e_pow.o)
 .debug_info    0x00001c0c      0x356 c:/program files (x86)/atmel/atmel toolchain/avr32 gcc/native/3.4.1067/avr32-gnu-toolchain/bin/../lib/gcc/avr32/4.4.7/../../../../avr32/lib/ucr3fp\libm.a(lib_a-e_rem_pio2.o)
 .debug_info    0x00001f62      0x229 c:/program files (x86)/atmel/atmel toolchain/avr32 gcc/native/3.4.1067/avr32-gnu-toolchain/bin/../lib/gcc/avr32/4.4.7/../../../../avr32/lib/ucr3fp\libm.a(lib_a-e_sqrt.o)
 .debug_info    0x0000218b      0x169 c:/program files (x86)/atmel/atmel toolchain/avr32 gcc/native/3.4.1067/avr32-gnu-toolchain/bin/../lib/gcc/avr32/4.4.7/../../../../avr32/lib/ucr3fp\libm.a(lib_a-ef_sqrt.o)
 .debug_info    0x000022f4      0x23e c:/program files (x86)/atmel/atmel toolchain/avr32 gcc/native/3.4.1067/avr32-gnu-toolchain/bin/../lib/gcc/avr32/4.4.7/../../../../avr32/lib/ucr3fp\libm.a(lib_a-k_cos.o)
 .debug_info    0x00002532      0x2d9 c:/program files (x86)/atmel/atmel toolchain/avr32 gcc/native/3.4.1067/avr32-gnu-toolchain/bin/../lib/gcc/avr32/4.4.7/../../../../avr32/lib/ucr3fp\libm.a(lib_a-k_rem_pio2.o)
 .debug_info    0x0000280b      0x18c c:/program files (x86)/atmel/atmel toolchain/avr32 gcc/native/3.4.1067/avr32-gnu-toolchain/bin/../lib/gcc/avr32/4.4.7/../../../../avr32/lib/ucr3fp\libm.a(lib_a-k_sin.o)
 .debug_info    0x00002997      0x28b c:/program files (x86)/atmel/atmel toolchain/avr32 gcc/native/3.4.1067/avr32-gnu-toolchain/bin/../lib/gcc/avr32/4.4.7/../../../../avr32/lib/ucr3fp\libm.a(lib_a-s_atan.o)
 .debug_info    0x00002c22      0x138 c:/program files (x86)/atmel/atmel toolchain/avr32 gcc/native/3.4.1067/avr32-gnu-toolchain/bin/../lib/gcc/avr32/4.4.7/../../../../avr32/lib/ucr3fp\libm.a(lib_a-s_fabs.o)
 .debug_info    0x00002d5a      0x13b c:/program files (x86)/atmel/atmel toolchain/avr32 gcc/native/3.4.1067/avr32-gnu-toolchain/bin/../lib/gcc/avr32/4.4.7/../../../../avr32/lib/ucr3fp\libm.a(lib_a-s_finite.o)
 .debug_info    0x00002e95      0x14c c:/program files (x86)/atmel/atmel toolchain/avr32 gcc/native/3.4.1067/avr32-gnu-toolchain/bin/../lib/gcc/avr32/4.4.7/../../../../avr32/lib/ucr3fp\libm.a(lib_a-s_isnand.o)
 .debug_info    0x00002fe1       0xc0 c:/program files (x86)/atmel/atmel toolchain/avr32 gcc/native/3.4.1067/avr32-gnu-toolchain/bin/../lib/gcc/avr32/4.4.7/../../../../avr32/lib/ucr3fp\libm.a(lib_a-s_lib_ver.o)
 .debug_info    0x000030a1      0x132 c:/program files (x86)/atmel/atmel toolchain/avr32 gcc/native/3.4.1067/avr32-gnu-toolchain/bin/../lib/gcc/avr32/4.4.7/../../../../avr32/lib/ucr3fp\libm.a(lib_a-s_matherr.o)
 .debug_info    0x000031d3       0xc4 c:/program files (x86)/atmel/atmel toolchain/avr32 gcc/native/3.4.1067/avr32-gnu-toolchain/bin/../lib/gcc/avr32/4.4.7/../../../../avr32/lib/ucr3fp\libm.a(lib_a-s_nan.o)
 .debug_info    0x00003297      0x201 c:/program files (x86)/atmel/atmel toolchain/avr32 gcc/native/3.4.1067/avr32-gnu-toolchain/bin/../lib/gcc/avr32/4.4.7/../../../../avr32/lib/ucr3fp\libm.a(lib_a-s_rint.o)
 .debug_info    0x00003498      0x21b c:/program files (x86)/atmel/atmel toolchain/avr32 gcc/native/3.4.1067/avr32-gnu-toolchain/bin/../lib/gcc/avr32/4.4.7/../../../../avr32/lib/ucr3fp\libm.a(lib_a-s_scalbn.o)
 .debug_info    0x000036b3      0x114 c:/program files (x86)/atmel/atmel toolchain/avr32 gcc/native/3.4.1067/avr32-gnu-toolchain/bin/../lib/gcc/avr32/4.4.7/../../../../avr32/lib/ucr3fp\libm.a(lib_a-sf_isnan.o)
 .debug_info    0x000037c7      0x150 c:/program files (x86)/atmel/atmel toolchain/avr32 gcc/native/3.4.1067/avr32-gnu-toolchain/bin/../lib/gcc/avr32/4.4.7/../../../../avr32/lib/ucr3fp\libm.a(lib_a-s_copysign.o)
 .debug_info    0x00003917       0xd8 c:/program files (x86)/atmel/atmel toolchain/avr32 gcc/native/3.4.1067/avr32-gnu-toolchain/bin/../lib/gcc/avr32/4.4.7/ucr3fp\libgcc.a(_floatdidf.o)
 .debug_info    0x000039ef      0x5b4 c:/program files (x86)/atmel/atmel toolchain/avr32 gcc/native/3.4.1067/avr32-gnu-toolchain/bin/../lib/gcc/avr32/4.4.7/ucr3fp\libgcc.a(_divdi3.o)
 .debug_info    0x00003fa3      0x551 c:/program files (x86)/atmel/atmel toolchain/avr32 gcc/native/3.4.1067/avr32-gnu-toolchain/bin/../lib/gcc/avr32/4.4.7/ucr3fp\libgcc.a(_moddi3.o)
 .debug_info    0x000044f4      0x57b c:/program files (x86)/atmel/atmel toolchain/avr32 gcc/native/3.4.1067/avr32-gnu-toolchain/bin/../lib/gcc/avr32/4.4.7/ucr3fp\libgcc.a(_udivdi3.o)
 .debug_info    0x00004a6f      0x52b c:/program files (x86)/atmel/atmel toolchain/avr32 gcc/native/3.4.1067/avr32-gnu-toolchain/bin/../lib/gcc/avr32/4.4.7/ucr3fp\libgcc.a(_umoddi3.o)
 .debug_info    0x00004f9a      0x8a6 c:/program files (x86)/atmel/atmel toolchain/avr32 gcc/native/3.4.1067/avr32-gnu-toolchain/bin/../lib/gcc/avr32/4.4.7/../../../../avr32/lib/ucr3fp\libc.a(lib_a-errno.o)
 .debug_info    0x00005840      0x960 c:/program files (x86)/atmel/atmel toolchain/avr32 gcc/native/3.4.1067/avr32-gnu-toolchain/bin/../lib/gcc/avr32/4.4.7/../../../../avr32/lib/ucr3fp\libc.a(lib_a-impure.o)
 .debug_info    0x000061a0      0x8ea c:/program files (x86)/atmel/atmel toolchain/avr32 gcc/native/3.4.1067/avr32-gnu-toolchain/bin/../lib/gcc/avr32/4.4.7/../../../../avr32/lib/ucr3fp\libc.a(lib_a-malloc.o)
 .debug_info    0x00006a8a      0xc4e c:/program files (x86)/atmel/atmel toolchain/avr32 gcc/native/3.4.1067/avr32-gnu-toolchain/bin/../lib/gcc/avr32/4.4.7/../../../../avr32/lib/ucr3fp\libc.a(lib_a-mallocr.o)
 .debug_info    0x000076d8       0xcd c:/program files (x86)/atmel/atmel toolchain/avr32 gcc/native/3.4.1067/avr32-gnu-toolchain/bin/../lib/gcc/avr32/4.4.7/../../../../avr32/lib/ucr3fp\libc.a(lib_a-memset.o)
 .debug_info    0x000077a5      0x8cf c:/program files (x86)/atmel/atmel toolchain/avr32 gcc/native/3.4.1067/avr32-gnu-toolchain/bin/../lib/gcc/avr32/4.4.7/../../../../avr32/lib/ucr3fp\libc.a(lib_a-mlock.o)
 .debug_info    0x00008074      0x91a c:/program files (x86)/atmel/atmel toolchain/avr32 gcc/native/3.4.1067/avr32-gnu-toolchain/bin/../lib/gcc/avr32/4.4.7/../../../../avr32/lib/ucr3fp\libc.a(lib_a-rand.o)
 .debug_info    0x0000898e      0x8de c:/program files (x86)/atmel/atmel toolchain/avr32 gcc/native/3.4.1067/avr32-gnu-toolchain/bin/../lib/gcc/avr32/4.4.7/../../../../avr32/lib/ucr3fp\libc.a(lib_a-sbrkr.o)
 .debug_info    0x0000926c      0x9bd c:/program files (x86)/atmel/atmel toolchain/avr32 gcc/native/3.4.1067/avr32-gnu-toolchain/bin/../lib/gcc/avr32/4.4.7/../../../../avr32/lib/ucr3fp\libc.a(lib_a-snprintf.o)
 .debug_info    0x00009c29       0xc2 c:/program files (x86)/atmel/atmel toolchain/avr32 gcc/native/3.4.1067/avr32-gnu-toolchain/bin/../lib/gcc/avr32/4.4.7/../../../../avr32/lib/ucr3fp\libc.a(lib_a-strcpy.o)
 .debug_info    0x00009ceb       0xbe c:/program files (x86)/atmel/atmel toolchain/avr32 gcc/native/3.4.1067/avr32-gnu-toolchain/bin/../lib/gcc/avr32/4.4.7/../../../../avr32/lib/ucr3fp\libc.a(lib_a-strlen.o)
 .debug_info    0x00009da9      0x93a c:/program files (x86)/atmel/atmel toolchain/avr32 gcc/native/3.4.1067/avr32-gnu-toolchain/bin/../lib/gcc/avr32/4.4.7/../../../../avr32/lib/ucr3fp\libc.a(lib_a-syscalls.o)
 .debug_info    0x0000a6e3     0x15e8 c:/program files (x86)/atmel/atmel toolchain/avr32 gcc/native/3.4.1067/avr32-gnu-toolchain/bin/../lib/gcc/avr32/4.4.7/../../../../avr32/lib/ucr3fp\libc.a(lib_a-vfprintf.o)
 .debug_info    0x0000bccb      0x982 c:/program files (x86)/atmel/atmel toolchain/avr32 gcc/native/3.4.1067/avr32-gnu-toolchain/bin/../lib/gcc/avr32/4.4.7/../../../../avr32/lib/ucr3fp\libc.a(lib_a-wsetup.o)
 .debug_info    0x0000c64d      0xcf7 c:/program files (x86)/atmel/atmel toolchain/avr32 gcc/native/3.4.1067/avr32-gnu-toolchain/bin/../lib/gcc/avr32/4.4.7/../../../../avr32/lib/ucr3fp\libc.a(lib_a-dtoa.o)
 .debug_info    0x0000d344      0xa22 c:/program files (x86)/atmel/atmel toolchain/avr32 gcc/native/3.4.1067/avr32-gnu-toolchain/bin/../lib/gcc/avr32/4.4.7/../../../../avr32/lib/ucr3fp\libc.a(lib_a-fflush.o)
 .debug_info    0x0000dd66      0xc2a c:/program files (x86)/atmel/atmel toolchain/avr32 gcc/native/3.4.1067/avr32-gnu-toolchain/bin/../lib/gcc/avr32/4.4.7/../../../../avr32/lib/ucr3fp\libc.a(lib_a-findfp.o)
 .debug_info    0x0000e990      0xb3d c:/program files (x86)/atmel/atmel toolchain/avr32 gcc/native/3.4.1067/avr32-gnu-toolchain/bin/../lib/gcc/avr32/4.4.7/../../../../avr32/lib/ucr3fp\libc.a(lib_a-freer.o)
 .debug_info    0x0000f4cd      0x9fc c:/program files (x86)/atmel/atmel toolchain/avr32 gcc/native/3.4.1067/avr32-gnu-toolchain/bin/../lib/gcc/avr32/4.4.7/../../../../avr32/lib/ucr3fp\libc.a(lib_a-fvwrite.o)
 .debug_info    0x0000fec9      0xa61 c:/program files (x86)/atmel/atmel toolchain/avr32 gcc/native/3.4.1067/avr32-gnu-toolchain/bin/../lib/gcc/avr32/4.4.7/../../../../avr32/lib/ucr3fp\libc.a(lib_a-fwalk.o)
 .debug_info    0x0001092a      0xb24 c:/program files (x86)/atmel/atmel toolchain/avr32 gcc/native/3.4.1067/avr32-gnu-toolchain/bin/../lib/gcc/avr32/4.4.7/../../../../avr32/lib/ucr3fp\libc.a(lib_a-locale.o)
 .debug_info    0x0001144e      0xa96 c:/program files (x86)/atmel/atmel toolchain/avr32 gcc/native/3.4.1067/avr32-gnu-toolchain/bin/../lib/gcc/avr32/4.4.7/../../../../avr32/lib/ucr3fp\libc.a(lib_a-makebuf.o)
 .debug_info    0x00011ee4       0xe7 c:/program files (x86)/atmel/atmel toolchain/avr32 gcc/native/3.4.1067/avr32-gnu-toolchain/bin/../lib/gcc/avr32/4.4.7/../../../../avr32/lib/ucr3fp\libc.a(lib_a-memchr.o)
 .debug_info    0x00011fcb      0x102 c:/program files (x86)/atmel/atmel toolchain/avr32 gcc/native/3.4.1067/avr32-gnu-toolchain/bin/../lib/gcc/avr32/4.4.7/../../../../avr32/lib/ucr3fp\libc.a(lib_a-memmove.o)
 .debug_info    0x000120cd     0x149a c:/program files (x86)/atmel/atmel toolchain/avr32 gcc/native/3.4.1067/avr32-gnu-toolchain/bin/../lib/gcc/avr32/4.4.7/../../../../avr32/lib/ucr3fp\libc.a(lib_a-mprec.o)
 .debug_info    0x00013567      0xb17 c:/program files (x86)/atmel/atmel toolchain/avr32 gcc/native/3.4.1067/avr32-gnu-toolchain/bin/../lib/gcc/avr32/4.4.7/../../../../avr32/lib/ucr3fp\libc.a(lib_a-reallocr.o)
 .debug_info    0x0001407e      0x973 c:/program files (x86)/atmel/atmel toolchain/avr32 gcc/native/3.4.1067/avr32-gnu-toolchain/bin/../lib/gcc/avr32/4.4.7/../../../../avr32/lib/ucr3fp\libc.a(lib_a-reent.o)
 .debug_info    0x000149f1      0x14d c:/program files (x86)/atmel/atmel toolchain/avr32 gcc/native/3.4.1067/avr32-gnu-toolchain/bin/../lib/gcc/avr32/4.4.7/../../../../avr32/lib/ucr3fp\libc.a(lib_a-s_isinfd.o)
 .debug_info    0x00014b3e      0xa28 c:/program files (x86)/atmel/atmel toolchain/avr32 gcc/native/3.4.1067/avr32-gnu-toolchain/bin/../lib/gcc/avr32/4.4.7/../../../../avr32/lib/ucr3fp\libc.a(lib_a-stdio.o)
 .debug_info    0x00015566      0x90d c:/program files (x86)/atmel/atmel toolchain/avr32 gcc/native/3.4.1067/avr32-gnu-toolchain/bin/../lib/gcc/avr32/4.4.7/../../../../avr32/lib/ucr3fp\libc.a(lib_a-writer.o)
 .debug_info    0x00015e73      0x997 c:/program files (x86)/atmel/atmel toolchain/avr32 gcc/native/3.4.1067/avr32-gnu-toolchain/bin/../lib/gcc/avr32/4.4.7/../../../../avr32/lib/ucr3fp\libc.a(lib_a-callocr.o)
 .debug_info    0x0001680a      0x8d2 c:/program files (x86)/atmel/atmel toolchain/avr32 gcc/native/3.4.1067/avr32-gnu-toolchain/bin/../lib/gcc/avr32/4.4.7/../../../../avr32/lib/ucr3fp\libc.a(lib_a-closer.o)
 .debug_info    0x000170dc      0x9bc c:/program files (x86)/atmel/atmel toolchain/avr32 gcc/native/3.4.1067/avr32-gnu-toolchain/bin/../lib/gcc/avr32/4.4.7/../../../../avr32/lib/ucr3fp\libc.a(lib_a-fclose.o)
 .debug_info    0x00017a98      0xa76 c:/program files (x86)/atmel/atmel toolchain/avr32 gcc/native/3.4.1067/avr32-gnu-toolchain/bin/../lib/gcc/avr32/4.4.7/../../../../avr32/lib/ucr3fp\libc.a(lib_a-fstatr.o)
 .debug_info    0x0001850e      0x8fb c:/program files (x86)/atmel/atmel toolchain/avr32 gcc/native/3.4.1067/avr32-gnu-toolchain/bin/../lib/gcc/avr32/4.4.7/../../../../avr32/lib/ucr3fp\libc.a(lib_a-lseekr.o)
 .debug_info    0x00018e09      0x906 c:/program files (x86)/atmel/atmel toolchain/avr32 gcc/native/3.4.1067/avr32-gnu-toolchain/bin/../lib/gcc/avr32/4.4.7/../../../../avr32/lib/ucr3fp\libc.a(lib_a-readr.o)

.debug_abbrev   0x00000000     0x5b13
 *(.debug_abbrev)
 .debug_abbrev  0x00000000       0xfe c:/program files (x86)/atmel/atmel toolchain/avr32 gcc/native/3.4.1067/avr32-gnu-toolchain/bin/../lib/gcc/avr32/4.4.7/../../../../avr32/lib/ucr3fp\libm.a(lib_a-s_cos.o)
 .debug_abbrev  0x000000fe      0x10f c:/program files (x86)/atmel/atmel toolchain/avr32 gcc/native/3.4.1067/avr32-gnu-toolchain/bin/../lib/gcc/avr32/4.4.7/../../../../avr32/lib/ucr3fp\libm.a(lib_a-s_floor.o)
 .debug_abbrev  0x0000020d       0xfe c:/program files (x86)/atmel/atmel toolchain/avr32 gcc/native/3.4.1067/avr32-gnu-toolchain/bin/../lib/gcc/avr32/4.4.7/../../../../avr32/lib/ucr3fp\libm.a(lib_a-s_sin.o)
 .debug_abbrev  0x0000030b       0xee c:/program files (x86)/atmel/atmel toolchain/avr32 gcc/native/3.4.1067/avr32-gnu-toolchain/bin/../lib/gcc/avr32/4.4.7/../../../../avr32/lib/ucr3fp\libm.a(lib_a-w_asin.o)
 .debug_abbrev  0x000003f9       0x59 c:/program files (x86)/atmel/atmel toolchain/avr32 gcc/native/3.4.1067/avr32-gnu-toolchain/bin/../lib/gcc/avr32/4.4.7/../../../../avr32/lib/ucr3fp\libm.a(lib_a-w_atan2.o)
 .debug_abbrev  0x00000452       0xf9 c:/program files (x86)/atmel/atmel toolchain/avr32 gcc/native/3.4.1067/avr32-gnu-toolchain/bin/../lib/gcc/avr32/4.4.7/../../../../avr32/lib/ucr3fp\libm.a(lib_a-w_fmod.o)
 .debug_abbrev  0x0000054b       0xf9 c:/program files (x86)/atmel/atmel toolchain/avr32 gcc/native/3.4.1067/avr32-gnu-toolchain/bin/../lib/gcc/avr32/4.4.7/../../../../avr32/lib/ucr3fp\libm.a(lib_a-w_pow.o)
 .debug_abbrev  0x00000644       0xee c:/program files (x86)/atmel/atmel toolchain/avr32 gcc/native/3.4.1067/avr32-gnu-toolchain/bin/../lib/gcc/avr32/4.4.7/../../../../avr32/lib/ucr3fp\libm.a(lib_a-w_sqrt.o)
 .debug_abbrev  0x00000732       0xc9 c:/program files (x86)/atmel/atmel toolchain/avr32 gcc/native/3.4.1067/avr32-gnu-toolchain/bin/../lib/gcc/avr32/4.4.7/../../../../avr32/lib/ucr3fp\libm.a(lib_a-wf_sqrt.o)
 .debug_abbrev  0x000007fb      0x11c c:/program files (x86)/atmel/atmel toolchain/avr32 gcc/native/3.4.1067/avr32-gnu-toolchain/bin/../lib/gcc/avr32/4.4.7/../../../../avr32/lib/ucr3fp\libm.a(lib_a-e_asin.o)
 .debug_abbrev  0x00000917      0x12b c:/program files (x86)/atmel/atmel toolchain/avr32 gcc/native/3.4.1067/avr32-gnu-toolchain/bin/../lib/gcc/avr32/4.4.7/../../../../avr32/lib/ucr3fp\libm.a(lib_a-e_atan2.o)
 .debug_abbrev  0x00000a42      0x121 c:/program files (x86)/atmel/atmel toolchain/avr32 gcc/native/3.4.1067/avr32-gnu-toolchain/bin/../lib/gcc/avr32/4.4.7/../../../../avr32/lib/ucr3fp\libm.a(lib_a-e_fmod.o)
 .debug_abbrev  0x00000b63      0x166 c:/program files (x86)/atmel/atmel toolchain/avr32 gcc/native/3.4.1067/avr32-gnu-toolchain/bin/../lib/gcc/avr32/4.4.7/../../../../avr32/lib/ucr3fp\libm.a(lib_a-e_pow.o)
 .debug_abbrev  0x00000cc9      0x14f c:/program files (x86)/atmel/atmel toolchain/avr32 gcc/native/3.4.1067/avr32-gnu-toolchain/bin/../lib/gcc/avr32/4.4.7/../../../../avr32/lib/ucr3fp\libm.a(lib_a-e_rem_pio2.o)
 .debug_abbrev  0x00000e18      0x138 c:/program files (x86)/atmel/atmel toolchain/avr32 gcc/native/3.4.1067/avr32-gnu-toolchain/bin/../lib/gcc/avr32/4.4.7/../../../../avr32/lib/ucr3fp\libm.a(lib_a-e_sqrt.o)
 .debug_abbrev  0x00000f50       0xc5 c:/program files (x86)/atmel/atmel toolchain/avr32 gcc/native/3.4.1067/avr32-gnu-toolchain/bin/../lib/gcc/avr32/4.4.7/../../../../avr32/lib/ucr3fp\libm.a(lib_a-ef_sqrt.o)
 .debug_abbrev  0x00001015      0x11e c:/program files (x86)/atmel/atmel toolchain/avr32 gcc/native/3.4.1067/avr32-gnu-toolchain/bin/../lib/gcc/avr32/4.4.7/../../../../avr32/lib/ucr3fp\libm.a(lib_a-k_cos.o)
 .debug_abbrev  0x00001133      0x11a c:/program files (x86)/atmel/atmel toolchain/avr32 gcc/native/3.4.1067/avr32-gnu-toolchain/bin/../lib/gcc/avr32/4.4.7/../../../../avr32/lib/ucr3fp\libm.a(lib_a-k_rem_pio2.o)
 .debug_abbrev  0x0000124d       0x9a c:/program files (x86)/atmel/atmel toolchain/avr32 gcc/native/3.4.1067/avr32-gnu-toolchain/bin/../lib/gcc/avr32/4.4.7/../../../../avr32/lib/ucr3fp\libm.a(lib_a-k_sin.o)
 .debug_abbrev  0x000012e7      0x130 c:/program files (x86)/atmel/atmel toolchain/avr32 gcc/native/3.4.1067/avr32-gnu-toolchain/bin/../lib/gcc/avr32/4.4.7/../../../../avr32/lib/ucr3fp\libm.a(lib_a-s_atan.o)
 .debug_abbrev  0x00001417       0xce c:/program files (x86)/atmel/atmel toolchain/avr32 gcc/native/3.4.1067/avr32-gnu-toolchain/bin/../lib/gcc/avr32/4.4.7/../../../../avr32/lib/ucr3fp\libm.a(lib_a-s_fabs.o)
 .debug_abbrev  0x000014e5       0xcc c:/program files (x86)/atmel/atmel toolchain/avr32 gcc/native/3.4.1067/avr32-gnu-toolchain/bin/../lib/gcc/avr32/4.4.7/../../../../avr32/lib/ucr3fp\libm.a(lib_a-s_finite.o)
 .debug_abbrev  0x000015b1       0xce c:/program files (x86)/atmel/atmel toolchain/avr32 gcc/native/3.4.1067/avr32-gnu-toolchain/bin/../lib/gcc/avr32/4.4.7/../../../../avr32/lib/ucr3fp\libm.a(lib_a-s_isnand.o)
 .debug_abbrev  0x0000167f       0x5a c:/program files (x86)/atmel/atmel toolchain/avr32 gcc/native/3.4.1067/avr32-gnu-toolchain/bin/../lib/gcc/avr32/4.4.7/../../../../avr32/lib/ucr3fp\libm.a(lib_a-s_lib_ver.o)
 .debug_abbrev  0x000016d9       0x9e c:/program files (x86)/atmel/atmel toolchain/avr32 gcc/native/3.4.1067/avr32-gnu-toolchain/bin/../lib/gcc/avr32/4.4.7/../../../../avr32/lib/ucr3fp\libm.a(lib_a-s_matherr.o)
 .debug_abbrev  0x00001777       0x76 c:/program files (x86)/atmel/atmel toolchain/avr32 gcc/native/3.4.1067/avr32-gnu-toolchain/bin/../lib/gcc/avr32/4.4.7/../../../../avr32/lib/ucr3fp\libm.a(lib_a-s_nan.o)
 .debug_abbrev  0x000017ed      0x119 c:/program files (x86)/atmel/atmel toolchain/avr32 gcc/native/3.4.1067/avr32-gnu-toolchain/bin/../lib/gcc/avr32/4.4.7/../../../../avr32/lib/ucr3fp\libm.a(lib_a-s_rint.o)
 .debug_abbrev  0x00001906      0x118 c:/program files (x86)/atmel/atmel toolchain/avr32 gcc/native/3.4.1067/avr32-gnu-toolchain/bin/../lib/gcc/avr32/4.4.7/../../../../avr32/lib/ucr3fp\libm.a(lib_a-s_scalbn.o)
 .debug_abbrev  0x00001a1e       0xb0 c:/program files (x86)/atmel/atmel toolchain/avr32 gcc/native/3.4.1067/avr32-gnu-toolchain/bin/../lib/gcc/avr32/4.4.7/../../../../avr32/lib/ucr3fp\libm.a(lib_a-sf_isnan.o)
 .debug_abbrev  0x00001ace       0xce c:/program files (x86)/atmel/atmel toolchain/avr32 gcc/native/3.4.1067/avr32-gnu-toolchain/bin/../lib/gcc/avr32/4.4.7/../../../../avr32/lib/ucr3fp\libm.a(lib_a-s_copysign.o)
 .debug_abbrev  0x00001b9c       0x6a c:/program files (x86)/atmel/atmel toolchain/avr32 gcc/native/3.4.1067/avr32-gnu-toolchain/bin/../lib/gcc/avr32/4.4.7/ucr3fp\libgcc.a(_floatdidf.o)
 .debug_abbrev  0x00001c06      0x178 c:/program files (x86)/atmel/atmel toolchain/avr32 gcc/native/3.4.1067/avr32-gnu-toolchain/bin/../lib/gcc/avr32/4.4.7/ucr3fp\libgcc.a(_divdi3.o)
 .debug_abbrev  0x00001d7e      0x178 c:/program files (x86)/atmel/atmel toolchain/avr32 gcc/native/3.4.1067/avr32-gnu-toolchain/bin/../lib/gcc/avr32/4.4.7/ucr3fp\libgcc.a(_moddi3.o)
 .debug_abbrev  0x00001ef6      0x15a c:/program files (x86)/atmel/atmel toolchain/avr32 gcc/native/3.4.1067/avr32-gnu-toolchain/bin/../lib/gcc/avr32/4.4.7/ucr3fp\libgcc.a(_udivdi3.o)
 .debug_abbrev  0x00002050      0x169 c:/program files (x86)/atmel/atmel toolchain/avr32 gcc/native/3.4.1067/avr32-gnu-toolchain/bin/../lib/gcc/avr32/4.4.7/ucr3fp\libgcc.a(_umoddi3.o)
 .debug_abbrev  0x000021b9      0x150 c:/program files (x86)/atmel/atmel toolchain/avr32 gcc/native/3.4.1067/avr32-gnu-toolchain/bin/../lib/gcc/avr32/4.4.7/../../../../avr32/lib/ucr3fp\libc.a(lib_a-errno.o)
 .debug_abbrev  0x00002309      0x160 c:/program files (x86)/atmel/atmel toolchain/avr32 gcc/native/3.4.1067/avr32-gnu-toolchain/bin/../lib/gcc/avr32/4.4.7/../../../../avr32/lib/ucr3fp\libc.a(lib_a-impure.o)
 .debug_abbrev  0x00002469      0x178 c:/program files (x86)/atmel/atmel toolchain/avr32 gcc/native/3.4.1067/avr32-gnu-toolchain/bin/../lib/gcc/avr32/4.4.7/../../../../avr32/lib/ucr3fp\libc.a(lib_a-malloc.o)
 .debug_abbrev  0x000025e1      0x205 c:/program files (x86)/atmel/atmel toolchain/avr32 gcc/native/3.4.1067/avr32-gnu-toolchain/bin/../lib/gcc/avr32/4.4.7/../../../../avr32/lib/ucr3fp\libc.a(lib_a-mallocr.o)
 .debug_abbrev  0x000027e6       0x85 c:/program files (x86)/atmel/atmel toolchain/avr32 gcc/native/3.4.1067/avr32-gnu-toolchain/bin/../lib/gcc/avr32/4.4.7/../../../../avr32/lib/ucr3fp\libc.a(lib_a-memset.o)
 .debug_abbrev  0x0000286b      0x15b c:/program files (x86)/atmel/atmel toolchain/avr32 gcc/native/3.4.1067/avr32-gnu-toolchain/bin/../lib/gcc/avr32/4.4.7/../../../../avr32/lib/ucr3fp\libc.a(lib_a-mlock.o)
 .debug_abbrev  0x000029c6      0x1b3 c:/program files (x86)/atmel/atmel toolchain/avr32 gcc/native/3.4.1067/avr32-gnu-toolchain/bin/../lib/gcc/avr32/4.4.7/../../../../avr32/lib/ucr3fp\libc.a(lib_a-rand.o)
 .debug_abbrev  0x00002b79      0x17f c:/program files (x86)/atmel/atmel toolchain/avr32 gcc/native/3.4.1067/avr32-gnu-toolchain/bin/../lib/gcc/avr32/4.4.7/../../../../avr32/lib/ucr3fp\libc.a(lib_a-sbrkr.o)
 .debug_abbrev  0x00002cf8      0x1a9 c:/program files (x86)/atmel/atmel toolchain/avr32 gcc/native/3.4.1067/avr32-gnu-toolchain/bin/../lib/gcc/avr32/4.4.7/../../../../avr32/lib/ucr3fp\libc.a(lib_a-snprintf.o)
 .debug_abbrev  0x00002ea1       0x76 c:/program files (x86)/atmel/atmel toolchain/avr32 gcc/native/3.4.1067/avr32-gnu-toolchain/bin/../lib/gcc/avr32/4.4.7/../../../../avr32/lib/ucr3fp\libc.a(lib_a-strcpy.o)
 .debug_abbrev  0x00002f17       0x83 c:/program files (x86)/atmel/atmel toolchain/avr32 gcc/native/3.4.1067/avr32-gnu-toolchain/bin/../lib/gcc/avr32/4.4.7/../../../../avr32/lib/ucr3fp\libc.a(lib_a-strlen.o)
 .debug_abbrev  0x00002f9a      0x19a c:/program files (x86)/atmel/atmel toolchain/avr32 gcc/native/3.4.1067/avr32-gnu-toolchain/bin/../lib/gcc/avr32/4.4.7/../../../../avr32/lib/ucr3fp\libc.a(lib_a-syscalls.o)
 .debug_abbrev  0x00003134      0x3dd c:/program files (x86)/atmel/atmel toolchain/avr32 gcc/native/3.4.1067/avr32-gnu-toolchain/bin/../lib/gcc/avr32/4.4.7/../../../../avr32/lib/ucr3fp\libc.a(lib_a-vfprintf.o)
 .debug_abbrev  0x00003511      0x16a c:/program files (x86)/atmel/atmel toolchain/avr32 gcc/native/3.4.1067/avr32-gnu-toolchain/bin/../lib/gcc/avr32/4.4.7/../../../../avr32/lib/ucr3fp\libc.a(lib_a-wsetup.o)
 .debug_abbrev  0x0000367b      0x251 c:/program files (x86)/atmel/atmel toolchain/avr32 gcc/native/3.4.1067/avr32-gnu-toolchain/bin/../lib/gcc/avr32/4.4.7/../../../../avr32/lib/ucr3fp\libc.a(lib_a-dtoa.o)
 .debug_abbrev  0x000038cc      0x1c6 c:/program files (x86)/atmel/atmel toolchain/avr32 gcc/native/3.4.1067/avr32-gnu-toolchain/bin/../lib/gcc/avr32/4.4.7/../../../../avr32/lib/ucr3fp\libc.a(lib_a-fflush.o)
 .debug_abbrev  0x00003a92      0x28c c:/program files (x86)/atmel/atmel toolchain/avr32 gcc/native/3.4.1067/avr32-gnu-toolchain/bin/../lib/gcc/avr32/4.4.7/../../../../avr32/lib/ucr3fp\libc.a(lib_a-findfp.o)
 .debug_abbrev  0x00003d1e      0x1d9 c:/program files (x86)/atmel/atmel toolchain/avr32 gcc/native/3.4.1067/avr32-gnu-toolchain/bin/../lib/gcc/avr32/4.4.7/../../../../avr32/lib/ucr3fp\libc.a(lib_a-freer.o)
 .debug_abbrev  0x00003ef7      0x1b4 c:/program files (x86)/atmel/atmel toolchain/avr32 gcc/native/3.4.1067/avr32-gnu-toolchain/bin/../lib/gcc/avr32/4.4.7/../../../../avr32/lib/ucr3fp\libc.a(lib_a-fvwrite.o)
 .debug_abbrev  0x000040ab      0x1df c:/program files (x86)/atmel/atmel toolchain/avr32 gcc/native/3.4.1067/avr32-gnu-toolchain/bin/../lib/gcc/avr32/4.4.7/../../../../avr32/lib/ucr3fp\libc.a(lib_a-fwalk.o)
 .debug_abbrev  0x0000428a      0x210 c:/program files (x86)/atmel/atmel toolchain/avr32 gcc/native/3.4.1067/avr32-gnu-toolchain/bin/../lib/gcc/avr32/4.4.7/../../../../avr32/lib/ucr3fp\libc.a(lib_a-locale.o)
 .debug_abbrev  0x0000449a      0x17b c:/program files (x86)/atmel/atmel toolchain/avr32 gcc/native/3.4.1067/avr32-gnu-toolchain/bin/../lib/gcc/avr32/4.4.7/../../../../avr32/lib/ucr3fp\libc.a(lib_a-makebuf.o)
 .debug_abbrev  0x00004615       0xb1 c:/program files (x86)/atmel/atmel toolchain/avr32 gcc/native/3.4.1067/avr32-gnu-toolchain/bin/../lib/gcc/avr32/4.4.7/../../../../avr32/lib/ucr3fp\libc.a(lib_a-memchr.o)
 .debug_abbrev  0x000046c6       0xa2 c:/program files (x86)/atmel/atmel toolchain/avr32 gcc/native/3.4.1067/avr32-gnu-toolchain/bin/../lib/gcc/avr32/4.4.7/../../../../avr32/lib/ucr3fp\libc.a(lib_a-memmove.o)
 .debug_abbrev  0x00004768      0x30e c:/program files (x86)/atmel/atmel toolchain/avr32 gcc/native/3.4.1067/avr32-gnu-toolchain/bin/../lib/gcc/avr32/4.4.7/../../../../avr32/lib/ucr3fp\libc.a(lib_a-mprec.o)
 .debug_abbrev  0x00004a76      0x1c1 c:/program files (x86)/atmel/atmel toolchain/avr32 gcc/native/3.4.1067/avr32-gnu-toolchain/bin/../lib/gcc/avr32/4.4.7/../../../../avr32/lib/ucr3fp\libc.a(lib_a-reallocr.o)
 .debug_abbrev  0x00004c37      0x1e6 c:/program files (x86)/atmel/atmel toolchain/avr32 gcc/native/3.4.1067/avr32-gnu-toolchain/bin/../lib/gcc/avr32/4.4.7/../../../../avr32/lib/ucr3fp\libc.a(lib_a-reent.o)
 .debug_abbrev  0x00004e1d       0xdd c:/program files (x86)/atmel/atmel toolchain/avr32 gcc/native/3.4.1067/avr32-gnu-toolchain/bin/../lib/gcc/avr32/4.4.7/../../../../avr32/lib/ucr3fp\libc.a(lib_a-s_isinfd.o)
 .debug_abbrev  0x00004efa      0x192 c:/program files (x86)/atmel/atmel toolchain/avr32 gcc/native/3.4.1067/avr32-gnu-toolchain/bin/../lib/gcc/avr32/4.4.7/../../../../avr32/lib/ucr3fp\libc.a(lib_a-stdio.o)
 .debug_abbrev  0x0000508c      0x175 c:/program files (x86)/atmel/atmel toolchain/avr32 gcc/native/3.4.1067/avr32-gnu-toolchain/bin/../lib/gcc/avr32/4.4.7/../../../../avr32/lib/ucr3fp\libc.a(lib_a-writer.o)
 .debug_abbrev  0x00005201      0x193 c:/program files (x86)/atmel/atmel toolchain/avr32 gcc/native/3.4.1067/avr32-gnu-toolchain/bin/../lib/gcc/avr32/4.4.7/../../../../avr32/lib/ucr3fp\libc.a(lib_a-callocr.o)
 .debug_abbrev  0x00005394      0x170 c:/program files (x86)/atmel/atmel toolchain/avr32 gcc/native/3.4.1067/avr32-gnu-toolchain/bin/../lib/gcc/avr32/4.4.7/../../../../avr32/lib/ucr3fp\libc.a(lib_a-closer.o)
 .debug_abbrev  0x00005504      0x1a1 c:/program files (x86)/atmel/atmel toolchain/avr32 gcc/native/3.4.1067/avr32-gnu-toolchain/bin/../lib/gcc/avr32/4.4.7/../../../../avr32/lib/ucr3fp\libc.a(lib_a-fclose.o)
 .debug_abbrev  0x000056a5      0x17f c:/program files (x86)/atmel/atmel toolchain/avr32 gcc/native/3.4.1067/avr32-gnu-toolchain/bin/../lib/gcc/avr32/4.4.7/../../../../avr32/lib/ucr3fp\libc.a(lib_a-fstatr.o)
 .debug_abbrev  0x00005824      0x17f c:/program files (x86)/atmel/atmel toolchain/avr32 gcc/native/3.4.1067/avr32-gnu-toolchain/bin/../lib/gcc/avr32/4.4.7/../../../../avr32/lib/ucr3fp\libc.a(lib_a-lseekr.o)
 .debug_abbrev  0x000059a3      0x170 c:/program files (x86)/atmel/atmel toolchain/avr32 gcc/native/3.4.1067/avr32-gnu-toolchain/bin/../lib/gcc/avr32/4.4.7/../../../../avr32/lib/ucr3fp\libc.a(lib_a-readr.o)

.debug_line     0x00000000     0xcbd2
 *(.debug_line)
 .debug_line    0x00000000      0x244 c:/program files (x86)/atmel/atmel toolchain/avr32 gcc/native/3.4.1067/avr32-gnu-toolchain/bin/../lib/gcc/avr32/4.4.7/../../../../avr32/lib/ucr3fp\libm.a(lib_a-s_cos.o)
 .debug_line    0x00000244      0x295 c:/program files (x86)/atmel/atmel toolchain/avr32 gcc/native/3.4.1067/avr32-gnu-toolchain/bin/../lib/gcc/avr32/4.4.7/../../../../avr32/lib/ucr3fp\libm.a(lib_a-s_floor.o)
 .debug_line    0x000004d9      0x245 c:/program files (x86)/atmel/atmel toolchain/avr32 gcc/native/3.4.1067/avr32-gnu-toolchain/bin/../lib/gcc/avr32/4.4.7/../../../../avr32/lib/ucr3fp\libm.a(lib_a-s_sin.o)
 .debug_line    0x0000071e      0x17d c:/program files (x86)/atmel/atmel toolchain/avr32 gcc/native/3.4.1067/avr32-gnu-toolchain/bin/../lib/gcc/avr32/4.4.7/../../../../avr32/lib/ucr3fp\libm.a(lib_a-w_asin.o)
 .debug_line    0x0000089b      0x112 c:/program files (x86)/atmel/atmel toolchain/avr32 gcc/native/3.4.1067/avr32-gnu-toolchain/bin/../lib/gcc/avr32/4.4.7/../../../../avr32/lib/ucr3fp\libm.a(lib_a-w_atan2.o)
 .debug_line    0x000009ad      0x195 c:/program files (x86)/atmel/atmel toolchain/avr32 gcc/native/3.4.1067/avr32-gnu-toolchain/bin/../lib/gcc/avr32/4.4.7/../../../../avr32/lib/ucr3fp\libm.a(lib_a-w_fmod.o)
 .debug_line    0x00000b42      0x31a c:/program files (x86)/atmel/atmel toolchain/avr32 gcc/native/3.4.1067/avr32-gnu-toolchain/bin/../lib/gcc/avr32/4.4.7/../../../../avr32/lib/ucr3fp\libm.a(lib_a-w_pow.o)
 .debug_line    0x00000e5c      0x194 c:/program files (x86)/atmel/atmel toolchain/avr32 gcc/native/3.4.1067/avr32-gnu-toolchain/bin/../lib/gcc/avr32/4.4.7/../../../../avr32/lib/ucr3fp\libm.a(lib_a-w_sqrt.o)
 .debug_line    0x00000ff0      0x18f c:/program files (x86)/atmel/atmel toolchain/avr32 gcc/native/3.4.1067/avr32-gnu-toolchain/bin/../lib/gcc/avr32/4.4.7/../../../../avr32/lib/ucr3fp\libm.a(lib_a-wf_sqrt.o)
 .debug_line    0x0000117f      0x270 c:/program files (x86)/atmel/atmel toolchain/avr32 gcc/native/3.4.1067/avr32-gnu-toolchain/bin/../lib/gcc/avr32/4.4.7/../../../../avr32/lib/ucr3fp\libm.a(lib_a-e_asin.o)
 .debug_line    0x000013ef      0x27c c:/program files (x86)/atmel/atmel toolchain/avr32 gcc/native/3.4.1067/avr32-gnu-toolchain/bin/../lib/gcc/avr32/4.4.7/../../../../avr32/lib/ucr3fp\libm.a(lib_a-e_atan2.o)
 .debug_line    0x0000166b      0x347 c:/program files (x86)/atmel/atmel toolchain/avr32 gcc/native/3.4.1067/avr32-gnu-toolchain/bin/../lib/gcc/avr32/4.4.7/../../../../avr32/lib/ucr3fp\libm.a(lib_a-e_fmod.o)
 .debug_line    0x000019b2      0x5e7 c:/program files (x86)/atmel/atmel toolchain/avr32 gcc/native/3.4.1067/avr32-gnu-toolchain/bin/../lib/gcc/avr32/4.4.7/../../../../avr32/lib/ucr3fp\libm.a(lib_a-e_pow.o)
 .debug_line    0x00001f99      0x3ac c:/program files (x86)/atmel/atmel toolchain/avr32 gcc/native/3.4.1067/avr32-gnu-toolchain/bin/../lib/gcc/avr32/4.4.7/../../../../avr32/lib/ucr3fp\libm.a(lib_a-e_rem_pio2.o)
 .debug_line    0x00002345      0x34e c:/program files (x86)/atmel/atmel toolchain/avr32 gcc/native/3.4.1067/avr32-gnu-toolchain/bin/../lib/gcc/avr32/4.4.7/../../../../avr32/lib/ucr3fp\libm.a(lib_a-e_sqrt.o)
 .debug_line    0x00002693      0x1d1 c:/program files (x86)/atmel/atmel toolchain/avr32 gcc/native/3.4.1067/avr32-gnu-toolchain/bin/../lib/gcc/avr32/4.4.7/../../../../avr32/lib/ucr3fp\libm.a(lib_a-ef_sqrt.o)
 .debug_line    0x00002864      0x1e5 c:/program files (x86)/atmel/atmel toolchain/avr32 gcc/native/3.4.1067/avr32-gnu-toolchain/bin/../lib/gcc/avr32/4.4.7/../../../../avr32/lib/ucr3fp\libm.a(lib_a-k_cos.o)
 .debug_line    0x00002a49      0x4db c:/program files (x86)/atmel/atmel toolchain/avr32 gcc/native/3.4.1067/avr32-gnu-toolchain/bin/../lib/gcc/avr32/4.4.7/../../../../avr32/lib/ucr3fp\libm.a(lib_a-k_rem_pio2.o)
 .debug_line    0x00002f24      0x170 c:/program files (x86)/atmel/atmel toolchain/avr32 gcc/native/3.4.1067/avr32-gnu-toolchain/bin/../lib/gcc/avr32/4.4.7/../../../../avr32/lib/ucr3fp\libm.a(lib_a-k_sin.o)
 .debug_line    0x00003094      0x2c4 c:/program files (x86)/atmel/atmel toolchain/avr32 gcc/native/3.4.1067/avr32-gnu-toolchain/bin/../lib/gcc/avr32/4.4.7/../../../../avr32/lib/ucr3fp\libm.a(lib_a-s_atan.o)
 .debug_line    0x00003358      0x204 c:/program files (x86)/atmel/atmel toolchain/avr32 gcc/native/3.4.1067/avr32-gnu-toolchain/bin/../lib/gcc/avr32/4.4.7/../../../../avr32/lib/ucr3fp\libm.a(lib_a-s_fabs.o)
 .debug_line    0x0000355c      0x19e c:/program files (x86)/atmel/atmel toolchain/avr32 gcc/native/3.4.1067/avr32-gnu-toolchain/bin/../lib/gcc/avr32/4.4.7/../../../../avr32/lib/ucr3fp\libm.a(lib_a-s_finite.o)
 .debug_line    0x000036fa      0x1a5 c:/program files (x86)/atmel/atmel toolchain/avr32 gcc/native/3.4.1067/avr32-gnu-toolchain/bin/../lib/gcc/avr32/4.4.7/../../../../avr32/lib/ucr3fp\libm.a(lib_a-s_isnand.o)
 .debug_line    0x0000389f       0x89 c:/program files (x86)/atmel/atmel toolchain/avr32 gcc/native/3.4.1067/avr32-gnu-toolchain/bin/../lib/gcc/avr32/4.4.7/../../../../avr32/lib/ucr3fp\libm.a(lib_a-s_lib_ver.o)
 .debug_line    0x00003928      0x110 c:/program files (x86)/atmel/atmel toolchain/avr32 gcc/native/3.4.1067/avr32-gnu-toolchain/bin/../lib/gcc/avr32/4.4.7/../../../../avr32/lib/ucr3fp\libm.a(lib_a-s_matherr.o)
 .debug_line    0x00003a38      0x10b c:/program files (x86)/atmel/atmel toolchain/avr32 gcc/native/3.4.1067/avr32-gnu-toolchain/bin/../lib/gcc/avr32/4.4.7/../../../../avr32/lib/ucr3fp\libm.a(lib_a-s_nan.o)
 .debug_line    0x00003b43      0x262 c:/program files (x86)/atmel/atmel toolchain/avr32 gcc/native/3.4.1067/avr32-gnu-toolchain/bin/../lib/gcc/avr32/4.4.7/../../../../avr32/lib/ucr3fp\libm.a(lib_a-s_rint.o)
 .debug_line    0x00003da5      0x21d c:/program files (x86)/atmel/atmel toolchain/avr32 gcc/native/3.4.1067/avr32-gnu-toolchain/bin/../lib/gcc/avr32/4.4.7/../../../../avr32/lib/ucr3fp\libm.a(lib_a-s_scalbn.o)
 .debug_line    0x00003fc2      0x19e c:/program files (x86)/atmel/atmel toolchain/avr32 gcc/native/3.4.1067/avr32-gnu-toolchain/bin/../lib/gcc/avr32/4.4.7/../../../../avr32/lib/ucr3fp\libm.a(lib_a-sf_isnan.o)
 .debug_line    0x00004160      0x1a1 c:/program files (x86)/atmel/atmel toolchain/avr32 gcc/native/3.4.1067/avr32-gnu-toolchain/bin/../lib/gcc/avr32/4.4.7/../../../../avr32/lib/ucr3fp\libm.a(lib_a-s_copysign.o)
 .debug_line    0x00004301       0xba c:/program files (x86)/atmel/atmel toolchain/avr32 gcc/native/3.4.1067/avr32-gnu-toolchain/bin/../lib/gcc/avr32/4.4.7/ucr3fp\libgcc.a(_floatdidf.o)
 .debug_line    0x000043bb      0x230 c:/program files (x86)/atmel/atmel toolchain/avr32 gcc/native/3.4.1067/avr32-gnu-toolchain/bin/../lib/gcc/avr32/4.4.7/ucr3fp\libgcc.a(_divdi3.o)
 .debug_line    0x000045eb      0x248 c:/program files (x86)/atmel/atmel toolchain/avr32 gcc/native/3.4.1067/avr32-gnu-toolchain/bin/../lib/gcc/avr32/4.4.7/ucr3fp\libgcc.a(_moddi3.o)
 .debug_line    0x00004833      0x1d1 c:/program files (x86)/atmel/atmel toolchain/avr32 gcc/native/3.4.1067/avr32-gnu-toolchain/bin/../lib/gcc/avr32/4.4.7/ucr3fp\libgcc.a(_udivdi3.o)
 .debug_line    0x00004a04      0x1ed c:/program files (x86)/atmel/atmel toolchain/avr32 gcc/native/3.4.1067/avr32-gnu-toolchain/bin/../lib/gcc/avr32/4.4.7/ucr3fp\libgcc.a(_umoddi3.o)
 .debug_line    0x00004bf1      0x1c9 c:/program files (x86)/atmel/atmel toolchain/avr32 gcc/native/3.4.1067/avr32-gnu-toolchain/bin/../lib/gcc/avr32/4.4.7/../../../../avr32/lib/ucr3fp\libc.a(lib_a-errno.o)
 .debug_line    0x00004dba      0x1a3 c:/program files (x86)/atmel/atmel toolchain/avr32 gcc/native/3.4.1067/avr32-gnu-toolchain/bin/../lib/gcc/avr32/4.4.7/../../../../avr32/lib/ucr3fp\libc.a(lib_a-impure.o)
 .debug_line    0x00004f5d      0x24c c:/program files (x86)/atmel/atmel toolchain/avr32 gcc/native/3.4.1067/avr32-gnu-toolchain/bin/../lib/gcc/avr32/4.4.7/../../../../avr32/lib/ucr3fp\libc.a(lib_a-malloc.o)
 .debug_line    0x000051a9      0x56c c:/program files (x86)/atmel/atmel toolchain/avr32 gcc/native/3.4.1067/avr32-gnu-toolchain/bin/../lib/gcc/avr32/4.4.7/../../../../avr32/lib/ucr3fp\libc.a(lib_a-mallocr.o)
 .debug_line    0x00005715      0x1b9 c:/program files (x86)/atmel/atmel toolchain/avr32 gcc/native/3.4.1067/avr32-gnu-toolchain/bin/../lib/gcc/avr32/4.4.7/../../../../avr32/lib/ucr3fp\libc.a(lib_a-memset.o)
 .debug_line    0x000058ce      0x1cf c:/program files (x86)/atmel/atmel toolchain/avr32 gcc/native/3.4.1067/avr32-gnu-toolchain/bin/../lib/gcc/avr32/4.4.7/../../../../avr32/lib/ucr3fp\libc.a(lib_a-mlock.o)
 .debug_line    0x00005a9d      0x268 c:/program files (x86)/atmel/atmel toolchain/avr32 gcc/native/3.4.1067/avr32-gnu-toolchain/bin/../lib/gcc/avr32/4.4.7/../../../../avr32/lib/ucr3fp\libc.a(lib_a-rand.o)
 .debug_line    0x00005d05      0x24f c:/program files (x86)/atmel/atmel toolchain/avr32 gcc/native/3.4.1067/avr32-gnu-toolchain/bin/../lib/gcc/avr32/4.4.7/../../../../avr32/lib/ucr3fp\libc.a(lib_a-sbrkr.o)
 .debug_line    0x00005f54      0x2f9 c:/program files (x86)/atmel/atmel toolchain/avr32 gcc/native/3.4.1067/avr32-gnu-toolchain/bin/../lib/gcc/avr32/4.4.7/../../../../avr32/lib/ucr3fp\libc.a(lib_a-snprintf.o)
 .debug_line    0x0000624d      0x11a c:/program files (x86)/atmel/atmel toolchain/avr32 gcc/native/3.4.1067/avr32-gnu-toolchain/bin/../lib/gcc/avr32/4.4.7/../../../../avr32/lib/ucr3fp\libc.a(lib_a-strcpy.o)
 .debug_line    0x00006367      0x1bf c:/program files (x86)/atmel/atmel toolchain/avr32 gcc/native/3.4.1067/avr32-gnu-toolchain/bin/../lib/gcc/avr32/4.4.7/../../../../avr32/lib/ucr3fp\libc.a(lib_a-strlen.o)
 .debug_line    0x00006526      0x586 c:/program files (x86)/atmel/atmel toolchain/avr32 gcc/native/3.4.1067/avr32-gnu-toolchain/bin/../lib/gcc/avr32/4.4.7/../../../../avr32/lib/ucr3fp\libc.a(lib_a-syscalls.o)
 .debug_line    0x00006aac      0xcd8 c:/program files (x86)/atmel/atmel toolchain/avr32 gcc/native/3.4.1067/avr32-gnu-toolchain/bin/../lib/gcc/avr32/4.4.7/../../../../avr32/lib/ucr3fp\libc.a(lib_a-vfprintf.o)
 .debug_line    0x00007784      0x298 c:/program files (x86)/atmel/atmel toolchain/avr32 gcc/native/3.4.1067/avr32-gnu-toolchain/bin/../lib/gcc/avr32/4.4.7/../../../../avr32/lib/ucr3fp\libc.a(lib_a-wsetup.o)
 .debug_line    0x00007a1c      0xc0e c:/program files (x86)/atmel/atmel toolchain/avr32 gcc/native/3.4.1067/avr32-gnu-toolchain/bin/../lib/gcc/avr32/4.4.7/../../../../avr32/lib/ucr3fp\libc.a(lib_a-dtoa.o)
 .debug_line    0x0000862a      0x34c c:/program files (x86)/atmel/atmel toolchain/avr32 gcc/native/3.4.1067/avr32-gnu-toolchain/bin/../lib/gcc/avr32/4.4.7/../../../../avr32/lib/ucr3fp\libc.a(lib_a-fflush.o)
 .debug_line    0x00008976      0x5a4 c:/program files (x86)/atmel/atmel toolchain/avr32 gcc/native/3.4.1067/avr32-gnu-toolchain/bin/../lib/gcc/avr32/4.4.7/../../../../avr32/lib/ucr3fp\libc.a(lib_a-findfp.o)
 .debug_line    0x00008f1a      0x347 c:/program files (x86)/atmel/atmel toolchain/avr32 gcc/native/3.4.1067/avr32-gnu-toolchain/bin/../lib/gcc/avr32/4.4.7/../../../../avr32/lib/ucr3fp\libc.a(lib_a-freer.o)
 .debug_line    0x00009261      0x480 c:/program files (x86)/atmel/atmel toolchain/avr32 gcc/native/3.4.1067/avr32-gnu-toolchain/bin/../lib/gcc/avr32/4.4.7/../../../../avr32/lib/ucr3fp\libc.a(lib_a-fvwrite.o)
 .debug_line    0x000096e1      0x2f1 c:/program files (x86)/atmel/atmel toolchain/avr32 gcc/native/3.4.1067/avr32-gnu-toolchain/bin/../lib/gcc/avr32/4.4.7/../../../../avr32/lib/ucr3fp\libc.a(lib_a-fwalk.o)
 .debug_line    0x000099d2      0x2b6 c:/program files (x86)/atmel/atmel toolchain/avr32 gcc/native/3.4.1067/avr32-gnu-toolchain/bin/../lib/gcc/avr32/4.4.7/../../../../avr32/lib/ucr3fp\libc.a(lib_a-locale.o)
 .debug_line    0x00009c88      0x302 c:/program files (x86)/atmel/atmel toolchain/avr32 gcc/native/3.4.1067/avr32-gnu-toolchain/bin/../lib/gcc/avr32/4.4.7/../../../../avr32/lib/ucr3fp\libc.a(lib_a-makebuf.o)
 .debug_line    0x00009f8a      0x1ba c:/program files (x86)/atmel/atmel toolchain/avr32 gcc/native/3.4.1067/avr32-gnu-toolchain/bin/../lib/gcc/avr32/4.4.7/../../../../avr32/lib/ucr3fp\libc.a(lib_a-memchr.o)
 .debug_line    0x0000a144      0x1cd c:/program files (x86)/atmel/atmel toolchain/avr32 gcc/native/3.4.1067/avr32-gnu-toolchain/bin/../lib/gcc/avr32/4.4.7/../../../../avr32/lib/ucr3fp\libc.a(lib_a-memmove.o)
 .debug_line    0x0000a311      0xd60 c:/program files (x86)/atmel/atmel toolchain/avr32 gcc/native/3.4.1067/avr32-gnu-toolchain/bin/../lib/gcc/avr32/4.4.7/../../../../avr32/lib/ucr3fp\libc.a(lib_a-mprec.o)
 .debug_line    0x0000b071      0x384 c:/program files (x86)/atmel/atmel toolchain/avr32 gcc/native/3.4.1067/avr32-gnu-toolchain/bin/../lib/gcc/avr32/4.4.7/../../../../avr32/lib/ucr3fp\libc.a(lib_a-reallocr.o)
 .debug_line    0x0000b3f5      0x2e7 c:/program files (x86)/atmel/atmel toolchain/avr32 gcc/native/3.4.1067/avr32-gnu-toolchain/bin/../lib/gcc/avr32/4.4.7/../../../../avr32/lib/ucr3fp\libc.a(lib_a-reent.o)
 .debug_line    0x0000b6dc      0x1b0 c:/program files (x86)/atmel/atmel toolchain/avr32 gcc/native/3.4.1067/avr32-gnu-toolchain/bin/../lib/gcc/avr32/4.4.7/../../../../avr32/lib/ucr3fp\libc.a(lib_a-s_isinfd.o)
 .debug_line    0x0000b88c      0x2fa c:/program files (x86)/atmel/atmel toolchain/avr32 gcc/native/3.4.1067/avr32-gnu-toolchain/bin/../lib/gcc/avr32/4.4.7/../../../../avr32/lib/ucr3fp\libc.a(lib_a-stdio.o)
 .debug_line    0x0000bb86      0x25c c:/program files (x86)/atmel/atmel toolchain/avr32 gcc/native/3.4.1067/avr32-gnu-toolchain/bin/../lib/gcc/avr32/4.4.7/../../../../avr32/lib/ucr3fp\libc.a(lib_a-writer.o)
 .debug_line    0x0000bde2      0x1ce c:/program files (x86)/atmel/atmel toolchain/avr32 gcc/native/3.4.1067/avr32-gnu-toolchain/bin/../lib/gcc/avr32/4.4.7/../../../../avr32/lib/ucr3fp\libc.a(lib_a-callocr.o)
 .debug_line    0x0000bfb0      0x250 c:/program files (x86)/atmel/atmel toolchain/avr32 gcc/native/3.4.1067/avr32-gnu-toolchain/bin/../lib/gcc/avr32/4.4.7/../../../../avr32/lib/ucr3fp\libc.a(lib_a-closer.o)
 .debug_line    0x0000c200      0x2b6 c:/program files (x86)/atmel/atmel toolchain/avr32 gcc/native/3.4.1067/avr32-gnu-toolchain/bin/../lib/gcc/avr32/4.4.7/../../../../avr32/lib/ucr3fp\libc.a(lib_a-fclose.o)
 .debug_line    0x0000c4b6      0x265 c:/program files (x86)/atmel/atmel toolchain/avr32 gcc/native/3.4.1067/avr32-gnu-toolchain/bin/../lib/gcc/avr32/4.4.7/../../../../avr32/lib/ucr3fp\libc.a(lib_a-fstatr.o)
 .debug_line    0x0000c71b      0x25c c:/program files (x86)/atmel/atmel toolchain/avr32 gcc/native/3.4.1067/avr32-gnu-toolchain/bin/../lib/gcc/avr32/4.4.7/../../../../avr32/lib/ucr3fp\libc.a(lib_a-lseekr.o)
 .debug_line    0x0000c977      0x25b c:/program files (x86)/atmel/atmel toolchain/avr32 gcc/native/3.4.1067/avr32-gnu-toolchain/bin/../lib/gcc/avr32/4.4.7/../../../../avr32/lib/ucr3fp\libc.a(lib_a-readr.o)

.debug_frame    0x00000000     0x9260
 *(.debug_frame)
 .debug_frame   0x00000000       0x64 Library/communication/console.o
 .debug_frame   0x00000064      0x2c8 Library/communication/data_logging.o
 .debug_frame   0x0000032c       0x4c Library/communication/data_logging_telemetry.o
 .debug_frame   0x00000378       0x60 Library/communication/hud_telemetry.o
 .debug_frame   0x000003d8      0x114 Library/communication/mavlink_communication.o
 .debug_frame   0x000004ec       0xd4 Library/communication/mavlink_message_handler.o
 .debug_frame   0x000005c0      0x414 Library/communication/mavlink_waypoint_handler.o
 .debug_frame   0x000009d4       0x70 Library/communication/neighbor_selection.o
 .debug_frame   0x00000a44      0x148 Library/communication/remote.o
 .debug_frame   0x00000b8c       0xb0 Library/communication/remote_telemetry.o
 .debug_frame   0x00000c3c       0x48 Library/communication/state.o
 .debug_frame   0x00000c84       0x58 Library/communication/state_machine.o
 .debug_frame   0x00000cdc       0xf8 Library/communication/state_telemetry.o
 .debug_frame   0x00000dd4       0xdc Library/control/joystick_parsing.o
 .debug_frame   0x00000eb0       0x88 Library/control/joystick_parsing_telemetry.o
 .debug_frame   0x00000f38       0xd0 Library/control/kalman_predictor.o
 .debug_frame   0x00001008       0xc8 Library/control/pid_control.o
 .debug_frame   0x000010d0       0x44 Library/control/servos_mix_quadcopter_cross.o
 .debug_frame   0x00001114       0x44 Library/control/servos_mix_quadcopter_diag.o
 .debug_frame   0x00001158      0x11c Library/control/stabilisation_copter.o
 .debug_frame   0x00001274       0xcc Library/control/stabilisation_telemetry.o
 .debug_frame   0x00001340      0x114 Library/control/track_following.o
 .debug_frame   0x00001454       0x3c Library/hal/analog_monitor_telemetry.o
 .debug_frame   0x00001490       0x98 Library/hal/analog_monitor.o
 .debug_frame   0x00001528       0x3c Library/hal/bmp085_telemetry.o
 .debug_frame   0x00001564       0xc4 Library/hal/fat_fs/diskio.o
 .debug_frame   0x00001628      0x764 Library/hal/fat_fs/ff.o
 .debug_frame   0x00001d8c       0x40 Library/hal/fat_fs/option/ccsbcs.o
 .debug_frame   0x00001dcc       0x48 Library/hal/fat_fs/option/syscall.o
 .debug_frame   0x00001e14      0x1d4 Library/hal/gps_ublox.o
 .debug_frame   0x00001fe8       0x44 Library/hal/gps_ublox_telemetry.o
 .debug_frame   0x0000202c       0x4c Library/hal/hmc5883l.o
 .debug_frame   0x00002078       0x74 Library/hal/i2c_driver_int.o
 .debug_frame   0x000020ec      0x118 Library/hal/lsm330dlc.o
 .debug_frame   0x00002204      0x120 Library/hal/piezo_speaker.o
 .debug_frame   0x00002324       0x6c Library/hal/pwm_servos.o
 .debug_frame   0x00002390      0x340 Library/hal/sd_spi.o
 .debug_frame   0x000026d0       0x68 Library/hal/servos.o
 .debug_frame   0x00002738       0x44 Library/hal/servos_telemetry.o
 .debug_frame   0x0000277c      0x10c Library/hal/spektrum_satellite.o
 .debug_frame   0x00002888       0xf0 Library/hal/time_keeper.o
 .debug_frame   0x00002978       0xa0 Library/hal/usb_int.o
 .debug_frame   0x00002a18       0x64 Library/hal/xbee.o
 .debug_frame   0x00002a7c       0x44 Library/runtime/scheduler_telemetry.o
 .debug_frame   0x00002ac0       0x2c Library/sensing/ahrs.o
 .debug_frame   0x00002aec       0x80 Library/sensing/ahrs_telemetry.o
 .debug_frame   0x00002b6c       0xbc Library/sensing/imu_telemetry.o
 .debug_frame   0x00002c28       0xf4 Library/sensing/position_estimation.o
 .debug_frame   0x00002d1c       0xd8 Library/sensing/position_estimation_telemetry.o
 .debug_frame   0x00002df4       0x60 Library/sensing/qfilter.o
 .debug_frame   0x00002e54       0xf0 Library/sensing/simulation_telemetry.o
 .debug_frame   0x00002f44       0xa0 Library/util/linear_algebra.o
 .debug_frame   0x00002fe4      0x1e8 Library/util/matrixlib_float.o
 .debug_frame   0x000031cc       0xc8 Library/util/quick_trig.o
 .debug_frame   0x00003294       0xcc src/central_data.o
 .debug_frame   0x00003360      0x1a0 src/mavlink_telemetry.o
 .debug_frame   0x00003500       0xe8 src/simu_gps_track.o
 .debug_frame   0x000035e8      0x180 src/tasks.o
 .debug_frame   0x00003768       0x98 Library/communication/mavlink_stream.o
 .debug_frame   0x00003800      0x1e0 Library/communication/onboard_parameters.o
 .debug_frame   0x000039e0      0x228 Library/control/navigation.o
 .debug_frame   0x00003c08       0x58 Library/control/stabilisation.o
 .debug_frame   0x00003c60      0x15c Library/hal/adc_int.o
 .debug_frame   0x00003dbc      0x110 Library/hal/ads1274.o
 .debug_frame   0x00003ecc       0xb4 Library/hal/bmp085.o
 .debug_frame   0x00003f80      0x108 Library/hal/dac_dma.o
 .debug_frame   0x00004088      0x128 Library/hal/led.o
 .debug_frame   0x000041b0      0x2a4 Library/hal/spi_buffered.o
 .debug_frame   0x00004454      0x1c8 Library/hal/uart_int.o
 .debug_frame   0x0000461c      0x158 Library/runtime/scheduler.o
 .debug_frame   0x00004774       0x84 Library/sensing/imu.o
 .debug_frame   0x000047f8      0x1d8 Library/sensing/simulation.o
 .debug_frame   0x000049d0       0xd8 Library/util/buffer.o
 .debug_frame   0x00004aa8      0x10c Library/util/coord_conventions.o
 .debug_frame   0x00004bb4       0x80 Library/util/generator.o
 .debug_frame   0x00004c34      0x298 Library/util/print_util.o
 .debug_frame   0x00004ecc      0x114 src/asf/avr32/drivers/adcifa/adcifa.o
 .debug_frame   0x00004fe0      0x1f8 src/asf/avr32/drivers/ast/ast.o
 .debug_frame   0x000051d8       0xb4 src/asf/avr32/drivers/dacifb/dacifb.o
 .debug_frame   0x0000528c      0x100 src/asf/avr32/drivers/eic/eic.o
 .debug_frame   0x0000538c      0x754 src/asf/avr32/drivers/flashc/flashc.o
 .debug_frame   0x00005ae0      0x254 src/asf/avr32/drivers/gpio/gpio.o
 .debug_frame   0x00005d34       0x78 src/asf/avr32/drivers/intc/intc.o
 .debug_frame   0x00005dac      0x244 src/asf/avr32/drivers/pdca/pdca.o
 .debug_frame   0x00005ff0      0x14c src/asf/avr32/drivers/pevc/pevc.o
 .debug_frame   0x0000613c       0x90 src/asf/avr32/drivers/pm/pm_uc3c.o
 .debug_frame   0x000061cc       0xc8 src/asf/avr32/drivers/pm/power_clocks_lib.o
 .debug_frame   0x00006294      0x200 src/asf/avr32/drivers/pwm/pwm4.o
 .debug_frame   0x00006494      0x31c src/asf/avr32/drivers/scif/scif_uc3c.o
 .debug_frame   0x000067b0      0x160 src/asf/avr32/drivers/spi/spi.o
 .debug_frame   0x00006910      0x148 src/asf/avr32/drivers/tc/tc.o
 .debug_frame   0x00006a58      0x184 src/asf/avr32/drivers/twim/twim.o
 .debug_frame   0x00006bdc      0x2e4 src/asf/avr32/drivers/usart/usart.o
 .debug_frame   0x00006ec0      0x308 src/asf/avr32/drivers/usbc/usbc_device.o
 .debug_frame   0x000071c8       0x48 src/asf/avr32/services/delay/delay.o
 .debug_frame   0x00007210       0x2c src/asf/common/boards/user_board/init.o
 .debug_frame   0x0000723c       0x90 src/asf/common/services/clock/uc3c/osc.o
 .debug_frame   0x000072cc       0x40 src/asf/common/services/clock/uc3c/pll.o
 .debug_frame   0x0000730c       0xb8 src/asf/common/services/clock/uc3c/sysclk.o
 .debug_frame   0x000073c4       0x68 src/asf/common/services/spi/uc3_spi/spi_master.o
 .debug_frame   0x0000742c      0x328 src/asf/common/services/usb/class/cdc/device/udi_cdc.o
 .debug_frame   0x00007754      0x14c src/asf/common/services/usb/udc/udc.o
 .debug_frame   0x000078a0       0x40 src/asf/common/utils/stdio/read.o
 .debug_frame   0x000078e0       0xb0 src/asf/common/utils/stdio/stdio_usb/stdio_usb.o
 .debug_frame   0x00007990       0x38 src/asf/common/utils/stdio/write.o
 .debug_frame   0x000079c8       0x30 src/boardsupport.o
 .debug_frame   0x000079f8       0x48 src/main.o
 .debug_frame   0x00007a40       0x38 c:/program files (x86)/atmel/atmel toolchain/avr32 gcc/native/3.4.1067/avr32-gnu-toolchain/bin/../lib/gcc/avr32/4.4.7/../../../../avr32/lib/ucr3fp\libm.a(lib_a-s_cos.o)
 .debug_frame   0x00007a78       0x40 c:/program files (x86)/atmel/atmel toolchain/avr32 gcc/native/3.4.1067/avr32-gnu-toolchain/bin/../lib/gcc/avr32/4.4.7/../../../../avr32/lib/ucr3fp\libm.a(lib_a-s_floor.o)
 .debug_frame   0x00007ab8       0x38 c:/program files (x86)/atmel/atmel toolchain/avr32 gcc/native/3.4.1067/avr32-gnu-toolchain/bin/../lib/gcc/avr32/4.4.7/../../../../avr32/lib/ucr3fp\libm.a(lib_a-s_sin.o)
 .debug_frame   0x00007af0       0x44 c:/program files (x86)/atmel/atmel toolchain/avr32 gcc/native/3.4.1067/avr32-gnu-toolchain/bin/../lib/gcc/avr32/4.4.7/../../../../avr32/lib/ucr3fp\libm.a(lib_a-w_asin.o)
 .debug_frame   0x00007b34       0x28 c:/program files (x86)/atmel/atmel toolchain/avr32 gcc/native/3.4.1067/avr32-gnu-toolchain/bin/../lib/gcc/avr32/4.4.7/../../../../avr32/lib/ucr3fp\libm.a(lib_a-w_atan2.o)
 .debug_frame   0x00007b5c       0x44 c:/program files (x86)/atmel/atmel toolchain/avr32 gcc/native/3.4.1067/avr32-gnu-toolchain/bin/../lib/gcc/avr32/4.4.7/../../../../avr32/lib/ucr3fp\libm.a(lib_a-w_fmod.o)
 .debug_frame   0x00007ba0       0x44 c:/program files (x86)/atmel/atmel toolchain/avr32 gcc/native/3.4.1067/avr32-gnu-toolchain/bin/../lib/gcc/avr32/4.4.7/../../../../avr32/lib/ucr3fp\libm.a(lib_a-w_pow.o)
 .debug_frame   0x00007be4       0x44 c:/program files (x86)/atmel/atmel toolchain/avr32 gcc/native/3.4.1067/avr32-gnu-toolchain/bin/../lib/gcc/avr32/4.4.7/../../../../avr32/lib/ucr3fp\libm.a(lib_a-w_sqrt.o)
 .debug_frame   0x00007c28       0x38 c:/program files (x86)/atmel/atmel toolchain/avr32 gcc/native/3.4.1067/avr32-gnu-toolchain/bin/../lib/gcc/avr32/4.4.7/../../../../avr32/lib/ucr3fp\libm.a(lib_a-wf_sqrt.o)
 .debug_frame   0x00007c60       0x44 c:/program files (x86)/atmel/atmel toolchain/avr32 gcc/native/3.4.1067/avr32-gnu-toolchain/bin/../lib/gcc/avr32/4.4.7/../../../../avr32/lib/ucr3fp\libm.a(lib_a-e_asin.o)
 .debug_frame   0x00007ca4       0x44 c:/program files (x86)/atmel/atmel toolchain/avr32 gcc/native/3.4.1067/avr32-gnu-toolchain/bin/../lib/gcc/avr32/4.4.7/../../../../avr32/lib/ucr3fp\libm.a(lib_a-e_atan2.o)
 .debug_frame   0x00007ce8       0x40 c:/program files (x86)/atmel/atmel toolchain/avr32 gcc/native/3.4.1067/avr32-gnu-toolchain/bin/../lib/gcc/avr32/4.4.7/../../../../avr32/lib/ucr3fp\libm.a(lib_a-e_fmod.o)
 .debug_frame   0x00007d28       0x44 c:/program files (x86)/atmel/atmel toolchain/avr32 gcc/native/3.4.1067/avr32-gnu-toolchain/bin/../lib/gcc/avr32/4.4.7/../../../../avr32/lib/ucr3fp\libm.a(lib_a-e_pow.o)
 .debug_frame   0x00007d6c       0x4c c:/program files (x86)/atmel/atmel toolchain/avr32 gcc/native/3.4.1067/avr32-gnu-toolchain/bin/../lib/gcc/avr32/4.4.7/../../../../avr32/lib/ucr3fp\libm.a(lib_a-e_rem_pio2.o)
 .debug_frame   0x00007db8       0x40 c:/program files (x86)/atmel/atmel toolchain/avr32 gcc/native/3.4.1067/avr32-gnu-toolchain/bin/../lib/gcc/avr32/4.4.7/../../../../avr32/lib/ucr3fp\libm.a(lib_a-e_sqrt.o)
 .debug_frame   0x00007df8       0x34 c:/program files (x86)/atmel/atmel toolchain/avr32 gcc/native/3.4.1067/avr32-gnu-toolchain/bin/../lib/gcc/avr32/4.4.7/../../../../avr32/lib/ucr3fp\libm.a(lib_a-ef_sqrt.o)
 .debug_frame   0x00007e2c       0x44 c:/program files (x86)/atmel/atmel toolchain/avr32 gcc/native/3.4.1067/avr32-gnu-toolchain/bin/../lib/gcc/avr32/4.4.7/../../../../avr32/lib/ucr3fp\libm.a(lib_a-k_cos.o)
 .debug_frame   0x00007e70       0x44 c:/program files (x86)/atmel/atmel toolchain/avr32 gcc/native/3.4.1067/avr32-gnu-toolchain/bin/../lib/gcc/avr32/4.4.7/../../../../avr32/lib/ucr3fp\libm.a(lib_a-k_rem_pio2.o)
 .debug_frame   0x00007eb4       0x44 c:/program files (x86)/atmel/atmel toolchain/avr32 gcc/native/3.4.1067/avr32-gnu-toolchain/bin/../lib/gcc/avr32/4.4.7/../../../../avr32/lib/ucr3fp\libm.a(lib_a-k_sin.o)
 .debug_frame   0x00007ef8       0x44 c:/program files (x86)/atmel/atmel toolchain/avr32 gcc/native/3.4.1067/avr32-gnu-toolchain/bin/../lib/gcc/avr32/4.4.7/../../../../avr32/lib/ucr3fp\libm.a(lib_a-s_atan.o)
 .debug_frame   0x00007f3c       0x20 c:/program files (x86)/atmel/atmel toolchain/avr32 gcc/native/3.4.1067/avr32-gnu-toolchain/bin/../lib/gcc/avr32/4.4.7/../../../../avr32/lib/ucr3fp\libm.a(lib_a-s_fabs.o)
 .debug_frame   0x00007f5c       0x20 c:/program files (x86)/atmel/atmel toolchain/avr32 gcc/native/3.4.1067/avr32-gnu-toolchain/bin/../lib/gcc/avr32/4.4.7/../../../../avr32/lib/ucr3fp\libm.a(lib_a-s_finite.o)
 .debug_frame   0x00007f7c       0x20 c:/program files (x86)/atmel/atmel toolchain/avr32 gcc/native/3.4.1067/avr32-gnu-toolchain/bin/../lib/gcc/avr32/4.4.7/../../../../avr32/lib/ucr3fp\libm.a(lib_a-s_isnand.o)
 .debug_frame   0x00007f9c       0x20 c:/program files (x86)/atmel/atmel toolchain/avr32 gcc/native/3.4.1067/avr32-gnu-toolchain/bin/../lib/gcc/avr32/4.4.7/../../../../avr32/lib/ucr3fp\libm.a(lib_a-s_matherr.o)
 .debug_frame   0x00007fbc       0x20 c:/program files (x86)/atmel/atmel toolchain/avr32 gcc/native/3.4.1067/avr32-gnu-toolchain/bin/../lib/gcc/avr32/4.4.7/../../../../avr32/lib/ucr3fp\libm.a(lib_a-s_nan.o)
 .debug_frame   0x00007fdc       0x38 c:/program files (x86)/atmel/atmel toolchain/avr32 gcc/native/3.4.1067/avr32-gnu-toolchain/bin/../lib/gcc/avr32/4.4.7/../../../../avr32/lib/ucr3fp\libm.a(lib_a-s_rint.o)
 .debug_frame   0x00008014       0x34 c:/program files (x86)/atmel/atmel toolchain/avr32 gcc/native/3.4.1067/avr32-gnu-toolchain/bin/../lib/gcc/avr32/4.4.7/../../../../avr32/lib/ucr3fp\libm.a(lib_a-s_scalbn.o)
 .debug_frame   0x00008048       0x20 c:/program files (x86)/atmel/atmel toolchain/avr32 gcc/native/3.4.1067/avr32-gnu-toolchain/bin/../lib/gcc/avr32/4.4.7/../../../../avr32/lib/ucr3fp\libm.a(lib_a-sf_isnan.o)
 .debug_frame   0x00008068       0x34 c:/program files (x86)/atmel/atmel toolchain/avr32 gcc/native/3.4.1067/avr32-gnu-toolchain/bin/../lib/gcc/avr32/4.4.7/../../../../avr32/lib/ucr3fp\libm.a(lib_a-s_copysign.o)
 .debug_frame   0x0000809c       0x34 c:/program files (x86)/atmel/atmel toolchain/avr32 gcc/native/3.4.1067/avr32-gnu-toolchain/bin/../lib/gcc/avr32/4.4.7/ucr3fp\libgcc.a(_floatdidf.o)
 .debug_frame   0x000080d0       0x44 c:/program files (x86)/atmel/atmel toolchain/avr32 gcc/native/3.4.1067/avr32-gnu-toolchain/bin/../lib/gcc/avr32/4.4.7/ucr3fp\libgcc.a(_divdi3.o)
 .debug_frame   0x00008114       0x44 c:/program files (x86)/atmel/atmel toolchain/avr32 gcc/native/3.4.1067/avr32-gnu-toolchain/bin/../lib/gcc/avr32/4.4.7/ucr3fp\libgcc.a(_moddi3.o)
 .debug_frame   0x00008158       0x44 c:/program files (x86)/atmel/atmel toolchain/avr32 gcc/native/3.4.1067/avr32-gnu-toolchain/bin/../lib/gcc/avr32/4.4.7/ucr3fp\libgcc.a(_udivdi3.o)
 .debug_frame   0x0000819c       0x44 c:/program files (x86)/atmel/atmel toolchain/avr32 gcc/native/3.4.1067/avr32-gnu-toolchain/bin/../lib/gcc/avr32/4.4.7/ucr3fp\libgcc.a(_umoddi3.o)
 .debug_frame   0x000081e0       0x20 c:/program files (x86)/atmel/atmel toolchain/avr32 gcc/native/3.4.1067/avr32-gnu-toolchain/bin/../lib/gcc/avr32/4.4.7/../../../../avr32/lib/ucr3fp\libc.a(lib_a-errno.o)
 .debug_frame   0x00008200       0x40 c:/program files (x86)/atmel/atmel toolchain/avr32 gcc/native/3.4.1067/avr32-gnu-toolchain/bin/../lib/gcc/avr32/4.4.7/../../../../avr32/lib/ucr3fp\libc.a(lib_a-malloc.o)
 .debug_frame   0x00008240       0x40 c:/program files (x86)/atmel/atmel toolchain/avr32 gcc/native/3.4.1067/avr32-gnu-toolchain/bin/../lib/gcc/avr32/4.4.7/../../../../avr32/lib/ucr3fp\libc.a(lib_a-mallocr.o)
 .debug_frame   0x00008280       0x20 c:/program files (x86)/atmel/atmel toolchain/avr32 gcc/native/3.4.1067/avr32-gnu-toolchain/bin/../lib/gcc/avr32/4.4.7/../../../../avr32/lib/ucr3fp\libc.a(lib_a-memset.o)
 .debug_frame   0x000082a0       0x30 c:/program files (x86)/atmel/atmel toolchain/avr32 gcc/native/3.4.1067/avr32-gnu-toolchain/bin/../lib/gcc/avr32/4.4.7/../../../../avr32/lib/ucr3fp\libc.a(lib_a-mlock.o)
 .debug_frame   0x000082d0       0x58 c:/program files (x86)/atmel/atmel toolchain/avr32 gcc/native/3.4.1067/avr32-gnu-toolchain/bin/../lib/gcc/avr32/4.4.7/../../../../avr32/lib/ucr3fp\libc.a(lib_a-rand.o)
 .debug_frame   0x00008328       0x34 c:/program files (x86)/atmel/atmel toolchain/avr32 gcc/native/3.4.1067/avr32-gnu-toolchain/bin/../lib/gcc/avr32/4.4.7/../../../../avr32/lib/ucr3fp\libc.a(lib_a-sbrkr.o)
 .debug_frame   0x0000835c       0x60 c:/program files (x86)/atmel/atmel toolchain/avr32 gcc/native/3.4.1067/avr32-gnu-toolchain/bin/../lib/gcc/avr32/4.4.7/../../../../avr32/lib/ucr3fp\libc.a(lib_a-snprintf.o)
 .debug_frame   0x000083bc       0x20 c:/program files (x86)/atmel/atmel toolchain/avr32 gcc/native/3.4.1067/avr32-gnu-toolchain/bin/../lib/gcc/avr32/4.4.7/../../../../avr32/lib/ucr3fp\libc.a(lib_a-strcpy.o)
 .debug_frame   0x000083dc       0x20 c:/program files (x86)/atmel/atmel toolchain/avr32 gcc/native/3.4.1067/avr32-gnu-toolchain/bin/../lib/gcc/avr32/4.4.7/../../../../avr32/lib/ucr3fp\libc.a(lib_a-strlen.o)
 .debug_frame   0x000083fc      0x220 c:/program files (x86)/atmel/atmel toolchain/avr32 gcc/native/3.4.1067/avr32-gnu-toolchain/bin/../lib/gcc/avr32/4.4.7/../../../../avr32/lib/ucr3fp\libc.a(lib_a-syscalls.o)
 .debug_frame   0x0000861c      0x258 c:/program files (x86)/atmel/atmel toolchain/avr32 gcc/native/3.4.1067/avr32-gnu-toolchain/bin/../lib/gcc/avr32/4.4.7/../../../../avr32/lib/ucr3fp\libc.a(lib_a-vfprintf.o)
 .debug_frame   0x00008874       0x34 c:/program files (x86)/atmel/atmel toolchain/avr32 gcc/native/3.4.1067/avr32-gnu-toolchain/bin/../lib/gcc/avr32/4.4.7/../../../../avr32/lib/ucr3fp\libc.a(lib_a-wsetup.o)
 .debug_frame   0x000088a8       0x78 c:/program files (x86)/atmel/atmel toolchain/avr32 gcc/native/3.4.1067/avr32-gnu-toolchain/bin/../lib/gcc/avr32/4.4.7/../../../../avr32/lib/ucr3fp\libc.a(lib_a-dtoa.o)
 .debug_frame   0x00008920       0x4c c:/program files (x86)/atmel/atmel toolchain/avr32 gcc/native/3.4.1067/avr32-gnu-toolchain/bin/../lib/gcc/avr32/4.4.7/../../../../avr32/lib/ucr3fp\libc.a(lib_a-fflush.o)
 .debug_frame   0x0000896c      0x13c c:/program files (x86)/atmel/atmel toolchain/avr32 gcc/native/3.4.1067/avr32-gnu-toolchain/bin/../lib/gcc/avr32/4.4.7/../../../../avr32/lib/ucr3fp\libc.a(lib_a-findfp.o)
 .debug_frame   0x00008aa8       0x58 c:/program files (x86)/atmel/atmel toolchain/avr32 gcc/native/3.4.1067/avr32-gnu-toolchain/bin/../lib/gcc/avr32/4.4.7/../../../../avr32/lib/ucr3fp\libc.a(lib_a-freer.o)
 .debug_frame   0x00008b00       0x44 c:/program files (x86)/atmel/atmel toolchain/avr32 gcc/native/3.4.1067/avr32-gnu-toolchain/bin/../lib/gcc/avr32/4.4.7/../../../../avr32/lib/ucr3fp\libc.a(lib_a-fvwrite.o)
 .debug_frame   0x00008b44       0x70 c:/program files (x86)/atmel/atmel toolchain/avr32 gcc/native/3.4.1067/avr32-gnu-toolchain/bin/../lib/gcc/avr32/4.4.7/../../../../avr32/lib/ucr3fp\libc.a(lib_a-fwalk.o)
 .debug_frame   0x00008bb4       0x7c c:/program files (x86)/atmel/atmel toolchain/avr32 gcc/native/3.4.1067/avr32-gnu-toolchain/bin/../lib/gcc/avr32/4.4.7/../../../../avr32/lib/ucr3fp\libc.a(lib_a-locale.o)
 .debug_frame   0x00008c30       0x38 c:/program files (x86)/atmel/atmel toolchain/avr32 gcc/native/3.4.1067/avr32-gnu-toolchain/bin/../lib/gcc/avr32/4.4.7/../../../../avr32/lib/ucr3fp\libc.a(lib_a-makebuf.o)
 .debug_frame   0x00008c68       0x20 c:/program files (x86)/atmel/atmel toolchain/avr32 gcc/native/3.4.1067/avr32-gnu-toolchain/bin/../lib/gcc/avr32/4.4.7/../../../../avr32/lib/ucr3fp\libc.a(lib_a-memchr.o)
 .debug_frame   0x00008c88       0x28 c:/program files (x86)/atmel/atmel toolchain/avr32 gcc/native/3.4.1067/avr32-gnu-toolchain/bin/../lib/gcc/avr32/4.4.7/../../../../avr32/lib/ucr3fp\libc.a(lib_a-memmove.o)
 .debug_frame   0x00008cb0      0x2b4 c:/program files (x86)/atmel/atmel toolchain/avr32 gcc/native/3.4.1067/avr32-gnu-toolchain/bin/../lib/gcc/avr32/4.4.7/../../../../avr32/lib/ucr3fp\libc.a(lib_a-mprec.o)
 .debug_frame   0x00008f64       0x44 c:/program files (x86)/atmel/atmel toolchain/avr32 gcc/native/3.4.1067/avr32-gnu-toolchain/bin/../lib/gcc/avr32/4.4.7/../../../../avr32/lib/ucr3fp\libc.a(lib_a-reallocr.o)
 .debug_frame   0x00008fa8       0x80 c:/program files (x86)/atmel/atmel toolchain/avr32 gcc/native/3.4.1067/avr32-gnu-toolchain/bin/../lib/gcc/avr32/4.4.7/../../../../avr32/lib/ucr3fp\libc.a(lib_a-reent.o)
 .debug_frame   0x00009028       0x20 c:/program files (x86)/atmel/atmel toolchain/avr32 gcc/native/3.4.1067/avr32-gnu-toolchain/bin/../lib/gcc/avr32/4.4.7/../../../../avr32/lib/ucr3fp\libc.a(lib_a-s_isinfd.o)
 .debug_frame   0x00009048       0x94 c:/program files (x86)/atmel/atmel toolchain/avr32 gcc/native/3.4.1067/avr32-gnu-toolchain/bin/../lib/gcc/avr32/4.4.7/../../../../avr32/lib/ucr3fp\libc.a(lib_a-stdio.o)
 .debug_frame   0x000090dc       0x34 c:/program files (x86)/atmel/atmel toolchain/avr32 gcc/native/3.4.1067/avr32-gnu-toolchain/bin/../lib/gcc/avr32/4.4.7/../../../../avr32/lib/ucr3fp\libc.a(lib_a-writer.o)
 .debug_frame   0x00009110       0x34 c:/program files (x86)/atmel/atmel toolchain/avr32 gcc/native/3.4.1067/avr32-gnu-toolchain/bin/../lib/gcc/avr32/4.4.7/../../../../avr32/lib/ucr3fp\libc.a(lib_a-callocr.o)
 .debug_frame   0x00009144       0x34 c:/program files (x86)/atmel/atmel toolchain/avr32 gcc/native/3.4.1067/avr32-gnu-toolchain/bin/../lib/gcc/avr32/4.4.7/../../../../avr32/lib/ucr3fp\libc.a(lib_a-closer.o)
 .debug_frame   0x00009178       0x4c c:/program files (x86)/atmel/atmel toolchain/avr32 gcc/native/3.4.1067/avr32-gnu-toolchain/bin/../lib/gcc/avr32/4.4.7/../../../../avr32/lib/ucr3fp\libc.a(lib_a-fclose.o)
 .debug_frame   0x000091c4       0x34 c:/program files (x86)/atmel/atmel toolchain/avr32 gcc/native/3.4.1067/avr32-gnu-toolchain/bin/../lib/gcc/avr32/4.4.7/../../../../avr32/lib/ucr3fp\libc.a(lib_a-fstatr.o)
 .debug_frame   0x000091f8       0x34 c:/program files (x86)/atmel/atmel toolchain/avr32 gcc/native/3.4.1067/avr32-gnu-toolchain/bin/../lib/gcc/avr32/4.4.7/../../../../avr32/lib/ucr3fp\libc.a(lib_a-lseekr.o)
 .debug_frame   0x0000922c       0x34 c:/program files (x86)/atmel/atmel toolchain/avr32 gcc/native/3.4.1067/avr32-gnu-toolchain/bin/../lib/gcc/avr32/4.4.7/../../../../avr32/lib/ucr3fp\libc.a(lib_a-readr.o)

.debug_str      0x00000000     0x30f5
 *(.debug_str)
 .debug_str     0x00000000      0x106 c:/program files (x86)/atmel/atmel toolchain/avr32 gcc/native/3.4.1067/avr32-gnu-toolchain/bin/../lib/gcc/avr32/4.4.7/../../../../avr32/lib/ucr3fp\libm.a(lib_a-s_cos.o)
                                0x152 (size before relaxing)
 .debug_str     0x00000106       0x7e c:/program files (x86)/atmel/atmel toolchain/avr32 gcc/native/3.4.1067/avr32-gnu-toolchain/bin/../lib/gcc/avr32/4.4.7/../../../../avr32/lib/ucr3fp\libm.a(lib_a-s_floor.o)
                                0x164 (size before relaxing)
 .debug_str     0x00000184       0x67 c:/program files (x86)/atmel/atmel toolchain/avr32 gcc/native/3.4.1067/avr32-gnu-toolchain/bin/../lib/gcc/avr32/4.4.7/../../../../avr32/lib/ucr3fp\libm.a(lib_a-s_sin.o)
                                0x152 (size before relaxing)
 .debug_str     0x000001eb       0xde c:/program files (x86)/atmel/atmel toolchain/avr32 gcc/native/3.4.1067/avr32-gnu-toolchain/bin/../lib/gcc/avr32/4.4.7/../../../../avr32/lib/ucr3fp\libm.a(lib_a-w_asin.o)
                                0x19b (size before relaxing)
 .debug_str     0x000002c9       0x69 c:/program files (x86)/atmel/atmel toolchain/avr32 gcc/native/3.4.1067/avr32-gnu-toolchain/bin/../lib/gcc/avr32/4.4.7/../../../../avr32/lib/ucr3fp\libm.a(lib_a-w_atan2.o)
                                0x11d (size before relaxing)
 .debug_str     0x00000332       0x68 c:/program files (x86)/atmel/atmel toolchain/avr32 gcc/native/3.4.1067/avr32-gnu-toolchain/bin/../lib/gcc/avr32/4.4.7/../../../../avr32/lib/ucr3fp\libm.a(lib_a-w_fmod.o)
                                0x19b (size before relaxing)
 .debug_str     0x0000039a       0x67 c:/program files (x86)/atmel/atmel toolchain/avr32 gcc/native/3.4.1067/avr32-gnu-toolchain/bin/../lib/gcc/avr32/4.4.7/../../../../avr32/lib/ucr3fp\libm.a(lib_a-w_pow.o)
                                0x195 (size before relaxing)
 .debug_str     0x00000401       0x68 c:/program files (x86)/atmel/atmel toolchain/avr32 gcc/native/3.4.1067/avr32-gnu-toolchain/bin/../lib/gcc/avr32/4.4.7/../../../../avr32/lib/ucr3fp\libm.a(lib_a-w_sqrt.o)
                                0x19b (size before relaxing)
 .debug_str     0x00000469       0x69 c:/program files (x86)/atmel/atmel toolchain/avr32 gcc/native/3.4.1067/avr32-gnu-toolchain/bin/../lib/gcc/avr32/4.4.7/../../../../avr32/lib/ucr3fp\libm.a(lib_a-wf_sqrt.o)
                                0x19d (size before relaxing)
 .debug_str     0x000004d2       0x94 c:/program files (x86)/atmel/atmel toolchain/avr32 gcc/native/3.4.1067/avr32-gnu-toolchain/bin/../lib/gcc/avr32/4.4.7/../../../../avr32/lib/ucr3fp\libm.a(lib_a-e_asin.o)
                                0x184 (size before relaxing)
 .debug_str     0x00000566       0x9c c:/program files (x86)/atmel/atmel toolchain/avr32 gcc/native/3.4.1067/avr32-gnu-toolchain/bin/../lib/gcc/avr32/4.4.7/../../../../avr32/lib/ucr3fp\libm.a(lib_a-e_atan2.o)
                                0x187 (size before relaxing)
 .debug_str     0x00000602       0x7c c:/program files (x86)/atmel/atmel toolchain/avr32 gcc/native/3.4.1067/avr32-gnu-toolchain/bin/../lib/gcc/avr32/4.4.7/../../../../avr32/lib/ucr3fp\libm.a(lib_a-e_fmod.o)
                                0x16c (size before relaxing)
 .debug_str     0x0000067e       0xb8 c:/program files (x86)/atmel/atmel toolchain/avr32 gcc/native/3.4.1067/avr32-gnu-toolchain/bin/../lib/gcc/avr32/4.4.7/../../../../avr32/lib/ucr3fp\libm.a(lib_a-e_pow.o)
                                0x1c1 (size before relaxing)
 .debug_str     0x00000736       0xd9 c:/program files (x86)/atmel/atmel toolchain/avr32 gcc/native/3.4.1067/avr32-gnu-toolchain/bin/../lib/gcc/avr32/4.4.7/../../../../avr32/lib/ucr3fp\libm.a(lib_a-e_rem_pio2.o)
                                0x1ce (size before relaxing)
 .debug_str     0x0000080f       0x77 c:/program files (x86)/atmel/atmel toolchain/avr32 gcc/native/3.4.1067/avr32-gnu-toolchain/bin/../lib/gcc/avr32/4.4.7/../../../../avr32/lib/ucr3fp\libm.a(lib_a-e_sqrt.o)
                                0x171 (size before relaxing)
 .debug_str     0x00000886       0x79 c:/program files (x86)/atmel/atmel toolchain/avr32 gcc/native/3.4.1067/avr32-gnu-toolchain/bin/../lib/gcc/avr32/4.4.7/../../../../avr32/lib/ucr3fp\libm.a(lib_a-ef_sqrt.o)
                                0x146 (size before relaxing)
 .debug_str     0x000008ff       0x74 c:/program files (x86)/atmel/atmel toolchain/avr32 gcc/native/3.4.1067/avr32-gnu-toolchain/bin/../lib/gcc/avr32/4.4.7/../../../../avr32/lib/ucr3fp\libm.a(lib_a-k_cos.o)
                                0x164 (size before relaxing)
 .debug_str     0x00000973       0xa8 c:/program files (x86)/atmel/atmel toolchain/avr32 gcc/native/3.4.1067/avr32-gnu-toolchain/bin/../lib/gcc/avr32/4.4.7/../../../../avr32/lib/ucr3fp\libm.a(lib_a-k_rem_pio2.o)
                                0x170 (size before relaxing)
 .debug_str     0x00000a1b       0x74 c:/program files (x86)/atmel/atmel toolchain/avr32 gcc/native/3.4.1067/avr32-gnu-toolchain/bin/../lib/gcc/avr32/4.4.7/../../../../avr32/lib/ucr3fp\libm.a(lib_a-k_sin.o)
                                0x131 (size before relaxing)
 .debug_str     0x00000a8f       0x7b c:/program files (x86)/atmel/atmel toolchain/avr32 gcc/native/3.4.1067/avr32-gnu-toolchain/bin/../lib/gcc/avr32/4.4.7/../../../../avr32/lib/ucr3fp\libm.a(lib_a-s_atan.o)
                                0x16b (size before relaxing)
 .debug_str     0x00000b0a       0x6d c:/program files (x86)/atmel/atmel toolchain/avr32 gcc/native/3.4.1067/avr32-gnu-toolchain/bin/../lib/gcc/avr32/4.4.7/../../../../avr32/lib/ucr3fp\libm.a(lib_a-s_fabs.o)
                                0x153 (size before relaxing)
 .debug_str     0x00000b77       0x73 c:/program files (x86)/atmel/atmel toolchain/avr32 gcc/native/3.4.1067/avr32-gnu-toolchain/bin/../lib/gcc/avr32/4.4.7/../../../../avr32/lib/ucr3fp\libm.a(lib_a-s_finite.o)
                                0x15e (size before relaxing)
 .debug_str     0x00000bea       0x75 c:/program files (x86)/atmel/atmel toolchain/avr32 gcc/native/3.4.1067/avr32-gnu-toolchain/bin/../lib/gcc/avr32/4.4.7/../../../../avr32/lib/ucr3fp\libm.a(lib_a-s_isnand.o)
                                0x160 (size before relaxing)
 .debug_str     0x00000c5f       0x6d c:/program files (x86)/atmel/atmel toolchain/avr32 gcc/native/3.4.1067/avr32-gnu-toolchain/bin/../lib/gcc/avr32/4.4.7/../../../../avr32/lib/ucr3fp\libm.a(lib_a-s_lib_ver.o)
                                0x176 (size before relaxing)
 .debug_str     0x00000ccc       0x75 c:/program files (x86)/atmel/atmel toolchain/avr32 gcc/native/3.4.1067/avr32-gnu-toolchain/bin/../lib/gcc/avr32/4.4.7/../../../../avr32/lib/ucr3fp\libm.a(lib_a-s_matherr.o)
                                0x148 (size before relaxing)
 .debug_str     0x00000d41       0x70 c:/program files (x86)/atmel/atmel toolchain/avr32 gcc/native/3.4.1067/avr32-gnu-toolchain/bin/../lib/gcc/avr32/4.4.7/../../../../avr32/lib/ucr3fp\libm.a(lib_a-s_nan.o)
                                0x11e (size before relaxing)
 .debug_str     0x00000db1       0x75 c:/program files (x86)/atmel/atmel toolchain/avr32 gcc/native/3.4.1067/avr32-gnu-toolchain/bin/../lib/gcc/avr32/4.4.7/../../../../avr32/lib/ucr3fp\libm.a(lib_a-s_rint.o)
                                0x165 (size before relaxing)
 .debug_str     0x00000e26       0x80 c:/program files (x86)/atmel/atmel toolchain/avr32 gcc/native/3.4.1067/avr32-gnu-toolchain/bin/../lib/gcc/avr32/4.4.7/../../../../avr32/lib/ucr3fp\libm.a(lib_a-s_scalbn.o)
                                0x17f (size before relaxing)
 .debug_str     0x00000ea6       0x93 c:/program files (x86)/atmel/atmel toolchain/avr32 gcc/native/3.4.1067/avr32-gnu-toolchain/bin/../lib/gcc/avr32/4.4.7/../../../../avr32/lib/ucr3fp\libm.a(lib_a-sf_isnan.o)
                                0x15c (size before relaxing)
 .debug_str     0x00000f39       0x77 c:/program files (x86)/atmel/atmel toolchain/avr32 gcc/native/3.4.1067/avr32-gnu-toolchain/bin/../lib/gcc/avr32/4.4.7/../../../../avr32/lib/ucr3fp\libm.a(lib_a-s_copysign.o)
                                0x158 (size before relaxing)
 .debug_str     0x00000fb0      0x103 c:/program files (x86)/atmel/atmel toolchain/avr32 gcc/native/3.4.1067/avr32-gnu-toolchain/bin/../lib/gcc/avr32/4.4.7/ucr3fp\libgcc.a(_floatdidf.o)
                                0x1ac (size before relaxing)
 .debug_str     0x000010b3       0x55 c:/program files (x86)/atmel/atmel toolchain/avr32 gcc/native/3.4.1067/avr32-gnu-toolchain/bin/../lib/gcc/avr32/4.4.7/ucr3fp\libgcc.a(_divdi3.o)
                                0x1fa (size before relaxing)
 .debug_str     0x00001108        0x9 c:/program files (x86)/atmel/atmel toolchain/avr32 gcc/native/3.4.1067/avr32-gnu-toolchain/bin/../lib/gcc/avr32/4.4.7/ucr3fp\libgcc.a(_moddi3.o)
                                0x1fa (size before relaxing)
 .debug_str     0x00001111        0xa c:/program files (x86)/atmel/atmel toolchain/avr32 gcc/native/3.4.1067/avr32-gnu-toolchain/bin/../lib/gcc/avr32/4.4.7/ucr3fp\libgcc.a(_udivdi3.o)
                                0x1fb (size before relaxing)
 .debug_str     0x0000111b        0xa c:/program files (x86)/atmel/atmel toolchain/avr32 gcc/native/3.4.1067/avr32-gnu-toolchain/bin/../lib/gcc/avr32/4.4.7/ucr3fp\libgcc.a(_umoddi3.o)
                                0x1fb (size before relaxing)
 .debug_str     0x00001125      0x3a7 c:/program files (x86)/atmel/atmel toolchain/avr32 gcc/native/3.4.1067/avr32-gnu-toolchain/bin/../lib/gcc/avr32/4.4.7/../../../../avr32/lib/ucr3fp\libc.a(lib_a-errno.o)
                                0x4a7 (size before relaxing)
 .debug_str     0x000014cc       0xc7 c:/program files (x86)/atmel/atmel toolchain/avr32 gcc/native/3.4.1067/avr32-gnu-toolchain/bin/../lib/gcc/avr32/4.4.7/../../../../avr32/lib/ucr3fp\libc.a(lib_a-impure.o)
                                0x4fe (size before relaxing)
 .debug_str     0x00001593       0x7d c:/program files (x86)/atmel/atmel toolchain/avr32 gcc/native/3.4.1067/avr32-gnu-toolchain/bin/../lib/gcc/avr32/4.4.7/../../../../avr32/lib/ucr3fp\libc.a(lib_a-malloc.o)
                                0x4c0 (size before relaxing)
 .debug_str     0x00001610      0x237 c:/program files (x86)/atmel/atmel toolchain/avr32 gcc/native/3.4.1067/avr32-gnu-toolchain/bin/../lib/gcc/avr32/4.4.7/../../../../avr32/lib/ucr3fp\libc.a(lib_a-mallocr.o)
                                0x695 (size before relaxing)
 .debug_str     0x00001847       0x71 c:/program files (x86)/atmel/atmel toolchain/avr32 gcc/native/3.4.1067/avr32-gnu-toolchain/bin/../lib/gcc/avr32/4.4.7/../../../../avr32/lib/ucr3fp\libc.a(lib_a-memset.o)
                                0x10d (size before relaxing)
 .debug_str     0x000018b8       0x9c c:/program files (x86)/atmel/atmel toolchain/avr32 gcc/native/3.4.1067/avr32-gnu-toolchain/bin/../lib/gcc/avr32/4.4.7/../../../../avr32/lib/ucr3fp\libc.a(lib_a-mlock.o)
                                0x4c7 (size before relaxing)
 .debug_str     0x00001954       0x6e c:/program files (x86)/atmel/atmel toolchain/avr32 gcc/native/3.4.1067/avr32-gnu-toolchain/bin/../lib/gcc/avr32/4.4.7/../../../../avr32/lib/ucr3fp\libc.a(lib_a-rand.o)
                                0x4af (size before relaxing)
 .debug_str     0x000019c2       0x7f c:/program files (x86)/atmel/atmel toolchain/avr32 gcc/native/3.4.1067/avr32-gnu-toolchain/bin/../lib/gcc/avr32/4.4.7/../../../../avr32/lib/ucr3fp\libc.a(lib_a-sbrkr.o)
                                0x4b0 (size before relaxing)
 .debug_str     0x00001a41       0xa1 c:/program files (x86)/atmel/atmel toolchain/avr32 gcc/native/3.4.1067/avr32-gnu-toolchain/bin/../lib/gcc/avr32/4.4.7/../../../../avr32/lib/ucr3fp\libc.a(lib_a-snprintf.o)
                                0x4f1 (size before relaxing)
 .debug_str     0x00001ae2       0x7b c:/program files (x86)/atmel/atmel toolchain/avr32 gcc/native/3.4.1067/avr32-gnu-toolchain/bin/../lib/gcc/avr32/4.4.7/../../../../avr32/lib/ucr3fp\libc.a(lib_a-strcpy.o)
                                0x110 (size before relaxing)
 .debug_str     0x00001b5d       0x77 c:/program files (x86)/atmel/atmel toolchain/avr32 gcc/native/3.4.1067/avr32-gnu-toolchain/bin/../lib/gcc/avr32/4.4.7/../../../../avr32/lib/ucr3fp\libc.a(lib_a-strlen.o)
                                0x113 (size before relaxing)
 .debug_str     0x00001bd4      0x339 c:/program files (x86)/atmel/atmel toolchain/avr32 gcc/native/3.4.1067/avr32-gnu-toolchain/bin/../lib/gcc/avr32/4.4.7/../../../../avr32/lib/ucr3fp\libc.a(lib_a-syscalls.o)
                                0x439 (size before relaxing)
 .debug_str     0x00001f0d      0x3fd c:/program files (x86)/atmel/atmel toolchain/avr32 gcc/native/3.4.1067/avr32-gnu-toolchain/bin/../lib/gcc/avr32/4.4.7/../../../../avr32/lib/ucr3fp\libc.a(lib_a-vfprintf.o)
                                0x995 (size before relaxing)
 .debug_str     0x0000230a       0x75 c:/program files (x86)/atmel/atmel toolchain/avr32 gcc/native/3.4.1067/avr32-gnu-toolchain/bin/../lib/gcc/avr32/4.4.7/../../../../avr32/lib/ucr3fp\libc.a(lib_a-wsetup.o)
                                0x4f0 (size before relaxing)
 .debug_str     0x0000237f      0x12b c:/program files (x86)/atmel/atmel toolchain/avr32 gcc/native/3.4.1067/avr32-gnu-toolchain/bin/../lib/gcc/avr32/4.4.7/../../../../avr32/lib/ucr3fp\libc.a(lib_a-dtoa.o)
                                0x5a5 (size before relaxing)
 .debug_str     0x000024aa       0x81 c:/program files (x86)/atmel/atmel toolchain/avr32 gcc/native/3.4.1067/avr32-gnu-toolchain/bin/../lib/gcc/avr32/4.4.7/../../../../avr32/lib/ucr3fp\libc.a(lib_a-fflush.o)
                                0x516 (size before relaxing)
 .debug_str     0x0000252b      0x131 c:/program files (x86)/atmel/atmel toolchain/avr32 gcc/native/3.4.1067/avr32-gnu-toolchain/bin/../lib/gcc/avr32/4.4.7/../../../../avr32/lib/ucr3fp\libc.a(lib_a-findfp.o)
                                0x5d8 (size before relaxing)
 .debug_str     0x0000265c       0x3c c:/program files (x86)/atmel/atmel toolchain/avr32 gcc/native/3.4.1067/avr32-gnu-toolchain/bin/../lib/gcc/avr32/4.4.7/../../../../avr32/lib/ucr3fp\libc.a(lib_a-freer.o)
                                0x5e7 (size before relaxing)
 .debug_str     0x00002698       0x95 c:/program files (x86)/atmel/atmel toolchain/avr32 gcc/native/3.4.1067/avr32-gnu-toolchain/bin/../lib/gcc/avr32/4.4.7/../../../../avr32/lib/ucr3fp\libc.a(lib_a-fvwrite.o)
                                0x508 (size before relaxing)
 .debug_str     0x0000272d       0x8d c:/program files (x86)/atmel/atmel toolchain/avr32 gcc/native/3.4.1067/avr32-gnu-toolchain/bin/../lib/gcc/avr32/4.4.7/../../../../avr32/lib/ucr3fp\libc.a(lib_a-fwalk.o)
                                0x4da (size before relaxing)
 .debug_str     0x000027ba      0x1c8 c:/program files (x86)/atmel/atmel toolchain/avr32 gcc/native/3.4.1067/avr32-gnu-toolchain/bin/../lib/gcc/avr32/4.4.7/../../../../avr32/lib/ucr3fp\libc.a(lib_a-locale.o)
                                0x64d (size before relaxing)
 .debug_str     0x00002982       0x82 c:/program files (x86)/atmel/atmel toolchain/avr32 gcc/native/3.4.1067/avr32-gnu-toolchain/bin/../lib/gcc/avr32/4.4.7/../../../../avr32/lib/ucr3fp\libc.a(lib_a-makebuf.o)
                                0x5ab (size before relaxing)
 .debug_str     0x00002a04       0x7a c:/program files (x86)/atmel/atmel toolchain/avr32 gcc/native/3.4.1067/avr32-gnu-toolchain/bin/../lib/gcc/avr32/4.4.7/../../../../avr32/lib/ucr3fp\libc.a(lib_a-memchr.o)
                                0x11d (size before relaxing)
 .debug_str     0x00002a7e       0x7c c:/program files (x86)/atmel/atmel toolchain/avr32 gcc/native/3.4.1067/avr32-gnu-toolchain/bin/../lib/gcc/avr32/4.4.7/../../../../avr32/lib/ucr3fp\libc.a(lib_a-memmove.o)
                                0x128 (size before relaxing)
 .debug_str     0x00002afa      0x127 c:/program files (x86)/atmel/atmel toolchain/avr32 gcc/native/3.4.1067/avr32-gnu-toolchain/bin/../lib/gcc/avr32/4.4.7/../../../../avr32/lib/ucr3fp\libc.a(lib_a-mprec.o)
                                0x5b2 (size before relaxing)
 .debug_str     0x00002c21       0x59 c:/program files (x86)/atmel/atmel toolchain/avr32 gcc/native/3.4.1067/avr32-gnu-toolchain/bin/../lib/gcc/avr32/4.4.7/../../../../avr32/lib/ucr3fp\libc.a(lib_a-reallocr.o)
                                0x567 (size before relaxing)
 .debug_str     0x00002c7a       0xa2 c:/program files (x86)/atmel/atmel toolchain/avr32 gcc/native/3.4.1067/avr32-gnu-toolchain/bin/../lib/gcc/avr32/4.4.7/../../../../avr32/lib/ucr3fp\libc.a(lib_a-reent.o)
                                0x4e4 (size before relaxing)
 .debug_str     0x00002d1c       0x75 c:/program files (x86)/atmel/atmel toolchain/avr32 gcc/native/3.4.1067/avr32-gnu-toolchain/bin/../lib/gcc/avr32/4.4.7/../../../../avr32/lib/ucr3fp\libc.a(lib_a-s_isinfd.o)
                                0x160 (size before relaxing)
 .debug_str     0x00002d91       0x8a c:/program files (x86)/atmel/atmel toolchain/avr32 gcc/native/3.4.1067/avr32-gnu-toolchain/bin/../lib/gcc/avr32/4.4.7/../../../../avr32/lib/ucr3fp\libc.a(lib_a-stdio.o)
                                0x4d6 (size before relaxing)
 .debug_str     0x00002e1b       0x7b c:/program files (x86)/atmel/atmel toolchain/avr32 gcc/native/3.4.1067/avr32-gnu-toolchain/bin/../lib/gcc/avr32/4.4.7/../../../../avr32/lib/ucr3fp\libc.a(lib_a-writer.o)
                                0x4b3 (size before relaxing)
 .debug_str     0x00002e96       0x19 c:/program files (x86)/atmel/atmel toolchain/avr32 gcc/native/3.4.1067/avr32-gnu-toolchain/bin/../lib/gcc/avr32/4.4.7/../../../../avr32/lib/ucr3fp\libc.a(lib_a-callocr.o)
                                0x4e6 (size before relaxing)
 .debug_str     0x00002eaf       0x72 c:/program files (x86)/atmel/atmel toolchain/avr32 gcc/native/3.4.1067/avr32-gnu-toolchain/bin/../lib/gcc/avr32/4.4.7/../../../../avr32/lib/ucr3fp\libc.a(lib_a-closer.o)
                                0x4a3 (size before relaxing)
 .debug_str     0x00002f21       0x7a c:/program files (x86)/atmel/atmel toolchain/avr32 gcc/native/3.4.1067/avr32-gnu-toolchain/bin/../lib/gcc/avr32/4.4.7/../../../../avr32/lib/ucr3fp\libc.a(lib_a-fclose.o)
                                0x4fa (size before relaxing)
 .debug_str     0x00002f9b       0x78 c:/program files (x86)/atmel/atmel toolchain/avr32 gcc/native/3.4.1067/avr32-gnu-toolchain/bin/../lib/gcc/avr32/4.4.7/../../../../avr32/lib/ucr3fp\libc.a(lib_a-fstatr.o)
                                0x596 (size before relaxing)
 .debug_str     0x00003013       0x72 c:/program files (x86)/atmel/atmel toolchain/avr32 gcc/native/3.4.1067/avr32-gnu-toolchain/bin/../lib/gcc/avr32/4.4.7/../../../../avr32/lib/ucr3fp\libc.a(lib_a-lseekr.o)
                                0x4b1 (size before relaxing)
 .debug_str     0x00003085       0x70 c:/program files (x86)/atmel/atmel toolchain/avr32 gcc/native/3.4.1067/avr32-gnu-toolchain/bin/../lib/gcc/avr32/4.4.7/../../../../avr32/lib/ucr3fp\libc.a(lib_a-readr.o)
                                0x4b1 (size before relaxing)

.debug_loc      0x00000000     0xbb38
 *(.debug_loc)
 .debug_loc     0x00000000       0xac c:/program files (x86)/atmel/atmel toolchain/avr32 gcc/native/3.4.1067/avr32-gnu-toolchain/bin/../lib/gcc/avr32/4.4.7/../../../../avr32/lib/ucr3fp\libm.a(lib_a-s_cos.o)
 .debug_loc     0x000000ac      0x214 c:/program files (x86)/atmel/atmel toolchain/avr32 gcc/native/3.4.1067/avr32-gnu-toolchain/bin/../lib/gcc/avr32/4.4.7/../../../../avr32/lib/ucr3fp\libm.a(lib_a-s_floor.o)
 .debug_loc     0x000002c0       0xac c:/program files (x86)/atmel/atmel toolchain/avr32 gcc/native/3.4.1067/avr32-gnu-toolchain/bin/../lib/gcc/avr32/4.4.7/../../../../avr32/lib/ucr3fp\libm.a(lib_a-s_sin.o)
 .debug_loc     0x0000036c       0x7c c:/program files (x86)/atmel/atmel toolchain/avr32 gcc/native/3.4.1067/avr32-gnu-toolchain/bin/../lib/gcc/avr32/4.4.7/../../../../avr32/lib/ucr3fp\libm.a(lib_a-w_asin.o)
 .debug_loc     0x000003e8       0x4f c:/program files (x86)/atmel/atmel toolchain/avr32 gcc/native/3.4.1067/avr32-gnu-toolchain/bin/../lib/gcc/avr32/4.4.7/../../../../avr32/lib/ucr3fp\libm.a(lib_a-w_atan2.o)
 .debug_loc     0x00000437       0xa4 c:/program files (x86)/atmel/atmel toolchain/avr32 gcc/native/3.4.1067/avr32-gnu-toolchain/bin/../lib/gcc/avr32/4.4.7/../../../../avr32/lib/ucr3fp\libm.a(lib_a-w_fmod.o)
 .debug_loc     0x000004db       0xa4 c:/program files (x86)/atmel/atmel toolchain/avr32 gcc/native/3.4.1067/avr32-gnu-toolchain/bin/../lib/gcc/avr32/4.4.7/../../../../avr32/lib/ucr3fp\libm.a(lib_a-w_pow.o)
 .debug_loc     0x0000057f       0x7c c:/program files (x86)/atmel/atmel toolchain/avr32 gcc/native/3.4.1067/avr32-gnu-toolchain/bin/../lib/gcc/avr32/4.4.7/../../../../avr32/lib/ucr3fp\libm.a(lib_a-w_sqrt.o)
 .debug_loc     0x000005fb       0x49 c:/program files (x86)/atmel/atmel toolchain/avr32 gcc/native/3.4.1067/avr32-gnu-toolchain/bin/../lib/gcc/avr32/4.4.7/../../../../avr32/lib/ucr3fp\libm.a(lib_a-wf_sqrt.o)
 .debug_loc     0x00000644      0x18f c:/program files (x86)/atmel/atmel toolchain/avr32 gcc/native/3.4.1067/avr32-gnu-toolchain/bin/../lib/gcc/avr32/4.4.7/../../../../avr32/lib/ucr3fp\libm.a(lib_a-e_asin.o)
 .debug_loc     0x000007d3      0x4e5 c:/program files (x86)/atmel/atmel toolchain/avr32 gcc/native/3.4.1067/avr32-gnu-toolchain/bin/../lib/gcc/avr32/4.4.7/../../../../avr32/lib/ucr3fp\libm.a(lib_a-e_atan2.o)
 .debug_loc     0x00000cb8      0x4ac c:/program files (x86)/atmel/atmel toolchain/avr32 gcc/native/3.4.1067/avr32-gnu-toolchain/bin/../lib/gcc/avr32/4.4.7/../../../../avr32/lib/ucr3fp\libm.a(lib_a-e_fmod.o)
 .debug_loc     0x00001164      0x702 c:/program files (x86)/atmel/atmel toolchain/avr32 gcc/native/3.4.1067/avr32-gnu-toolchain/bin/../lib/gcc/avr32/4.4.7/../../../../avr32/lib/ucr3fp\libm.a(lib_a-e_pow.o)
 .debug_loc     0x00001866      0x317 c:/program files (x86)/atmel/atmel toolchain/avr32 gcc/native/3.4.1067/avr32-gnu-toolchain/bin/../lib/gcc/avr32/4.4.7/../../../../avr32/lib/ucr3fp\libm.a(lib_a-e_rem_pio2.o)
 .debug_loc     0x00001b7d      0x2fd c:/program files (x86)/atmel/atmel toolchain/avr32 gcc/native/3.4.1067/avr32-gnu-toolchain/bin/../lib/gcc/avr32/4.4.7/../../../../avr32/lib/ucr3fp\libm.a(lib_a-e_sqrt.o)
 .debug_loc     0x00001e7a      0x133 c:/program files (x86)/atmel/atmel toolchain/avr32 gcc/native/3.4.1067/avr32-gnu-toolchain/bin/../lib/gcc/avr32/4.4.7/../../../../avr32/lib/ucr3fp\libm.a(lib_a-ef_sqrt.o)
 .debug_loc     0x00001fad       0xdf c:/program files (x86)/atmel/atmel toolchain/avr32 gcc/native/3.4.1067/avr32-gnu-toolchain/bin/../lib/gcc/avr32/4.4.7/../../../../avr32/lib/ucr3fp\libm.a(lib_a-k_cos.o)
 .debug_loc     0x0000208c      0x627 c:/program files (x86)/atmel/atmel toolchain/avr32 gcc/native/3.4.1067/avr32-gnu-toolchain/bin/../lib/gcc/avr32/4.4.7/../../../../avr32/lib/ucr3fp\libm.a(lib_a-k_rem_pio2.o)
 .debug_loc     0x000026b3       0x89 c:/program files (x86)/atmel/atmel toolchain/avr32 gcc/native/3.4.1067/avr32-gnu-toolchain/bin/../lib/gcc/avr32/4.4.7/../../../../avr32/lib/ucr3fp\libm.a(lib_a-k_sin.o)
 .debug_loc     0x0000273c      0x243 c:/program files (x86)/atmel/atmel toolchain/avr32 gcc/native/3.4.1067/avr32-gnu-toolchain/bin/../lib/gcc/avr32/4.4.7/../../../../avr32/lib/ucr3fp\libm.a(lib_a-s_atan.o)
 .debug_loc     0x0000297f       0x18 c:/program files (x86)/atmel/atmel toolchain/avr32 gcc/native/3.4.1067/avr32-gnu-toolchain/bin/../lib/gcc/avr32/4.4.7/../../../../avr32/lib/ucr3fp\libm.a(lib_a-s_fabs.o)
 .debug_loc     0x00002997       0x18 c:/program files (x86)/atmel/atmel toolchain/avr32 gcc/native/3.4.1067/avr32-gnu-toolchain/bin/../lib/gcc/avr32/4.4.7/../../../../avr32/lib/ucr3fp\libm.a(lib_a-s_finite.o)
 .debug_loc     0x000029af       0x18 c:/program files (x86)/atmel/atmel toolchain/avr32 gcc/native/3.4.1067/avr32-gnu-toolchain/bin/../lib/gcc/avr32/4.4.7/../../../../avr32/lib/ucr3fp\libm.a(lib_a-s_isnand.o)
 .debug_loc     0x000029c7       0x13 c:/program files (x86)/atmel/atmel toolchain/avr32 gcc/native/3.4.1067/avr32-gnu-toolchain/bin/../lib/gcc/avr32/4.4.7/../../../../avr32/lib/ucr3fp\libm.a(lib_a-s_matherr.o)
 .debug_loc     0x000029da      0x26b c:/program files (x86)/atmel/atmel toolchain/avr32 gcc/native/3.4.1067/avr32-gnu-toolchain/bin/../lib/gcc/avr32/4.4.7/../../../../avr32/lib/ucr3fp\libm.a(lib_a-s_rint.o)
 .debug_loc     0x00002c45      0x2f0 c:/program files (x86)/atmel/atmel toolchain/avr32 gcc/native/3.4.1067/avr32-gnu-toolchain/bin/../lib/gcc/avr32/4.4.7/../../../../avr32/lib/ucr3fp\libm.a(lib_a-s_scalbn.o)
 .debug_loc     0x00002f35       0x13 c:/program files (x86)/atmel/atmel toolchain/avr32 gcc/native/3.4.1067/avr32-gnu-toolchain/bin/../lib/gcc/avr32/4.4.7/../../../../avr32/lib/ucr3fp\libm.a(lib_a-sf_isnan.o)
 .debug_loc     0x00002f48       0x4f c:/program files (x86)/atmel/atmel toolchain/avr32 gcc/native/3.4.1067/avr32-gnu-toolchain/bin/../lib/gcc/avr32/4.4.7/../../../../avr32/lib/ucr3fp\libm.a(lib_a-s_copysign.o)
 .debug_loc     0x00002f97       0x37 c:/program files (x86)/atmel/atmel toolchain/avr32 gcc/native/3.4.1067/avr32-gnu-toolchain/bin/../lib/gcc/avr32/4.4.7/ucr3fp\libgcc.a(_floatdidf.o)
 .debug_loc     0x00002fce      0x844 c:/program files (x86)/atmel/atmel toolchain/avr32 gcc/native/3.4.1067/avr32-gnu-toolchain/bin/../lib/gcc/avr32/4.4.7/ucr3fp\libgcc.a(_divdi3.o)
 .debug_loc     0x00003812      0x593 c:/program files (x86)/atmel/atmel toolchain/avr32 gcc/native/3.4.1067/avr32-gnu-toolchain/bin/../lib/gcc/avr32/4.4.7/ucr3fp\libgcc.a(_moddi3.o)
 .debug_loc     0x00003da5      0x75d c:/program files (x86)/atmel/atmel toolchain/avr32 gcc/native/3.4.1067/avr32-gnu-toolchain/bin/../lib/gcc/avr32/4.4.7/ucr3fp\libgcc.a(_udivdi3.o)
 .debug_loc     0x00004502      0x4e6 c:/program files (x86)/atmel/atmel toolchain/avr32 gcc/native/3.4.1067/avr32-gnu-toolchain/bin/../lib/gcc/avr32/4.4.7/ucr3fp\libgcc.a(_umoddi3.o)
 .debug_loc     0x000049e8       0x64 c:/program files (x86)/atmel/atmel toolchain/avr32 gcc/native/3.4.1067/avr32-gnu-toolchain/bin/../lib/gcc/avr32/4.4.7/../../../../avr32/lib/ucr3fp\libc.a(lib_a-malloc.o)
 .debug_loc     0x00004a4c      0x59a c:/program files (x86)/atmel/atmel toolchain/avr32 gcc/native/3.4.1067/avr32-gnu-toolchain/bin/../lib/gcc/avr32/4.4.7/../../../../avr32/lib/ucr3fp\libc.a(lib_a-mallocr.o)
 .debug_loc     0x00004fe6       0x6f c:/program files (x86)/atmel/atmel toolchain/avr32 gcc/native/3.4.1067/avr32-gnu-toolchain/bin/../lib/gcc/avr32/4.4.7/../../../../avr32/lib/ucr3fp\libc.a(lib_a-rand.o)
 .debug_loc     0x00005055       0x63 c:/program files (x86)/atmel/atmel toolchain/avr32 gcc/native/3.4.1067/avr32-gnu-toolchain/bin/../lib/gcc/avr32/4.4.7/../../../../avr32/lib/ucr3fp\libc.a(lib_a-sbrkr.o)
 .debug_loc     0x000050b8      0x171 c:/program files (x86)/atmel/atmel toolchain/avr32 gcc/native/3.4.1067/avr32-gnu-toolchain/bin/../lib/gcc/avr32/4.4.7/../../../../avr32/lib/ucr3fp\libc.a(lib_a-snprintf.o)
 .debug_loc     0x00005229       0x1e c:/program files (x86)/atmel/atmel toolchain/avr32 gcc/native/3.4.1067/avr32-gnu-toolchain/bin/../lib/gcc/avr32/4.4.7/../../../../avr32/lib/ucr3fp\libc.a(lib_a-strlen.o)
 .debug_loc     0x00005247      0x268 c:/program files (x86)/atmel/atmel toolchain/avr32 gcc/native/3.4.1067/avr32-gnu-toolchain/bin/../lib/gcc/avr32/4.4.7/../../../../avr32/lib/ucr3fp\libc.a(lib_a-syscalls.o)
 .debug_loc     0x000054af     0x2f9f c:/program files (x86)/atmel/atmel toolchain/avr32 gcc/native/3.4.1067/avr32-gnu-toolchain/bin/../lib/gcc/avr32/4.4.7/../../../../avr32/lib/ucr3fp\libc.a(lib_a-vfprintf.o)
 .debug_loc     0x0000844e       0x5b c:/program files (x86)/atmel/atmel toolchain/avr32 gcc/native/3.4.1067/avr32-gnu-toolchain/bin/../lib/gcc/avr32/4.4.7/../../../../avr32/lib/ucr3fp\libc.a(lib_a-wsetup.o)
 .debug_loc     0x000084a9      0xb8a c:/program files (x86)/atmel/atmel toolchain/avr32 gcc/native/3.4.1067/avr32-gnu-toolchain/bin/../lib/gcc/avr32/4.4.7/../../../../avr32/lib/ucr3fp\libc.a(lib_a-dtoa.o)
 .debug_loc     0x00009033      0x13f c:/program files (x86)/atmel/atmel toolchain/avr32 gcc/native/3.4.1067/avr32-gnu-toolchain/bin/../lib/gcc/avr32/4.4.7/../../../../avr32/lib/ucr3fp\libc.a(lib_a-fflush.o)
 .debug_loc     0x00009172      0x202 c:/program files (x86)/atmel/atmel toolchain/avr32 gcc/native/3.4.1067/avr32-gnu-toolchain/bin/../lib/gcc/avr32/4.4.7/../../../../avr32/lib/ucr3fp\libc.a(lib_a-findfp.o)
 .debug_loc     0x00009374      0x32c c:/program files (x86)/atmel/atmel toolchain/avr32 gcc/native/3.4.1067/avr32-gnu-toolchain/bin/../lib/gcc/avr32/4.4.7/../../../../avr32/lib/ucr3fp\libc.a(lib_a-freer.o)
 .debug_loc     0x000096a0      0x28e c:/program files (x86)/atmel/atmel toolchain/avr32 gcc/native/3.4.1067/avr32-gnu-toolchain/bin/../lib/gcc/avr32/4.4.7/../../../../avr32/lib/ucr3fp\libc.a(lib_a-fvwrite.o)
 .debug_loc     0x0000992e       0xe7 c:/program files (x86)/atmel/atmel toolchain/avr32 gcc/native/3.4.1067/avr32-gnu-toolchain/bin/../lib/gcc/avr32/4.4.7/../../../../avr32/lib/ucr3fp\libc.a(lib_a-fwalk.o)
 .debug_loc     0x00009a15       0xd1 c:/program files (x86)/atmel/atmel toolchain/avr32 gcc/native/3.4.1067/avr32-gnu-toolchain/bin/../lib/gcc/avr32/4.4.7/../../../../avr32/lib/ucr3fp\libc.a(lib_a-locale.o)
 .debug_loc     0x00009ae6       0xc2 c:/program files (x86)/atmel/atmel toolchain/avr32 gcc/native/3.4.1067/avr32-gnu-toolchain/bin/../lib/gcc/avr32/4.4.7/../../../../avr32/lib/ucr3fp\libc.a(lib_a-makebuf.o)
 .debug_loc     0x00009ba8       0x31 c:/program files (x86)/atmel/atmel toolchain/avr32 gcc/native/3.4.1067/avr32-gnu-toolchain/bin/../lib/gcc/avr32/4.4.7/../../../../avr32/lib/ucr3fp\libc.a(lib_a-memchr.o)
 .debug_loc     0x00009bd9       0x81 c:/program files (x86)/atmel/atmel toolchain/avr32 gcc/native/3.4.1067/avr32-gnu-toolchain/bin/../lib/gcc/avr32/4.4.7/../../../../avr32/lib/ucr3fp\libc.a(lib_a-memmove.o)
 .debug_loc     0x00009c5a     0x122d c:/program files (x86)/atmel/atmel toolchain/avr32 gcc/native/3.4.1067/avr32-gnu-toolchain/bin/../lib/gcc/avr32/4.4.7/../../../../avr32/lib/ucr3fp\libc.a(lib_a-mprec.o)
 .debug_loc     0x0000ae87      0x56e c:/program files (x86)/atmel/atmel toolchain/avr32 gcc/native/3.4.1067/avr32-gnu-toolchain/bin/../lib/gcc/avr32/4.4.7/../../../../avr32/lib/ucr3fp\libc.a(lib_a-reallocr.o)
 .debug_loc     0x0000b3f5      0x10a c:/program files (x86)/atmel/atmel toolchain/avr32 gcc/native/3.4.1067/avr32-gnu-toolchain/bin/../lib/gcc/avr32/4.4.7/../../../../avr32/lib/ucr3fp\libc.a(lib_a-reent.o)
 .debug_loc     0x0000b4ff       0x43 c:/program files (x86)/atmel/atmel toolchain/avr32 gcc/native/3.4.1067/avr32-gnu-toolchain/bin/../lib/gcc/avr32/4.4.7/../../../../avr32/lib/ucr3fp\libc.a(lib_a-s_isinfd.o)
 .debug_loc     0x0000b542      0x1ee c:/program files (x86)/atmel/atmel toolchain/avr32 gcc/native/3.4.1067/avr32-gnu-toolchain/bin/../lib/gcc/avr32/4.4.7/../../../../avr32/lib/ucr3fp\libc.a(lib_a-stdio.o)
 .debug_loc     0x0000b730       0x94 c:/program files (x86)/atmel/atmel toolchain/avr32 gcc/native/3.4.1067/avr32-gnu-toolchain/bin/../lib/gcc/avr32/4.4.7/../../../../avr32/lib/ucr3fp\libc.a(lib_a-writer.o)
 .debug_loc     0x0000b7c4       0xbd c:/program files (x86)/atmel/atmel toolchain/avr32 gcc/native/3.4.1067/avr32-gnu-toolchain/bin/../lib/gcc/avr32/4.4.7/../../../../avr32/lib/ucr3fp\libc.a(lib_a-callocr.o)
 .debug_loc     0x0000b881       0x63 c:/program files (x86)/atmel/atmel toolchain/avr32 gcc/native/3.4.1067/avr32-gnu-toolchain/bin/../lib/gcc/avr32/4.4.7/../../../../avr32/lib/ucr3fp\libc.a(lib_a-closer.o)
 .debug_loc     0x0000b8e4       0xb6 c:/program files (x86)/atmel/atmel toolchain/avr32 gcc/native/3.4.1067/avr32-gnu-toolchain/bin/../lib/gcc/avr32/4.4.7/../../../../avr32/lib/ucr3fp\libc.a(lib_a-fclose.o)
 .debug_loc     0x0000b99a       0x76 c:/program files (x86)/atmel/atmel toolchain/avr32 gcc/native/3.4.1067/avr32-gnu-toolchain/bin/../lib/gcc/avr32/4.4.7/../../../../avr32/lib/ucr3fp\libc.a(lib_a-fstatr.o)
 .debug_loc     0x0000ba10       0x94 c:/program files (x86)/atmel/atmel toolchain/avr32 gcc/native/3.4.1067/avr32-gnu-toolchain/bin/../lib/gcc/avr32/4.4.7/../../../../avr32/lib/ucr3fp\libc.a(lib_a-lseekr.o)
 .debug_loc     0x0000baa4       0x94 c:/program files (x86)/atmel/atmel toolchain/avr32 gcc/native/3.4.1067/avr32-gnu-toolchain/bin/../lib/gcc/avr32/4.4.7/../../../../avr32/lib/ucr3fp\libc.a(lib_a-readr.o)

.debug_macinfo
 *(.debug_macinfo)

.debug_weaknames
 *(.debug_weaknames)

.debug_funcnames
 *(.debug_funcnames)

.debug_typenames
 *(.debug_typenames)

.debug_varnames
 *(.debug_varnames)

.stack          0x0000f000     0x1000
                0x0000f000                _stack = .
 *(.stack)
                0x00001000                . = _stack_size
 *fill*         0x0000f000     0x1000 
                0x00010000                _estack = .

.userpage
 *(.userpage .userpage.*)

.factorypage
 *(.factorypage .factorypage.*)

.flashvault_flash_size
 *(.flashvault_flash_size .flashvault_flash_size.*)

.flashvault_ram_size
 *(.flashvault_ram_size .flashvault_ram_size.*)

/DISCARD/
 *(.note.GNU-stack)
OUTPUT(MegaFly2.elf elf32-avr32)

.debug_ranges   0x00000000      0xe58
 .debug_ranges  0x00000000       0x18 c:/program files (x86)/atmel/atmel toolchain/avr32 gcc/native/3.4.1067/avr32-gnu-toolchain/bin/../lib/gcc/avr32/4.4.7/../../../../avr32/lib/ucr3fp\libm.a(lib_a-s_cos.o)
 .debug_ranges  0x00000018       0x18 c:/program files (x86)/atmel/atmel toolchain/avr32 gcc/native/3.4.1067/avr32-gnu-toolchain/bin/../lib/gcc/avr32/4.4.7/../../../../avr32/lib/ucr3fp\libm.a(lib_a-s_floor.o)
 .debug_ranges  0x00000030       0x18 c:/program files (x86)/atmel/atmel toolchain/avr32 gcc/native/3.4.1067/avr32-gnu-toolchain/bin/../lib/gcc/avr32/4.4.7/../../../../avr32/lib/ucr3fp\libm.a(lib_a-s_sin.o)
 .debug_ranges  0x00000048       0x18 c:/program files (x86)/atmel/atmel toolchain/avr32 gcc/native/3.4.1067/avr32-gnu-toolchain/bin/../lib/gcc/avr32/4.4.7/../../../../avr32/lib/ucr3fp\libm.a(lib_a-w_asin.o)
 .debug_ranges  0x00000060       0x18 c:/program files (x86)/atmel/atmel toolchain/avr32 gcc/native/3.4.1067/avr32-gnu-toolchain/bin/../lib/gcc/avr32/4.4.7/../../../../avr32/lib/ucr3fp\libm.a(lib_a-w_atan2.o)
 .debug_ranges  0x00000078       0x18 c:/program files (x86)/atmel/atmel toolchain/avr32 gcc/native/3.4.1067/avr32-gnu-toolchain/bin/../lib/gcc/avr32/4.4.7/../../../../avr32/lib/ucr3fp\libm.a(lib_a-w_fmod.o)
 .debug_ranges  0x00000090       0x18 c:/program files (x86)/atmel/atmel toolchain/avr32 gcc/native/3.4.1067/avr32-gnu-toolchain/bin/../lib/gcc/avr32/4.4.7/../../../../avr32/lib/ucr3fp\libm.a(lib_a-w_pow.o)
 .debug_ranges  0x000000a8       0x18 c:/program files (x86)/atmel/atmel toolchain/avr32 gcc/native/3.4.1067/avr32-gnu-toolchain/bin/../lib/gcc/avr32/4.4.7/../../../../avr32/lib/ucr3fp\libm.a(lib_a-w_sqrt.o)
 .debug_ranges  0x000000c0       0x18 c:/program files (x86)/atmel/atmel toolchain/avr32 gcc/native/3.4.1067/avr32-gnu-toolchain/bin/../lib/gcc/avr32/4.4.7/../../../../avr32/lib/ucr3fp\libm.a(lib_a-wf_sqrt.o)
 .debug_ranges  0x000000d8       0x30 c:/program files (x86)/atmel/atmel toolchain/avr32 gcc/native/3.4.1067/avr32-gnu-toolchain/bin/../lib/gcc/avr32/4.4.7/../../../../avr32/lib/ucr3fp\libm.a(lib_a-e_asin.o)
 .debug_ranges  0x00000108       0x48 c:/program files (x86)/atmel/atmel toolchain/avr32 gcc/native/3.4.1067/avr32-gnu-toolchain/bin/../lib/gcc/avr32/4.4.7/../../../../avr32/lib/ucr3fp\libm.a(lib_a-e_atan2.o)
 .debug_ranges  0x00000150       0x68 c:/program files (x86)/atmel/atmel toolchain/avr32 gcc/native/3.4.1067/avr32-gnu-toolchain/bin/../lib/gcc/avr32/4.4.7/../../../../avr32/lib/ucr3fp\libm.a(lib_a-e_fmod.o)
 .debug_ranges  0x000001b8      0x158 c:/program files (x86)/atmel/atmel toolchain/avr32 gcc/native/3.4.1067/avr32-gnu-toolchain/bin/../lib/gcc/avr32/4.4.7/../../../../avr32/lib/ucr3fp\libm.a(lib_a-e_pow.o)
 .debug_ranges  0x00000310       0x30 c:/program files (x86)/atmel/atmel toolchain/avr32 gcc/native/3.4.1067/avr32-gnu-toolchain/bin/../lib/gcc/avr32/4.4.7/../../../../avr32/lib/ucr3fp\libm.a(lib_a-e_rem_pio2.o)
 .debug_ranges  0x00000340       0x38 c:/program files (x86)/atmel/atmel toolchain/avr32 gcc/native/3.4.1067/avr32-gnu-toolchain/bin/../lib/gcc/avr32/4.4.7/../../../../avr32/lib/ucr3fp\libm.a(lib_a-e_sqrt.o)
 .debug_ranges  0x00000378       0x18 c:/program files (x86)/atmel/atmel toolchain/avr32 gcc/native/3.4.1067/avr32-gnu-toolchain/bin/../lib/gcc/avr32/4.4.7/../../../../avr32/lib/ucr3fp\libm.a(lib_a-ef_sqrt.o)
 .debug_ranges  0x00000390       0x18 c:/program files (x86)/atmel/atmel toolchain/avr32 gcc/native/3.4.1067/avr32-gnu-toolchain/bin/../lib/gcc/avr32/4.4.7/../../../../avr32/lib/ucr3fp\libm.a(lib_a-k_cos.o)
 .debug_ranges  0x000003a8       0x18 c:/program files (x86)/atmel/atmel toolchain/avr32 gcc/native/3.4.1067/avr32-gnu-toolchain/bin/../lib/gcc/avr32/4.4.7/../../../../avr32/lib/ucr3fp\libm.a(lib_a-k_rem_pio2.o)
 .debug_ranges  0x000003c0       0x18 c:/program files (x86)/atmel/atmel toolchain/avr32 gcc/native/3.4.1067/avr32-gnu-toolchain/bin/../lib/gcc/avr32/4.4.7/../../../../avr32/lib/ucr3fp\libm.a(lib_a-k_sin.o)
 .debug_ranges  0x000003d8       0x18 c:/program files (x86)/atmel/atmel toolchain/avr32 gcc/native/3.4.1067/avr32-gnu-toolchain/bin/../lib/gcc/avr32/4.4.7/../../../../avr32/lib/ucr3fp\libm.a(lib_a-s_atan.o)
 .debug_ranges  0x000003f0       0x18 c:/program files (x86)/atmel/atmel toolchain/avr32 gcc/native/3.4.1067/avr32-gnu-toolchain/bin/../lib/gcc/avr32/4.4.7/../../../../avr32/lib/ucr3fp\libm.a(lib_a-s_fabs.o)
 .debug_ranges  0x00000408       0x18 c:/program files (x86)/atmel/atmel toolchain/avr32 gcc/native/3.4.1067/avr32-gnu-toolchain/bin/../lib/gcc/avr32/4.4.7/../../../../avr32/lib/ucr3fp\libm.a(lib_a-s_finite.o)
 .debug_ranges  0x00000420       0x18 c:/program files (x86)/atmel/atmel toolchain/avr32 gcc/native/3.4.1067/avr32-gnu-toolchain/bin/../lib/gcc/avr32/4.4.7/../../../../avr32/lib/ucr3fp\libm.a(lib_a-s_isnand.o)
 .debug_ranges  0x00000438       0x18 c:/program files (x86)/atmel/atmel toolchain/avr32 gcc/native/3.4.1067/avr32-gnu-toolchain/bin/../lib/gcc/avr32/4.4.7/../../../../avr32/lib/ucr3fp\libm.a(lib_a-s_matherr.o)
 .debug_ranges  0x00000450       0x18 c:/program files (x86)/atmel/atmel toolchain/avr32 gcc/native/3.4.1067/avr32-gnu-toolchain/bin/../lib/gcc/avr32/4.4.7/../../../../avr32/lib/ucr3fp\libm.a(lib_a-s_nan.o)
 .debug_ranges  0x00000468       0x18 c:/program files (x86)/atmel/atmel toolchain/avr32 gcc/native/3.4.1067/avr32-gnu-toolchain/bin/../lib/gcc/avr32/4.4.7/../../../../avr32/lib/ucr3fp\libm.a(lib_a-s_rint.o)
 .debug_ranges  0x00000480       0x30 c:/program files (x86)/atmel/atmel toolchain/avr32 gcc/native/3.4.1067/avr32-gnu-toolchain/bin/../lib/gcc/avr32/4.4.7/../../../../avr32/lib/ucr3fp\libm.a(lib_a-s_scalbn.o)
 .debug_ranges  0x000004b0       0x18 c:/program files (x86)/atmel/atmel toolchain/avr32 gcc/native/3.4.1067/avr32-gnu-toolchain/bin/../lib/gcc/avr32/4.4.7/../../../../avr32/lib/ucr3fp\libm.a(lib_a-sf_isnan.o)
 .debug_ranges  0x000004c8       0x18 c:/program files (x86)/atmel/atmel toolchain/avr32 gcc/native/3.4.1067/avr32-gnu-toolchain/bin/../lib/gcc/avr32/4.4.7/../../../../avr32/lib/ucr3fp\libm.a(lib_a-s_copysign.o)
 .debug_ranges  0x000004e0       0x90 c:/program files (x86)/atmel/atmel toolchain/avr32 gcc/native/3.4.1067/avr32-gnu-toolchain/bin/../lib/gcc/avr32/4.4.7/ucr3fp\libgcc.a(_divdi3.o)
 .debug_ranges  0x00000570       0x68 c:/program files (x86)/atmel/atmel toolchain/avr32 gcc/native/3.4.1067/avr32-gnu-toolchain/bin/../lib/gcc/avr32/4.4.7/ucr3fp\libgcc.a(_moddi3.o)
 .debug_ranges  0x000005d8       0x78 c:/program files (x86)/atmel/atmel toolchain/avr32 gcc/native/3.4.1067/avr32-gnu-toolchain/bin/../lib/gcc/avr32/4.4.7/ucr3fp\libgcc.a(_udivdi3.o)
 .debug_ranges  0x00000650       0x38 c:/program files (x86)/atmel/atmel toolchain/avr32 gcc/native/3.4.1067/avr32-gnu-toolchain/bin/../lib/gcc/avr32/4.4.7/ucr3fp\libgcc.a(_umoddi3.o)
 .debug_ranges  0x00000688       0x18 c:/program files (x86)/atmel/atmel toolchain/avr32 gcc/native/3.4.1067/avr32-gnu-toolchain/bin/../lib/gcc/avr32/4.4.7/../../../../avr32/lib/ucr3fp\libc.a(lib_a-errno.o)
 .debug_ranges  0x000006a0       0x20 c:/program files (x86)/atmel/atmel toolchain/avr32 gcc/native/3.4.1067/avr32-gnu-toolchain/bin/../lib/gcc/avr32/4.4.7/../../../../avr32/lib/ucr3fp\libc.a(lib_a-malloc.o)
 .debug_ranges  0x000006c0       0x18 c:/program files (x86)/atmel/atmel toolchain/avr32 gcc/native/3.4.1067/avr32-gnu-toolchain/bin/../lib/gcc/avr32/4.4.7/../../../../avr32/lib/ucr3fp\libc.a(lib_a-mallocr.o)
 .debug_ranges  0x000006d8       0x18 c:/program files (x86)/atmel/atmel toolchain/avr32 gcc/native/3.4.1067/avr32-gnu-toolchain/bin/../lib/gcc/avr32/4.4.7/../../../../avr32/lib/ucr3fp\libc.a(lib_a-memset.o)
 .debug_ranges  0x000006f0       0x20 c:/program files (x86)/atmel/atmel toolchain/avr32 gcc/native/3.4.1067/avr32-gnu-toolchain/bin/../lib/gcc/avr32/4.4.7/../../../../avr32/lib/ucr3fp\libc.a(lib_a-mlock.o)
 .debug_ranges  0x00000710       0x68 c:/program files (x86)/atmel/atmel toolchain/avr32 gcc/native/3.4.1067/avr32-gnu-toolchain/bin/../lib/gcc/avr32/4.4.7/../../../../avr32/lib/ucr3fp\libc.a(lib_a-rand.o)
 .debug_ranges  0x00000778       0x18 c:/program files (x86)/atmel/atmel toolchain/avr32 gcc/native/3.4.1067/avr32-gnu-toolchain/bin/../lib/gcc/avr32/4.4.7/../../../../avr32/lib/ucr3fp\libc.a(lib_a-sbrkr.o)
 .debug_ranges  0x00000790       0x20 c:/program files (x86)/atmel/atmel toolchain/avr32 gcc/native/3.4.1067/avr32-gnu-toolchain/bin/../lib/gcc/avr32/4.4.7/../../../../avr32/lib/ucr3fp\libc.a(lib_a-snprintf.o)
 .debug_ranges  0x000007b0       0x18 c:/program files (x86)/atmel/atmel toolchain/avr32 gcc/native/3.4.1067/avr32-gnu-toolchain/bin/../lib/gcc/avr32/4.4.7/../../../../avr32/lib/ucr3fp\libc.a(lib_a-strcpy.o)
 .debug_ranges  0x000007c8       0x18 c:/program files (x86)/atmel/atmel toolchain/avr32 gcc/native/3.4.1067/avr32-gnu-toolchain/bin/../lib/gcc/avr32/4.4.7/../../../../avr32/lib/ucr3fp\libc.a(lib_a-strlen.o)
 .debug_ranges  0x000007e0       0xf0 c:/program files (x86)/atmel/atmel toolchain/avr32 gcc/native/3.4.1067/avr32-gnu-toolchain/bin/../lib/gcc/avr32/4.4.7/../../../../avr32/lib/ucr3fp\libc.a(lib_a-syscalls.o)
 .debug_ranges  0x000008d0       0xa0 c:/program files (x86)/atmel/atmel toolchain/avr32 gcc/native/3.4.1067/avr32-gnu-toolchain/bin/../lib/gcc/avr32/4.4.7/../../../../avr32/lib/ucr3fp\libc.a(lib_a-vfprintf.o)
 .debug_ranges  0x00000970       0x18 c:/program files (x86)/atmel/atmel toolchain/avr32 gcc/native/3.4.1067/avr32-gnu-toolchain/bin/../lib/gcc/avr32/4.4.7/../../../../avr32/lib/ucr3fp\libc.a(lib_a-wsetup.o)
 .debug_ranges  0x00000988       0x38 c:/program files (x86)/atmel/atmel toolchain/avr32 gcc/native/3.4.1067/avr32-gnu-toolchain/bin/../lib/gcc/avr32/4.4.7/../../../../avr32/lib/ucr3fp\libc.a(lib_a-dtoa.o)
 .debug_ranges  0x000009c0       0x20 c:/program files (x86)/atmel/atmel toolchain/avr32 gcc/native/3.4.1067/avr32-gnu-toolchain/bin/../lib/gcc/avr32/4.4.7/../../../../avr32/lib/ucr3fp\libc.a(lib_a-fflush.o)
 .debug_ranges  0x000009e0       0xb0 c:/program files (x86)/atmel/atmel toolchain/avr32 gcc/native/3.4.1067/avr32-gnu-toolchain/bin/../lib/gcc/avr32/4.4.7/../../../../avr32/lib/ucr3fp\libc.a(lib_a-findfp.o)
 .debug_ranges  0x00000a90       0x20 c:/program files (x86)/atmel/atmel toolchain/avr32 gcc/native/3.4.1067/avr32-gnu-toolchain/bin/../lib/gcc/avr32/4.4.7/../../../../avr32/lib/ucr3fp\libc.a(lib_a-freer.o)
 .debug_ranges  0x00000ab0       0x18 c:/program files (x86)/atmel/atmel toolchain/avr32 gcc/native/3.4.1067/avr32-gnu-toolchain/bin/../lib/gcc/avr32/4.4.7/../../../../avr32/lib/ucr3fp\libc.a(lib_a-fvwrite.o)
 .debug_ranges  0x00000ac8       0xa0 c:/program files (x86)/atmel/atmel toolchain/avr32 gcc/native/3.4.1067/avr32-gnu-toolchain/bin/../lib/gcc/avr32/4.4.7/../../../../avr32/lib/ucr3fp\libc.a(lib_a-fwalk.o)
 .debug_ranges  0x00000b68       0x38 c:/program files (x86)/atmel/atmel toolchain/avr32 gcc/native/3.4.1067/avr32-gnu-toolchain/bin/../lib/gcc/avr32/4.4.7/../../../../avr32/lib/ucr3fp\libc.a(lib_a-locale.o)
 .debug_ranges  0x00000ba0       0x18 c:/program files (x86)/atmel/atmel toolchain/avr32 gcc/native/3.4.1067/avr32-gnu-toolchain/bin/../lib/gcc/avr32/4.4.7/../../../../avr32/lib/ucr3fp\libc.a(lib_a-makebuf.o)
 .debug_ranges  0x00000bb8       0x18 c:/program files (x86)/atmel/atmel toolchain/avr32 gcc/native/3.4.1067/avr32-gnu-toolchain/bin/../lib/gcc/avr32/4.4.7/../../../../avr32/lib/ucr3fp\libc.a(lib_a-memchr.o)
 .debug_ranges  0x00000bd0       0x18 c:/program files (x86)/atmel/atmel toolchain/avr32 gcc/native/3.4.1067/avr32-gnu-toolchain/bin/../lib/gcc/avr32/4.4.7/../../../../avr32/lib/ucr3fp\libc.a(lib_a-memmove.o)
 .debug_ranges  0x00000be8      0x120 c:/program files (x86)/atmel/atmel toolchain/avr32 gcc/native/3.4.1067/avr32-gnu-toolchain/bin/../lib/gcc/avr32/4.4.7/../../../../avr32/lib/ucr3fp\libc.a(lib_a-mprec.o)
 .debug_ranges  0x00000d08       0x30 c:/program files (x86)/atmel/atmel toolchain/avr32 gcc/native/3.4.1067/avr32-gnu-toolchain/bin/../lib/gcc/avr32/4.4.7/../../../../avr32/lib/ucr3fp\libc.a(lib_a-reallocr.o)
 .debug_ranges  0x00000d38       0x28 c:/program files (x86)/atmel/atmel toolchain/avr32 gcc/native/3.4.1067/avr32-gnu-toolchain/bin/../lib/gcc/avr32/4.4.7/../../../../avr32/lib/ucr3fp\libc.a(lib_a-reent.o)
 .debug_ranges  0x00000d60       0x18 c:/program files (x86)/atmel/atmel toolchain/avr32 gcc/native/3.4.1067/avr32-gnu-toolchain/bin/../lib/gcc/avr32/4.4.7/../../../../avr32/lib/ucr3fp\libc.a(lib_a-s_isinfd.o)
 .debug_ranges  0x00000d78       0x30 c:/program files (x86)/atmel/atmel toolchain/avr32 gcc/native/3.4.1067/avr32-gnu-toolchain/bin/../lib/gcc/avr32/4.4.7/../../../../avr32/lib/ucr3fp\libc.a(lib_a-stdio.o)
 .debug_ranges  0x00000da8       0x18 c:/program files (x86)/atmel/atmel toolchain/avr32 gcc/native/3.4.1067/avr32-gnu-toolchain/bin/../lib/gcc/avr32/4.4.7/../../../../avr32/lib/ucr3fp\libc.a(lib_a-writer.o)
 .debug_ranges  0x00000dc0       0x18 c:/program files (x86)/atmel/atmel toolchain/avr32 gcc/native/3.4.1067/avr32-gnu-toolchain/bin/../lib/gcc/avr32/4.4.7/../../../../avr32/lib/ucr3fp\libc.a(lib_a-callocr.o)
 .debug_ranges  0x00000dd8       0x18 c:/program files (x86)/atmel/atmel toolchain/avr32 gcc/native/3.4.1067/avr32-gnu-toolchain/bin/../lib/gcc/avr32/4.4.7/../../../../avr32/lib/ucr3fp\libc.a(lib_a-closer.o)
 .debug_ranges  0x00000df0       0x20 c:/program files (x86)/atmel/atmel toolchain/avr32 gcc/native/3.4.1067/avr32-gnu-toolchain/bin/../lib/gcc/avr32/4.4.7/../../../../avr32/lib/ucr3fp\libc.a(lib_a-fclose.o)
 .debug_ranges  0x00000e10       0x18 c:/program files (x86)/atmel/atmel toolchain/avr32 gcc/native/3.4.1067/avr32-gnu-toolchain/bin/../lib/gcc/avr32/4.4.7/../../../../avr32/lib/ucr3fp\libc.a(lib_a-fstatr.o)
 .debug_ranges  0x00000e28       0x18 c:/program files (x86)/atmel/atmel toolchain/avr32 gcc/native/3.4.1067/avr32-gnu-toolchain/bin/../lib/gcc/avr32/4.4.7/../../../../avr32/lib/ucr3fp\libc.a(lib_a-lseekr.o)
 .debug_ranges  0x00000e40       0x18 c:/program files (x86)/atmel/atmel toolchain/avr32 gcc/native/3.4.1067/avr32-gnu-toolchain/bin/../lib/gcc/avr32/4.4.7/../../../../avr32/lib/ucr3fp\libc.a(lib_a-readr.o)
